; Listing generated by Microsoft (R) Optimizing Compiler Version 15.00.21022.08 

	TITLE	d:\-=SVN=-\svplayer\src\subtitles\Rasterizer.cpp
	.686P
	.XMM
	include listing.inc
	.model	flat

INCLUDELIB OLDNAMES

PUBLIC	??_R4Rasterizer@@6B@				; Rasterizer::`RTTI Complete Object Locator'
PUBLIC	??_R4length_error@std@@6B@			; std::length_error::`RTTI Complete Object Locator'
PUBLIC	??_R3length_error@std@@8			; std::length_error::`RTTI Class Hierarchy Descriptor'
PUBLIC	??_R2length_error@std@@8			; std::length_error::`RTTI Base Class Array'
PUBLIC	??_R1A@?0A@EA@length_error@std@@8		; std::length_error::`RTTI Base Class Descriptor at (0,-1,0,64)'
PUBLIC	??_GRasterizer@@UAEPAXI@Z			; Rasterizer::`scalar deleting destructor'
PUBLIC	??0CPoint@@QAE@UtagPOINT@@@Z			; CPoint::CPoint
PUBLIC	??9CPoint@@QBEHUtagPOINT@@@Z			; CPoint::operator!=
PUBLIC	??0?$allocator@H@std@@QAE@XZ			; std::allocator<int>::allocator<int>
PUBLIC	??$?0H@?$allocator@V_Aux_cont@std@@@std@@QAE@ABV?$allocator@H@1@@Z ; std::allocator<std::_Aux_cont>::allocator<std::_Aux_cont><int>
PUBLIC	??0?$_Container_base_aux_alloc_real@V?$allocator@H@std@@@std@@IAE@V?$allocator@H@1@@Z ; std::_Container_base_aux_alloc_real<std::allocator<int> >::_Container_base_aux_alloc_real<std::allocator<int> >
PUBLIC	??0?$allocator@H@std@@QAE@ABV01@@Z		; std::allocator<int>::allocator<int>
PUBLIC	??0?$_Vector_val@HV?$allocator@H@std@@@std@@IAE@V?$allocator@H@1@@Z ; std::_Vector_val<int,std::allocator<int> >::_Vector_val<int,std::allocator<int> >
PUBLIC	?_Buy@?$vector@HV?$allocator@H@std@@@std@@IAE_NI@Z ; std::vector<int,std::allocator<int> >::_Buy
PUBLIC	??0?$vector@HV?$allocator@H@std@@@std@@QAE@XZ	; std::vector<int,std::allocator<int> >::vector<int,std::allocator<int> >
PUBLIC	??1?$_Container_base_aux_alloc_real@V?$allocator@H@std@@@std@@IAE@XZ ; std::_Container_base_aux_alloc_real<std::allocator<int> >::~_Container_base_aux_alloc_real<std::allocator<int> >
PUBLIC	??1?$_Vector_val@HV?$allocator@H@std@@@std@@QAE@XZ ; std::_Vector_val<int,std::allocator<int> >::~_Vector_val<int,std::allocator<int> >
PUBLIC	?_Tidy@?$vector@HV?$allocator@H@std@@@std@@IAEXXZ ; std::vector<int,std::allocator<int> >::_Tidy
PUBLIC	??1?$vector@HV?$allocator@H@std@@@std@@QAE@XZ	; std::vector<int,std::allocator<int> >::~vector<int,std::allocator<int> >
PUBLIC	?deallocate@?$allocator@H@std@@QAEXPAHI@Z	; std::allocator<int>::deallocate
PUBLIC	??$_Allocate@H@std@@YAPAHIPAH@Z			; std::_Allocate<int>
PUBLIC	?allocate@?$allocator@H@std@@QAEPAHI@Z		; std::allocator<int>::allocate
PUBLIC	?capacity@?$vector@HV?$allocator@H@std@@@std@@QBEIXZ ; std::vector<int,std::allocator<int> >::capacity
PUBLIC	?size@?$vector@HV?$allocator@H@std@@@std@@QBEIXZ ; std::vector<int,std::allocator<int> >::size
PUBLIC	?max_size@?$allocator@H@std@@QBEIXZ		; std::allocator<int>::max_size
PUBLIC	?max_size@?$vector@HV?$allocator@H@std@@@std@@QBEIXZ ; std::vector<int,std::allocator<int> >::max_size
PUBLIC	?_Xlen@?$vector@HV?$allocator@H@std@@@std@@KAXXZ ; std::vector<int,std::allocator<int> >::_Xlen
PUBLIC	??$_Uninit_copy@PAHPAHV?$allocator@H@std@@@std@@YAPAHPAH00AAV?$allocator@H@0@U_Scalar_ptr_iterator_tag@0@U_Range_checked_iterator_tag@0@@Z ; std::_Uninit_copy<int *,int *,std::allocator<int> >
PUBLIC	??$unchecked_uninitialized_copy@PAHPAHV?$allocator@H@std@@@stdext@@YAPAHPAH00AAV?$allocator@H@std@@@Z ; stdext::unchecked_uninitialized_copy<int *,int *,std::allocator<int> >
PUBLIC	??$_Uninit_move@PAHPAHV?$allocator@H@std@@U_Undefined_move_tag@2@@std@@YAPAHPAH00AAV?$allocator@H@0@U_Undefined_move_tag@0@U_Range_checked_iterator_tag@0@@Z ; std::_Uninit_move<int *,int *,std::allocator<int>,std::_Undefined_move_tag>
PUBLIC	??$_Unchecked_uninitialized_move@PAHPAHV?$allocator@H@std@@@stdext@@YAPAHPAH00AAV?$allocator@H@std@@@Z ; stdext::_Unchecked_uninitialized_move<int *,int *,std::allocator<int> >
PUBLIC	??$_Umove@PAH@?$vector@HV?$allocator@H@std@@@std@@IAEPAHPAH00@Z ; std::vector<int,std::allocator<int> >::_Umove<int *>
PUBLIC	??$_Fill@PAHH@std@@YAXPAH0ABH@Z			; std::_Fill<int *,int>
PUBLIC	??$fill@PAHH@std@@YAXPAH0ABH@Z			; std::fill<int *,int>
PUBLIC	??$_Move_cat@PAH@std@@YA?AU_Undefined_move_tag@0@ABQAH@Z ; std::_Move_cat<int *>
PUBLIC	??$_Move_backward_opt@PAHPAHUrandom_access_iterator_tag@std@@U_Undefined_move_tag@2@@std@@YAPAHPAH00Urandom_access_iterator_tag@0@U_Undefined_move_tag@0@U_Range_checked_iterator_tag@0@@Z ; std::_Move_backward_opt<int *,int *,std::random_access_iterator_tag,std::_Undefined_move_tag>
PUBLIC	??$_Unchecked_move_backward@PAHPAH@stdext@@YAPAHPAH00@Z ; stdext::_Unchecked_move_backward<int *,int *>
PUBLIC	?_Insert_n@?$vector@HV?$allocator@H@std@@@std@@IAEXV?$_Vector_const_iterator@HV?$allocator@H@std@@@2@IABH@Z ; std::vector<int,std::allocator<int> >::_Insert_n
PUBLIC	??Y?$_Vector_const_iterator@HV?$allocator@H@std@@@std@@QAEAAV01@H@Z ; std::_Vector_const_iterator<int,std::allocator<int> >::operator+=
PUBLIC	??Y?$_Vector_iterator@HV?$allocator@H@std@@@std@@QAEAAV01@H@Z ; std::_Vector_iterator<int,std::allocator<int> >::operator+=
PUBLIC	??H?$_Vector_iterator@HV?$allocator@H@std@@@std@@QBE?AV01@H@Z ; std::_Vector_iterator<int,std::allocator<int> >::operator+
PUBLIC	?insert@?$vector@HV?$allocator@H@std@@@std@@QAE?AV?$_Vector_iterator@HV?$allocator@H@std@@@2@V?$_Vector_const_iterator@HV?$allocator@H@std@@@2@ABH@Z ; std::vector<int,std::allocator<int> >::insert
PUBLIC	??$_Iter_cat@PAH@std@@YA?AUrandom_access_iterator_tag@0@ABQAH@Z ; std::_Iter_cat<int *>
PUBLIC	??$_Fill_n@PAHIH@std@@YAXPAHIABHU_Range_checked_iterator_tag@0@@Z ; std::_Fill_n<int *,unsigned int,int>
PUBLIC	??$_Fill_n@PAHIH@std@@YAXPAHIABHUrandom_access_iterator_tag@0@U_Range_checked_iterator_tag@0@@Z ; std::_Fill_n<int *,unsigned int,int>
PUBLIC	??$unchecked_fill_n@PAHIH@stdext@@YAXPAHIABH@Z	; stdext::unchecked_fill_n<int *,unsigned int,int>
PUBLIC	??$_Uninit_fill_n@PAHIHV?$allocator@H@std@@@std@@YAXPAHIABHAAV?$allocator@H@0@U_Scalar_ptr_iterator_tag@0@U_Range_checked_iterator_tag@0@@Z ; std::_Uninit_fill_n<int *,unsigned int,int,std::allocator<int> >
PUBLIC	??$unchecked_uninitialized_fill_n@PAHIHV?$allocator@H@std@@@stdext@@YAXPAHIABHAAV?$allocator@H@std@@@Z ; stdext::unchecked_uninitialized_fill_n<int *,unsigned int,int,std::allocator<int> >
PUBLIC	?_Ufill@?$vector@HV?$allocator@H@std@@@std@@IAEPAHPAHIABH@Z ; std::vector<int,std::allocator<int> >::_Ufill
PUBLIC	?push_back@?$vector@HV?$allocator@H@std@@@std@@QAEXABH@Z ; std::vector<int,std::allocator<int> >::push_back
PUBLIC	?begin@?$vector@HV?$allocator@H@std@@@std@@QAE?AV?$_Vector_iterator@HV?$allocator@H@std@@@2@XZ ; std::vector<int,std::allocator<int> >::begin
PUBLIC	?end@?$vector@HV?$allocator@H@std@@@std@@QAE?AV?$_Vector_iterator@HV?$allocator@H@std@@@2@XZ ; std::vector<int,std::allocator<int> >::end
PUBLIC	??0?$_Iterator_with_base@Urandom_access_iterator_tag@std@@HHPBHABHV_Iterator_base_aux@2@@std@@QAE@XZ ; std::_Iterator_with_base<std::random_access_iterator_tag,int,int,int const *,int const &,std::_Iterator_base_aux>::_Iterator_with_base<std::random_access_iterator_tag,int,int,int const *,int const &,std::_Iterator_base_aux>
PUBLIC	??0?$_Ranit@HHPBHABH@std@@QAE@XZ		; std::_Ranit<int,int,int const *,int const &>::_Ranit<int,int,int const *,int const &>
PUBLIC	??0?$_Vector_const_iterator@HV?$allocator@H@std@@@std@@QAE@PAHPBV_Container_base_aux@1@@Z ; std::_Vector_const_iterator<int,std::allocator<int> >::_Vector_const_iterator<int,std::allocator<int> >
PUBLIC	??0?$_Vector_iterator@HV?$allocator@H@std@@@std@@QAE@PAHPBV_Container_base_aux@1@@Z ; std::_Vector_iterator<int,std::allocator<int> >::_Vector_iterator<int,std::allocator<int> >
PUBLIC	?_Make_iter@?$vector@HV?$allocator@H@std@@@std@@QBE?AV?$_Vector_iterator@HV?$allocator@H@std@@@2@V?$_Vector_const_iterator@HV?$allocator@H@std@@@2@@Z ; std::vector<int,std::allocator<int> >::_Make_iter
PUBLIC	??$_Destroy_range@V?$allocator@H@std@@@std@@YAXPAH0AAV?$allocator@H@0@U_Scalar_ptr_iterator_tag@0@@Z ; std::_Destroy_range<std::allocator<int> >
PUBLIC	??$_Destroy_range@V?$allocator@H@std@@@std@@YAXPAH0AAV?$allocator@H@0@@Z ; std::_Destroy_range<std::allocator<int> >
PUBLIC	?_Destroy@?$vector@HV?$allocator@H@std@@@std@@IAEXPAH0@Z ; std::vector<int,std::allocator<int> >::_Destroy
PUBLIC	??$_Copy_opt@PAHPAHUrandom_access_iterator_tag@std@@@std@@YAPAHPAH00Urandom_access_iterator_tag@0@U_Scalar_ptr_iterator_tag@0@U_Range_checked_iterator_tag@0@@Z ; std::_Copy_opt<int *,int *,std::random_access_iterator_tag>
PUBLIC	??$unchecked_copy@PAHPAH@stdext@@YAPAHPAH00@Z	; stdext::unchecked_copy<int *,int *>
PUBLIC	?erase@?$vector@HV?$allocator@H@std@@@std@@QAE?AV?$_Vector_iterator@HV?$allocator@H@std@@@2@V?$_Vector_const_iterator@HV?$allocator@H@std@@@2@0@Z ; std::vector<int,std::allocator<int> >::erase
PUBLIC	?clear@?$vector@HV?$allocator@H@std@@@std@@QAEXXZ ; std::vector<int,std::allocator<int> >::clear
PUBLIC	??8?$_Vector_const_iterator@HV?$allocator@H@std@@@std@@QBE_NABV01@@Z ; std::_Vector_const_iterator<int,std::allocator<int> >::operator==
PUBLIC	??9?$_Vector_const_iterator@HV?$allocator@H@std@@@std@@QBE_NABV01@@Z ; std::_Vector_const_iterator<int,std::allocator<int> >::operator!=
PUBLIC	??D?$_Vector_const_iterator@HV?$allocator@H@std@@@std@@QBEABHXZ ; std::_Vector_const_iterator<int,std::allocator<int> >::operator*
PUBLIC	??D?$_Vector_iterator@HV?$allocator@H@std@@@std@@QBEAAHXZ ; std::_Vector_iterator<int,std::allocator<int> >::operator*
PUBLIC	??E?$_Vector_const_iterator@HV?$allocator@H@std@@@std@@QAEAAV01@XZ ; std::_Vector_const_iterator<int,std::allocator<int> >::operator++
PUBLIC	??E?$_Vector_iterator@HV?$allocator@H@std@@@std@@QAEAAV01@XZ ; std::_Vector_iterator<int,std::allocator<int> >::operator++
PUBLIC	??G?$_Vector_const_iterator@HV?$allocator@H@std@@@std@@QBEHABV01@@Z ; std::_Vector_const_iterator<int,std::allocator<int> >::operator-
PUBLIC	??G?$_Vector_iterator@HV?$allocator@H@std@@@std@@QBEHABV?$_Vector_const_iterator@HV?$allocator@H@std@@@1@@Z ; std::_Vector_iterator<int,std::allocator<int> >::operator-
PUBLIC	?_Checked_iterator_base@?$_Vector_iterator@HV?$allocator@H@std@@@std@@QBEPAHXZ ; std::_Vector_iterator<int,std::allocator<int> >::_Checked_iterator_base
PUBLIC	??$_Checked_base@V?$_Vector_iterator@HV?$allocator@H@std@@@std@@U_Different_checked_iterator_base_type_tag@2@@std@@YAPAHAAV?$_Vector_iterator@HV?$allocator@H@std@@@0@U_Different_checked_iterator_base_type_tag@0@@Z ; std::_Checked_base<std::_Vector_iterator<int,std::allocator<int> >,std::_Different_checked_iterator_base_type_tag>
PUBLIC	??$_Checked_base@V?$_Vector_iterator@HV?$allocator@H@std@@@std@@@std@@YAPAHAAV?$_Vector_iterator@HV?$allocator@H@std@@@0@@Z ; std::_Checked_base<std::_Vector_iterator<int,std::allocator<int> > >
PUBLIC	??0?$pair@PAHPAH@std@@QAE@ABQAH0@Z		; std::pair<int *,int *>::pair<int *,int *>
PUBLIC	??$_Med3@PAH@std@@YAXPAH00@Z			; std::_Med3<int *>
PUBLIC	??$_Median@PAH@std@@YAXPAH00@Z			; std::_Median<int *>
PUBLIC	??$swap@H@std@@YAXAAH0@Z			; std::swap<int>
PUBLIC	??$iter_swap@PAHPAH@std@@YAXPAH0@Z		; std::iter_swap<int *,int *>
PUBLIC	??$_Unguarded_partition@PAH@std@@YA?AU?$pair@PAHPAH@0@PAH0@Z ; std::_Unguarded_partition<int *>
PUBLIC	??$_Make_heap@PAHHH@std@@YAXPAH000@Z		; std::_Make_heap<int *,int,int>
PUBLIC	??$make_heap@PAH@std@@YAXPAH0@Z			; std::make_heap<int *>
PUBLIC	??$_Dist_type@PAH@std@@YAPAHPAH@Z		; std::_Dist_type<int *>
PUBLIC	??$_Push_heap@PAHHH@std@@YAXPAHHHH@Z		; std::_Push_heap<int *,int,int>
PUBLIC	??$_Adjust_heap@PAHHH@std@@YAXPAHHHH@Z		; std::_Adjust_heap<int *,int,int>
PUBLIC	??$_Pop_heap@PAHHH@std@@YAXPAH00H0@Z		; std::_Pop_heap<int *,int,int>
PUBLIC	??$_Pop_heap_0@PAHH@std@@YAXPAH00@Z		; std::_Pop_heap_0<int *,int>
PUBLIC	??$pop_heap@PAH@std@@YAXPAH0@Z			; std::pop_heap<int *>
PUBLIC	??$_Sort_heap@PAH@std@@YAXPAH0@Z		; std::_Sort_heap<int *>
PUBLIC	??$sort_heap@PAH@std@@YAXPAH0@Z			; std::sort_heap<int *>
PUBLIC	??$_Val_type@PAH@std@@YAPAHPAH@Z		; std::_Val_type<int *>
PUBLIC	??$_Checked_base@PAH@std@@YAPAHAAPAHU_Unchanged_checked_iterator_base_type_tag@0@@Z ; std::_Checked_base<int *>
PUBLIC	??$_Checked_base@PAH@std@@YAPAHAAPAH@Z		; std::_Checked_base<int *>
PUBLIC	??$_Iter_random@PAHPAH@std@@YA?AUrandom_access_iterator_tag@0@ABQAH0@Z ; std::_Iter_random<int *,int *>
PUBLIC	??$_Ptr_cat@PAHPAH@std@@YA?AU_Scalar_ptr_iterator_tag@0@AAPAH0@Z ; std::_Ptr_cat<int *,int *>
PUBLIC	??$_Copy_backward_opt@PAHPAHUrandom_access_iterator_tag@std@@@std@@YAPAHPAH00Urandom_access_iterator_tag@0@U_Scalar_ptr_iterator_tag@0@U_Range_checked_iterator_tag@0@@Z ; std::_Copy_backward_opt<int *,int *,std::random_access_iterator_tag>
PUBLIC	??$unchecked_copy_backward@PAHPAH@stdext@@YAPAHPAH00@Z ; stdext::unchecked_copy_backward<int *,int *>
PUBLIC	??$_Insertion_sort1@PAHH@std@@YAXPAH00@Z	; std::_Insertion_sort1<int *,int>
PUBLIC	??$_Insertion_sort@PAH@std@@YAXPAH0@Z		; std::_Insertion_sort<int *>
PUBLIC	??$_Sort@PAHH@std@@YAXPAH0H@Z			; std::_Sort<int *,int>
PUBLIC	??$sort@V?$_Vector_iterator@HV?$allocator@H@std@@@std@@@std@@YAXV?$_Vector_iterator@HV?$allocator@H@std@@@0@0@Z ; std::sort<std::_Vector_iterator<int,std::allocator<int> > >
PUBLIC	??0?$pair@_J_J@std@@QAE@AB_J0@Z			; std::pair<__int64,__int64>::pair<__int64,__int64>
PUBLIC	??$?0_J_J@?$pair@_K_K@std@@QAE@ABU?$pair@_J_J@1@@Z ; std::pair<unsigned __int64,unsigned __int64>::pair<unsigned __int64,unsigned __int64><__int64,__int64>
PUBLIC	??0?$allocator@U?$pair@_K_K@std@@@std@@QAE@XZ	; std::allocator<std::pair<unsigned __int64,unsigned __int64> >::allocator<std::pair<unsigned __int64,unsigned __int64> >
PUBLIC	??0?$vector@U?$pair@_K_K@std@@V?$allocator@U?$pair@_K_K@std@@@2@@std@@QAE@XZ ; std::vector<std::pair<unsigned __int64,unsigned __int64>,std::allocator<std::pair<unsigned __int64,unsigned __int64> > >::vector<std::pair<unsigned __int64,unsigned __int64>,std::allocator<std::pair<unsigned __int64,unsigned __int64> > >
PUBLIC	?_Checked_iterator_base@?$_Vector_iterator@U?$pair@_K_K@std@@V?$allocator@U?$pair@_K_K@std@@@2@@std@@QBEPAU?$pair@_K_K@2@XZ ; std::_Vector_iterator<std::pair<unsigned __int64,unsigned __int64>,std::allocator<std::pair<unsigned __int64,unsigned __int64> > >::_Checked_iterator_base
PUBLIC	??$_Checked_base@V?$_Vector_iterator@U?$pair@_K_K@std@@V?$allocator@U?$pair@_K_K@std@@@2@@std@@U_Different_checked_iterator_base_type_tag@2@@std@@YAPAU?$pair@_K_K@0@AAV?$_Vector_iterator@U?$pair@_K_K@std@@V?$allocator@U?$pair@_K_K@std@@@2@@0@U_Different_checked_iterator_base_type_tag@0@@Z ; std::_Checked_base<std::_Vector_iterator<std::pair<unsigned __int64,unsigned __int64>,std::allocator<std::pair<unsigned __int64,unsigned __int64> > >,std::_Different_checked_iterator_base_type_tag>
PUBLIC	??$_Checked_base@V?$_Vector_iterator@U?$pair@_K_K@std@@V?$allocator@U?$pair@_K_K@std@@@2@@std@@@std@@YAPAU?$pair@_K_K@0@AAV?$_Vector_iterator@U?$pair@_K_K@std@@V?$allocator@U?$pair@_K_K@std@@@2@@0@@Z ; std::_Checked_base<std::_Vector_iterator<std::pair<unsigned __int64,unsigned __int64>,std::allocator<std::pair<unsigned __int64,unsigned __int64> > > >
PUBLIC	??$_Unchecked_uninitialized_move@V?$_Vector_iterator@U?$pair@_K_K@std@@V?$allocator@U?$pair@_K_K@std@@@2@@std@@PAU?$pair@_K_K@2@V?$allocator@U?$pair@_K_K@std@@@2@@stdext@@YAPAU?$pair@_K_K@std@@V?$_Vector_iterator@U?$pair@_K_K@std@@V?$allocator@U?$pair@_K_K@std@@@2@@2@0PAU12@AAV?$allocator@U?$pair@_K_K@std@@@2@@Z ; stdext::_Unchecked_uninitialized_move<std::_Vector_iterator<std::pair<unsigned __int64,unsigned __int64>,std::allocator<std::pair<unsigned __int64,unsigned __int64> > >,std::pair<unsigned __int64,unsigned __int64> *,std::allocator<std::pair<unsigned __int64,unsigned __int64> > >
PUBLIC	??$_Umove@V?$_Vector_iterator@U?$pair@_K_K@std@@V?$allocator@U?$pair@_K_K@std@@@2@@std@@@?$vector@U?$pair@_K_K@std@@V?$allocator@U?$pair@_K_K@std@@@2@@std@@IAEPAU?$pair@_K_K@1@V?$_Vector_iterator@U?$pair@_K_K@std@@V?$allocator@U?$pair@_K_K@std@@@2@@1@0PAU21@@Z ; std::vector<std::pair<unsigned __int64,unsigned __int64>,std::allocator<std::pair<unsigned __int64,unsigned __int64> > >::_Umove<std::_Vector_iterator<std::pair<unsigned __int64,unsigned __int64>,std::allocator<std::pair<unsigned __int64,unsigned __int64> > > >
PUBLIC	?reserve@?$vector@U?$pair@_K_K@std@@V?$allocator@U?$pair@_K_K@std@@@2@@std@@QAEXI@Z ; std::vector<std::pair<unsigned __int64,unsigned __int64>,std::allocator<std::pair<unsigned __int64,unsigned __int64> > >::reserve
PUBLIC	??$_Uninit_move@PAU?$pair@_K_K@std@@PAU12@V?$allocator@U?$pair@_K_K@std@@@2@U_Undefined_move_tag@2@@std@@YAPAU?$pair@_K_K@0@PAU10@00AAV?$allocator@U?$pair@_K_K@std@@@0@U_Undefined_move_tag@0@U_Range_checked_iterator_tag@0@@Z ; std::_Uninit_move<std::pair<unsigned __int64,unsigned __int64> *,std::pair<unsigned __int64,unsigned __int64> *,std::allocator<std::pair<unsigned __int64,unsigned __int64> >,std::_Undefined_move_tag>
PUBLIC	??$_Unchecked_uninitialized_move@PAU?$pair@_K_K@std@@PAU12@V?$allocator@U?$pair@_K_K@std@@@2@@stdext@@YAPAU?$pair@_K_K@std@@PAU12@00AAV?$allocator@U?$pair@_K_K@std@@@2@@Z ; stdext::_Unchecked_uninitialized_move<std::pair<unsigned __int64,unsigned __int64> *,std::pair<unsigned __int64,unsigned __int64> *,std::allocator<std::pair<unsigned __int64,unsigned __int64> > >
PUBLIC	??$_Umove@PAU?$pair@_K_K@std@@@?$vector@U?$pair@_K_K@std@@V?$allocator@U?$pair@_K_K@std@@@2@@std@@IAEPAU?$pair@_K_K@1@PAU21@00@Z ; std::vector<std::pair<unsigned __int64,unsigned __int64>,std::allocator<std::pair<unsigned __int64,unsigned __int64> > >::_Umove<std::pair<unsigned __int64,unsigned __int64> *>
PUBLIC	??$_Fill@PAU?$pair@_K_K@std@@U12@@std@@YAXPAU?$pair@_K_K@0@0ABU10@@Z ; std::_Fill<std::pair<unsigned __int64,unsigned __int64> *,std::pair<unsigned __int64,unsigned __int64> >
PUBLIC	??$fill@PAU?$pair@_K_K@std@@U12@@std@@YAXPAU?$pair@_K_K@0@0ABU10@@Z ; std::fill<std::pair<unsigned __int64,unsigned __int64> *,std::pair<unsigned __int64,unsigned __int64> >
PUBLIC	??$_Move_cat@PAU?$pair@_K_K@std@@@std@@YA?AU_Undefined_move_tag@0@ABQAU?$pair@_K_K@0@@Z ; std::_Move_cat<std::pair<unsigned __int64,unsigned __int64> *>
PUBLIC	??$_Copy_backward_opt@PAU?$pair@_K_K@std@@PAU12@Uforward_iterator_tag@2@@std@@YAPAU?$pair@_K_K@0@PAU10@00Uforward_iterator_tag@0@U_Nonscalar_ptr_iterator_tag@0@U_Range_checked_iterator_tag@0@@Z ; std::_Copy_backward_opt<std::pair<unsigned __int64,unsigned __int64> *,std::pair<unsigned __int64,unsigned __int64> *,std::forward_iterator_tag>
PUBLIC	??$_Copy_backward_opt@PAU?$pair@_K_K@std@@PAU12@@std@@YAPAU?$pair@_K_K@0@PAU10@00Urandom_access_iterator_tag@0@U_Nonscalar_ptr_iterator_tag@0@U_Range_checked_iterator_tag@0@@Z ; std::_Copy_backward_opt<std::pair<unsigned __int64,unsigned __int64> *,std::pair<unsigned __int64,unsigned __int64> *>
PUBLIC	??$_Move_backward_opt@PAU?$pair@_K_K@std@@PAU12@Urandom_access_iterator_tag@2@U_Undefined_move_tag@2@@std@@YAPAU?$pair@_K_K@0@PAU10@00Urandom_access_iterator_tag@0@U_Undefined_move_tag@0@U_Range_checked_iterator_tag@0@@Z ; std::_Move_backward_opt<std::pair<unsigned __int64,unsigned __int64> *,std::pair<unsigned __int64,unsigned __int64> *,std::random_access_iterator_tag,std::_Undefined_move_tag>
PUBLIC	??$_Unchecked_move_backward@PAU?$pair@_K_K@std@@PAU12@@stdext@@YAPAU?$pair@_K_K@std@@PAU12@00@Z ; stdext::_Unchecked_move_backward<std::pair<unsigned __int64,unsigned __int64> *,std::pair<unsigned __int64,unsigned __int64> *>
PUBLIC	?_Insert_n@?$vector@U?$pair@_K_K@std@@V?$allocator@U?$pair@_K_K@std@@@2@@std@@IAEXV?$_Vector_const_iterator@U?$pair@_K_K@std@@V?$allocator@U?$pair@_K_K@std@@@2@@2@IABU?$pair@_K_K@2@@Z ; std::vector<std::pair<unsigned __int64,unsigned __int64>,std::allocator<std::pair<unsigned __int64,unsigned __int64> > >::_Insert_n
PUBLIC	??G?$_Vector_const_iterator@U?$pair@_K_K@std@@V?$allocator@U?$pair@_K_K@std@@@2@@std@@QBEHABV01@@Z ; std::_Vector_const_iterator<std::pair<unsigned __int64,unsigned __int64>,std::allocator<std::pair<unsigned __int64,unsigned __int64> > >::operator-
PUBLIC	??Y?$_Vector_const_iterator@U?$pair@_K_K@std@@V?$allocator@U?$pair@_K_K@std@@@2@@std@@QAEAAV01@H@Z ; std::_Vector_const_iterator<std::pair<unsigned __int64,unsigned __int64>,std::allocator<std::pair<unsigned __int64,unsigned __int64> > >::operator+=
PUBLIC	??Y?$_Vector_iterator@U?$pair@_K_K@std@@V?$allocator@U?$pair@_K_K@std@@@2@@std@@QAEAAV01@H@Z ; std::_Vector_iterator<std::pair<unsigned __int64,unsigned __int64>,std::allocator<std::pair<unsigned __int64,unsigned __int64> > >::operator+=
PUBLIC	??H?$_Vector_iterator@U?$pair@_K_K@std@@V?$allocator@U?$pair@_K_K@std@@@2@@std@@QBE?AV01@H@Z ; std::_Vector_iterator<std::pair<unsigned __int64,unsigned __int64>,std::allocator<std::pair<unsigned __int64,unsigned __int64> > >::operator+
PUBLIC	?insert@?$vector@U?$pair@_K_K@std@@V?$allocator@U?$pair@_K_K@std@@@2@@std@@QAE?AV?$_Vector_iterator@U?$pair@_K_K@std@@V?$allocator@U?$pair@_K_K@std@@@2@@2@V?$_Vector_const_iterator@U?$pair@_K_K@std@@V?$allocator@U?$pair@_K_K@std@@@2@@2@ABU?$pair@_K_K@2@@Z ; std::vector<std::pair<unsigned __int64,unsigned __int64>,std::allocator<std::pair<unsigned __int64,unsigned __int64> > >::insert
PUBLIC	??$_Uninit_fill_n@PAU?$pair@_K_K@std@@IU12@V?$allocator@U?$pair@_K_K@std@@@2@@std@@YAXPAU?$pair@_K_K@0@IABU10@AAV?$allocator@U?$pair@_K_K@std@@@0@U_Nonscalar_ptr_iterator_tag@0@U_Range_checked_iterator_tag@0@@Z ; std::_Uninit_fill_n<std::pair<unsigned __int64,unsigned __int64> *,unsigned int,std::pair<unsigned __int64,unsigned __int64>,std::allocator<std::pair<unsigned __int64,unsigned __int64> > >
PUBLIC	??$unchecked_uninitialized_fill_n@PAU?$pair@_K_K@std@@IU12@V?$allocator@U?$pair@_K_K@std@@@2@@stdext@@YAXPAU?$pair@_K_K@std@@IABU12@AAV?$allocator@U?$pair@_K_K@std@@@2@@Z ; stdext::unchecked_uninitialized_fill_n<std::pair<unsigned __int64,unsigned __int64> *,unsigned int,std::pair<unsigned __int64,unsigned __int64>,std::allocator<std::pair<unsigned __int64,unsigned __int64> > >
PUBLIC	?_Ufill@?$vector@U?$pair@_K_K@std@@V?$allocator@U?$pair@_K_K@std@@@2@@std@@IAEPAU?$pair@_K_K@2@PAU32@IABU32@@Z ; std::vector<std::pair<unsigned __int64,unsigned __int64>,std::allocator<std::pair<unsigned __int64,unsigned __int64> > >::_Ufill
PUBLIC	?push_back@?$vector@U?$pair@_K_K@std@@V?$allocator@U?$pair@_K_K@std@@@2@@std@@QAEXABU?$pair@_K_K@2@@Z ; std::vector<std::pair<unsigned __int64,unsigned __int64>,std::allocator<std::pair<unsigned __int64,unsigned __int64> > >::push_back
PUBLIC	??$swap@PAV_Aux_cont@std@@@std@@YAXAAPAV_Aux_cont@0@0@Z ; std::swap<std::_Aux_cont *>
PUBLIC	??$swap@V_Aux_cont@std@@@std@@YAXAAV_Aux_cont@0@0@Z ; std::swap<std::_Aux_cont>
PUBLIC	?_Swap_aux@_Container_base_aux@std@@QAEXAAV12@@Z ; std::_Container_base_aux::_Swap_aux
PUBLIC	??$?0U?$pair@_K_K@std@@@?$allocator@V_Aux_cont@std@@@std@@QAE@ABV?$allocator@U?$pair@_K_K@std@@@1@@Z ; std::allocator<std::_Aux_cont>::allocator<std::_Aux_cont><std::pair<unsigned __int64,unsigned __int64> >
PUBLIC	??0?$_Container_base_aux_alloc_real@V?$allocator@U?$pair@_K_K@std@@@std@@@std@@IAE@V?$allocator@U?$pair@_K_K@std@@@1@@Z ; std::_Container_base_aux_alloc_real<std::allocator<std::pair<unsigned __int64,unsigned __int64> > >::_Container_base_aux_alloc_real<std::allocator<std::pair<unsigned __int64,unsigned __int64> > >
PUBLIC	??0?$allocator@U?$pair@_K_K@std@@@std@@QAE@ABV01@@Z ; std::allocator<std::pair<unsigned __int64,unsigned __int64> >::allocator<std::pair<unsigned __int64,unsigned __int64> >
PUBLIC	??0?$_Vector_val@U?$pair@_K_K@std@@V?$allocator@U?$pair@_K_K@std@@@2@@std@@IAE@V?$allocator@U?$pair@_K_K@std@@@1@@Z ; std::_Vector_val<std::pair<unsigned __int64,unsigned __int64>,std::allocator<std::pair<unsigned __int64,unsigned __int64> > >::_Vector_val<std::pair<unsigned __int64,unsigned __int64>,std::allocator<std::pair<unsigned __int64,unsigned __int64> > >
PUBLIC	?begin@?$vector@U?$pair@_K_K@std@@V?$allocator@U?$pair@_K_K@std@@@2@@std@@QBE?AV?$_Vector_const_iterator@U?$pair@_K_K@std@@V?$allocator@U?$pair@_K_K@std@@@2@@2@XZ ; std::vector<std::pair<unsigned __int64,unsigned __int64>,std::allocator<std::pair<unsigned __int64,unsigned __int64> > >::begin
PUBLIC	?end@?$vector@U?$pair@_K_K@std@@V?$allocator@U?$pair@_K_K@std@@@2@@std@@QBE?AV?$_Vector_const_iterator@U?$pair@_K_K@std@@V?$allocator@U?$pair@_K_K@std@@@2@@2@XZ ; std::vector<std::pair<unsigned __int64,unsigned __int64>,std::allocator<std::pair<unsigned __int64,unsigned __int64> > >::end
PUBLIC	?_Checked_iterator_base@?$_Vector_const_iterator@U?$pair@_K_K@std@@V?$allocator@U?$pair@_K_K@std@@@2@@std@@QBEPBU?$pair@_K_K@2@XZ ; std::_Vector_const_iterator<std::pair<unsigned __int64,unsigned __int64>,std::allocator<std::pair<unsigned __int64,unsigned __int64> > >::_Checked_iterator_base
PUBLIC	??$_Checked_base@V?$_Vector_const_iterator@U?$pair@_K_K@std@@V?$allocator@U?$pair@_K_K@std@@@2@@std@@U_Different_checked_iterator_base_type_tag@2@@std@@YAPBU?$pair@_K_K@0@AAV?$_Vector_const_iterator@U?$pair@_K_K@std@@V?$allocator@U?$pair@_K_K@std@@@2@@0@U_Different_checked_iterator_base_type_tag@0@@Z ; std::_Checked_base<std::_Vector_const_iterator<std::pair<unsigned __int64,unsigned __int64>,std::allocator<std::pair<unsigned __int64,unsigned __int64> > >,std::_Different_checked_iterator_base_type_tag>
PUBLIC	??$_Checked_base@V?$_Vector_const_iterator@U?$pair@_K_K@std@@V?$allocator@U?$pair@_K_K@std@@@2@@std@@@std@@YAPBU?$pair@_K_K@0@AAV?$_Vector_const_iterator@U?$pair@_K_K@std@@V?$allocator@U?$pair@_K_K@std@@@2@@0@@Z ; std::_Checked_base<std::_Vector_const_iterator<std::pair<unsigned __int64,unsigned __int64>,std::allocator<std::pair<unsigned __int64,unsigned __int64> > > >
PUBLIC	??$_Ptr_cat@V?$_Vector_const_iterator@U?$pair@_K_K@std@@V?$allocator@U?$pair@_K_K@std@@@2@@std@@PAU?$pair@_K_K@2@@std@@YA?AU_Nonscalar_ptr_iterator_tag@0@AAV?$_Vector_const_iterator@U?$pair@_K_K@std@@V?$allocator@U?$pair@_K_K@std@@@2@@0@AAPAU?$pair@_K_K@0@@Z ; std::_Ptr_cat<std::_Vector_const_iterator<std::pair<unsigned __int64,unsigned __int64>,std::allocator<std::pair<unsigned __int64,unsigned __int64> > >,std::pair<unsigned __int64,unsigned __int64> *>
PUBLIC	??$_Uninit_copy@PBU?$pair@_K_K@std@@PAU12@V?$allocator@U?$pair@_K_K@std@@@2@@std@@YAPAU?$pair@_K_K@0@PBU10@0PAU10@AAV?$allocator@U?$pair@_K_K@std@@@0@U_Nonscalar_ptr_iterator_tag@0@U_Range_checked_iterator_tag@0@@Z ; std::_Uninit_copy<std::pair<unsigned __int64,unsigned __int64> const *,std::pair<unsigned __int64,unsigned __int64> *,std::allocator<std::pair<unsigned __int64,unsigned __int64> > >
PUBLIC	??$unchecked_uninitialized_copy@V?$_Vector_const_iterator@U?$pair@_K_K@std@@V?$allocator@U?$pair@_K_K@std@@@2@@std@@PAU?$pair@_K_K@2@V?$allocator@U?$pair@_K_K@std@@@2@@stdext@@YAPAU?$pair@_K_K@std@@V?$_Vector_const_iterator@U?$pair@_K_K@std@@V?$allocator@U?$pair@_K_K@std@@@2@@2@0PAU12@AAV?$allocator@U?$pair@_K_K@std@@@2@@Z ; stdext::unchecked_uninitialized_copy<std::_Vector_const_iterator<std::pair<unsigned __int64,unsigned __int64>,std::allocator<std::pair<unsigned __int64,unsigned __int64> > >,std::pair<unsigned __int64,unsigned __int64> *,std::allocator<std::pair<unsigned __int64,unsigned __int64> > >
PUBLIC	??$_Ucopy@V?$_Vector_const_iterator@U?$pair@_K_K@std@@V?$allocator@U?$pair@_K_K@std@@@2@@std@@@?$vector@U?$pair@_K_K@std@@V?$allocator@U?$pair@_K_K@std@@@2@@std@@IAEPAU?$pair@_K_K@1@V?$_Vector_const_iterator@U?$pair@_K_K@std@@V?$allocator@U?$pair@_K_K@std@@@2@@1@0PAU21@@Z ; std::vector<std::pair<unsigned __int64,unsigned __int64>,std::allocator<std::pair<unsigned __int64,unsigned __int64> > >::_Ucopy<std::_Vector_const_iterator<std::pair<unsigned __int64,unsigned __int64>,std::allocator<std::pair<unsigned __int64,unsigned __int64> > > >
PUBLIC	??0?$vector@U?$pair@_K_K@std@@V?$allocator@U?$pair@_K_K@std@@@2@@std@@QAE@ABV01@@Z ; std::vector<std::pair<unsigned __int64,unsigned __int64>,std::allocator<std::pair<unsigned __int64,unsigned __int64> > >::vector<std::pair<unsigned __int64,unsigned __int64>,std::allocator<std::pair<unsigned __int64,unsigned __int64> > >
PUBLIC	??1?$_Container_base_aux_alloc_real@V?$allocator@U?$pair@_K_K@std@@@std@@@std@@IAE@XZ ; std::_Container_base_aux_alloc_real<std::allocator<std::pair<unsigned __int64,unsigned __int64> > >::~_Container_base_aux_alloc_real<std::allocator<std::pair<unsigned __int64,unsigned __int64> > >
PUBLIC	??1?$_Vector_val@U?$pair@_K_K@std@@V?$allocator@U?$pair@_K_K@std@@@2@@std@@QAE@XZ ; std::_Vector_val<std::pair<unsigned __int64,unsigned __int64>,std::allocator<std::pair<unsigned __int64,unsigned __int64> > >::~_Vector_val<std::pair<unsigned __int64,unsigned __int64>,std::allocator<std::pair<unsigned __int64,unsigned __int64> > >
PUBLIC	?_Tidy@?$vector@U?$pair@_K_K@std@@V?$allocator@U?$pair@_K_K@std@@@2@@std@@IAEXXZ ; std::vector<std::pair<unsigned __int64,unsigned __int64>,std::allocator<std::pair<unsigned __int64,unsigned __int64> > >::_Tidy
PUBLIC	??1?$vector@U?$pair@_K_K@std@@V?$allocator@U?$pair@_K_K@std@@@2@@std@@QAE@XZ ; std::vector<std::pair<unsigned __int64,unsigned __int64>,std::allocator<std::pair<unsigned __int64,unsigned __int64> > >::~vector<std::pair<unsigned __int64,unsigned __int64>,std::allocator<std::pair<unsigned __int64,unsigned __int64> > >
PUBLIC	?deallocate@?$allocator@U?$pair@_K_K@std@@@std@@QAEXPAU?$pair@_K_K@2@I@Z ; std::allocator<std::pair<unsigned __int64,unsigned __int64> >::deallocate
PUBLIC	?capacity@?$vector@U?$pair@_K_K@std@@V?$allocator@U?$pair@_K_K@std@@@2@@std@@QBEIXZ ; std::vector<std::pair<unsigned __int64,unsigned __int64>,std::allocator<std::pair<unsigned __int64,unsigned __int64> > >::capacity
PUBLIC	??$_Allocate@U?$pair@_K_K@std@@@std@@YAPAU?$pair@_K_K@0@IPAU10@@Z ; std::_Allocate<std::pair<unsigned __int64,unsigned __int64> >
PUBLIC	?allocate@?$allocator@U?$pair@_K_K@std@@@std@@QAEPAU?$pair@_K_K@2@I@Z ; std::allocator<std::pair<unsigned __int64,unsigned __int64> >::allocate
PUBLIC	?max_size@?$allocator@U?$pair@_K_K@std@@@std@@QBEIXZ ; std::allocator<std::pair<unsigned __int64,unsigned __int64> >::max_size
PUBLIC	?max_size@?$vector@U?$pair@_K_K@std@@V?$allocator@U?$pair@_K_K@std@@@2@@std@@QBEIXZ ; std::vector<std::pair<unsigned __int64,unsigned __int64>,std::allocator<std::pair<unsigned __int64,unsigned __int64> > >::max_size
PUBLIC	??0length_error@std@@QAE@ABV?$basic_string@DU?$char_traits@D@std@@V?$allocator@D@2@@1@@Z ; std::length_error::length_error
PUBLIC	??1length_error@std@@UAE@XZ			; std::length_error::~length_error
PUBLIC	??_Glength_error@std@@UAEPAXI@Z			; std::length_error::`scalar deleting destructor'
PUBLIC	??0length_error@std@@QAE@ABV01@@Z		; std::length_error::length_error
PUBLIC	?_Xlen@?$vector@U?$pair@_K_K@std@@V?$allocator@U?$pair@_K_K@std@@@2@@std@@KAXXZ ; std::vector<std::pair<unsigned __int64,unsigned __int64>,std::allocator<std::pair<unsigned __int64,unsigned __int64> > >::_Xlen
PUBLIC	?_Buy@?$vector@U?$pair@_K_K@std@@V?$allocator@U?$pair@_K_K@std@@@2@@std@@IAE_NI@Z ; std::vector<std::pair<unsigned __int64,unsigned __int64>,std::allocator<std::pair<unsigned __int64,unsigned __int64> > >::_Buy
PUBLIC	??$_Construct@U?$pair@_K_K@std@@U12@@std@@YAXPAU?$pair@_K_K@0@ABU10@@Z ; std::_Construct<std::pair<unsigned __int64,unsigned __int64>,std::pair<unsigned __int64,unsigned __int64> >
PUBLIC	?construct@?$allocator@U?$pair@_K_K@std@@@std@@QAEXPAU?$pair@_K_K@2@ABU32@@Z ; std::allocator<std::pair<unsigned __int64,unsigned __int64> >::construct
PUBLIC	??$_Uninit_copy@PAU?$pair@_K_K@std@@PAU12@V?$allocator@U?$pair@_K_K@std@@@2@@std@@YAPAU?$pair@_K_K@0@PAU10@00AAV?$allocator@U?$pair@_K_K@std@@@0@U_Nonscalar_ptr_iterator_tag@0@U_Range_checked_iterator_tag@0@@Z ; std::_Uninit_copy<std::pair<unsigned __int64,unsigned __int64> *,std::pair<unsigned __int64,unsigned __int64> *,std::allocator<std::pair<unsigned __int64,unsigned __int64> > >
PUBLIC	??$unchecked_uninitialized_copy@PAU?$pair@_K_K@std@@PAU12@V?$allocator@U?$pair@_K_K@std@@@2@@stdext@@YAPAU?$pair@_K_K@std@@PAU12@00AAV?$allocator@U?$pair@_K_K@std@@@2@@Z ; stdext::unchecked_uninitialized_copy<std::pair<unsigned __int64,unsigned __int64> *,std::pair<unsigned __int64,unsigned __int64> *,std::allocator<std::pair<unsigned __int64,unsigned __int64> > >
PUBLIC	??$_Ucopy@PAU?$pair@_K_K@std@@@?$vector@U?$pair@_K_K@std@@V?$allocator@U?$pair@_K_K@std@@@2@@std@@IAEPAU?$pair@_K_K@1@PAU21@00@Z ; std::vector<std::pair<unsigned __int64,unsigned __int64>,std::allocator<std::pair<unsigned __int64,unsigned __int64> > >::_Ucopy<std::pair<unsigned __int64,unsigned __int64> *>
PUBLIC	??4?$vector@U?$pair@_K_K@std@@V?$allocator@U?$pair@_K_K@std@@@2@@std@@QAEAAV01@ABV01@@Z ; std::vector<std::pair<unsigned __int64,unsigned __int64>,std::allocator<std::pair<unsigned __int64,unsigned __int64> > >::operator=
PUBLIC	??$?8U?$pair@_K_K@std@@U01@@std@@YA_NABV?$allocator@U?$pair@_K_K@std@@@0@0@Z ; std::operator==<std::pair<unsigned __int64,unsigned __int64>,std::pair<unsigned __int64,unsigned __int64> >
PUBLIC	??$swap@PAU?$pair@_K_K@std@@@std@@YAXAAPAU?$pair@_K_K@0@0@Z ; std::swap<std::pair<unsigned __int64,unsigned __int64> *>
PUBLIC	?swap@?$vector@U?$pair@_K_K@std@@V?$allocator@U?$pair@_K_K@std@@@2@@std@@QAEXAAV12@@Z ; std::vector<std::pair<unsigned __int64,unsigned __int64>,std::allocator<std::pair<unsigned __int64,unsigned __int64> > >::swap
PUBLIC	??0?$pair@_K_K@std@@QAE@AB_K0@Z			; std::pair<unsigned __int64,unsigned __int64>::pair<unsigned __int64,unsigned __int64>
PUBLIC	??E?$_Vector_iterator@U?$pair@_K_K@std@@V?$allocator@U?$pair@_K_K@std@@@2@@std@@QAE?AV01@H@Z ; std::_Vector_iterator<std::pair<unsigned __int64,unsigned __int64>,std::allocator<std::pair<unsigned __int64,unsigned __int64> > >::operator++
PUBLIC	??$max@_K@std@@YAAB_KAB_K0@Z			; std::max<unsigned __int64>
PUBLIC	?_Make_iter@?$vector@U?$pair@_K_K@std@@V?$allocator@U?$pair@_K_K@std@@@2@@std@@QBE?AV?$_Vector_iterator@U?$pair@_K_K@std@@V?$allocator@U?$pair@_K_K@std@@@2@@2@V?$_Vector_const_iterator@U?$pair@_K_K@std@@V?$allocator@U?$pair@_K_K@std@@@2@@2@@Z ; std::vector<std::pair<unsigned __int64,unsigned __int64>,std::allocator<std::pair<unsigned __int64,unsigned __int64> > >::_Make_iter
PUBLIC	??$_Destroy@U?$pair@_K_K@std@@@std@@YAXPAU?$pair@_K_K@0@@Z ; std::_Destroy<std::pair<unsigned __int64,unsigned __int64> >
PUBLIC	?destroy@?$allocator@U?$pair@_K_K@std@@@std@@QAEXPAU?$pair@_K_K@2@@Z ; std::allocator<std::pair<unsigned __int64,unsigned __int64> >::destroy
PUBLIC	??$_Destroy_range@V?$allocator@U?$pair@_K_K@std@@@std@@@std@@YAXPAU?$pair@_K_K@0@0AAV?$allocator@U?$pair@_K_K@std@@@0@U_Nonscalar_ptr_iterator_tag@0@@Z ; std::_Destroy_range<std::allocator<std::pair<unsigned __int64,unsigned __int64> > >
PUBLIC	??$_Destroy_range@V?$allocator@U?$pair@_K_K@std@@@std@@@std@@YAXPAU?$pair@_K_K@0@0AAV?$allocator@U?$pair@_K_K@std@@@0@@Z ; std::_Destroy_range<std::allocator<std::pair<unsigned __int64,unsigned __int64> > >
PUBLIC	?_Destroy@?$vector@U?$pair@_K_K@std@@V?$allocator@U?$pair@_K_K@std@@@2@@std@@IAEXPAU?$pair@_K_K@2@0@Z ; std::vector<std::pair<unsigned __int64,unsigned __int64>,std::allocator<std::pair<unsigned __int64,unsigned __int64> > >::_Destroy
PUBLIC	??$_Iter_random@PAU?$pair@_K_K@std@@PAU12@@std@@YA?AUrandom_access_iterator_tag@0@ABQAU?$pair@_K_K@0@0@Z ; std::_Iter_random<std::pair<unsigned __int64,unsigned __int64> *,std::pair<unsigned __int64,unsigned __int64> *>
PUBLIC	??$_Ptr_cat@PAU?$pair@_K_K@std@@PAU12@@std@@YA?AU_Nonscalar_ptr_iterator_tag@0@AAPAU?$pair@_K_K@0@0@Z ; std::_Ptr_cat<std::pair<unsigned __int64,unsigned __int64> *,std::pair<unsigned __int64,unsigned __int64> *>
PUBLIC	??$_Checked_base@PAU?$pair@_K_K@std@@@std@@YAPAU?$pair@_K_K@0@AAPAU10@U_Unchanged_checked_iterator_base_type_tag@0@@Z ; std::_Checked_base<std::pair<unsigned __int64,unsigned __int64> *>
PUBLIC	??$_Checked_base@PAU?$pair@_K_K@std@@@std@@YAPAU?$pair@_K_K@0@AAPAU10@@Z ; std::_Checked_base<std::pair<unsigned __int64,unsigned __int64> *>
PUBLIC	??$_Copy_opt@PAU?$pair@_K_K@std@@PAU12@Uforward_iterator_tag@2@@std@@YAPAU?$pair@_K_K@0@PAU10@00Uforward_iterator_tag@0@U_Nonscalar_ptr_iterator_tag@0@U_Range_checked_iterator_tag@0@@Z ; std::_Copy_opt<std::pair<unsigned __int64,unsigned __int64> *,std::pair<unsigned __int64,unsigned __int64> *,std::forward_iterator_tag>
PUBLIC	??$_Copy_opt@PAU?$pair@_K_K@std@@PAU12@@std@@YAPAU?$pair@_K_K@0@PAU10@00Urandom_access_iterator_tag@0@U_Nonscalar_ptr_iterator_tag@0@U_Range_checked_iterator_tag@0@@Z ; std::_Copy_opt<std::pair<unsigned __int64,unsigned __int64> *,std::pair<unsigned __int64,unsigned __int64> *>
PUBLIC	??$unchecked_copy@PAU?$pair@_K_K@std@@PAU12@@stdext@@YAPAU?$pair@_K_K@std@@PAU12@00@Z ; stdext::unchecked_copy<std::pair<unsigned __int64,unsigned __int64> *,std::pair<unsigned __int64,unsigned __int64> *>
PUBLIC	?erase@?$vector@U?$pair@_K_K@std@@V?$allocator@U?$pair@_K_K@std@@@2@@std@@QAE?AV?$_Vector_iterator@U?$pair@_K_K@std@@V?$allocator@U?$pair@_K_K@std@@@2@@2@V?$_Vector_const_iterator@U?$pair@_K_K@std@@V?$allocator@U?$pair@_K_K@std@@@2@@2@0@Z ; std::vector<std::pair<unsigned __int64,unsigned __int64>,std::allocator<std::pair<unsigned __int64,unsigned __int64> > >::erase
PUBLIC	?clear@?$vector@U?$pair@_K_K@std@@V?$allocator@U?$pair@_K_K@std@@@2@@std@@QAEXXZ ; std::vector<std::pair<unsigned __int64,unsigned __int64>,std::allocator<std::pair<unsigned __int64,unsigned __int64> > >::clear
PUBLIC	?begin@?$vector@U?$pair@_K_K@std@@V?$allocator@U?$pair@_K_K@std@@@2@@std@@QAE?AV?$_Vector_iterator@U?$pair@_K_K@std@@V?$allocator@U?$pair@_K_K@std@@@2@@2@XZ ; std::vector<std::pair<unsigned __int64,unsigned __int64>,std::allocator<std::pair<unsigned __int64,unsigned __int64> > >::begin
PUBLIC	??0?$_Iterator_with_base@Urandom_access_iterator_tag@std@@U?$pair@_K_K@2@HPBU32@ABU32@V_Iterator_base_aux@2@@std@@QAE@XZ ; std::_Iterator_with_base<std::random_access_iterator_tag,std::pair<unsigned __int64,unsigned __int64>,int,std::pair<unsigned __int64,unsigned __int64> const *,std::pair<unsigned __int64,unsigned __int64> const &,std::_Iterator_base_aux>::_Iterator_with_base<std::random_access_iterator_tag,std::pair<unsigned __int64,unsigned __int64>,int,std::pair<unsigned __int64,unsigned __int64> const *,std::pair<unsigned __int64,unsigned __int64> const &,std::_Iterator_base_aux>
PUBLIC	??0?$_Ranit@U?$pair@_K_K@std@@HPBU12@ABU12@@std@@QAE@XZ ; std::_Ranit<std::pair<unsigned __int64,unsigned __int64>,int,std::pair<unsigned __int64,unsigned __int64> const *,std::pair<unsigned __int64,unsigned __int64> const &>::_Ranit<std::pair<unsigned __int64,unsigned __int64>,int,std::pair<unsigned __int64,unsigned __int64> const *,std::pair<unsigned __int64,unsigned __int64> const &>
PUBLIC	??0?$_Vector_const_iterator@U?$pair@_K_K@std@@V?$allocator@U?$pair@_K_K@std@@@2@@std@@QAE@PAU?$pair@_K_K@1@PBV_Container_base_aux@1@@Z ; std::_Vector_const_iterator<std::pair<unsigned __int64,unsigned __int64>,std::allocator<std::pair<unsigned __int64,unsigned __int64> > >::_Vector_const_iterator<std::pair<unsigned __int64,unsigned __int64>,std::allocator<std::pair<unsigned __int64,unsigned __int64> > >
PUBLIC	??0?$_Vector_iterator@U?$pair@_K_K@std@@V?$allocator@U?$pair@_K_K@std@@@2@@std@@QAE@PAU?$pair@_K_K@1@PBV_Container_base_aux@1@@Z ; std::_Vector_iterator<std::pair<unsigned __int64,unsigned __int64>,std::allocator<std::pair<unsigned __int64,unsigned __int64> > >::_Vector_iterator<std::pair<unsigned __int64,unsigned __int64>,std::allocator<std::pair<unsigned __int64,unsigned __int64> > >
PUBLIC	?end@?$vector@U?$pair@_K_K@std@@V?$allocator@U?$pair@_K_K@std@@@2@@std@@QAE?AV?$_Vector_iterator@U?$pair@_K_K@std@@V?$allocator@U?$pair@_K_K@std@@@2@@2@XZ ; std::vector<std::pair<unsigned __int64,unsigned __int64>,std::allocator<std::pair<unsigned __int64,unsigned __int64> > >::end
PUBLIC	?size@?$vector@U?$pair@_K_K@std@@V?$allocator@U?$pair@_K_K@std@@@2@@std@@QBEIXZ ; std::vector<std::pair<unsigned __int64,unsigned __int64>,std::allocator<std::pair<unsigned __int64,unsigned __int64> > >::size
PUBLIC	?empty@?$vector@U?$pair@_K_K@std@@V?$allocator@U?$pair@_K_K@std@@@2@@std@@QBE_NXZ ; std::vector<std::pair<unsigned __int64,unsigned __int64>,std::allocator<std::pair<unsigned __int64,unsigned __int64> > >::empty
PUBLIC	??0GaussianKernel@@QAE@N@Z			; GaussianKernel::GaussianKernel
PUBLIC	??1GaussianKernel@@QAE@XZ			; GaussianKernel::~GaussianKernel
PUBLIC	??8?$_Vector_const_iterator@U?$pair@_K_K@std@@V?$allocator@U?$pair@_K_K@std@@@2@@std@@QBE_NABV01@@Z ; std::_Vector_const_iterator<std::pair<unsigned __int64,unsigned __int64>,std::allocator<std::pair<unsigned __int64,unsigned __int64> > >::operator==
PUBLIC	??9?$_Vector_const_iterator@U?$pair@_K_K@std@@V?$allocator@U?$pair@_K_K@std@@@2@@std@@QBE_NABV01@@Z ; std::_Vector_const_iterator<std::pair<unsigned __int64,unsigned __int64>,std::allocator<std::pair<unsigned __int64,unsigned __int64> > >::operator!=
PUBLIC	??D?$_Vector_const_iterator@U?$pair@_K_K@std@@V?$allocator@U?$pair@_K_K@std@@@2@@std@@QBEABU?$pair@_K_K@1@XZ ; std::_Vector_const_iterator<std::pair<unsigned __int64,unsigned __int64>,std::allocator<std::pair<unsigned __int64,unsigned __int64> > >::operator*
PUBLIC	??D?$_Vector_iterator@U?$pair@_K_K@std@@V?$allocator@U?$pair@_K_K@std@@@2@@std@@QBEAAU?$pair@_K_K@1@XZ ; std::_Vector_iterator<std::pair<unsigned __int64,unsigned __int64>,std::allocator<std::pair<unsigned __int64,unsigned __int64> > >::operator*
PUBLIC	??E?$_Vector_const_iterator@U?$pair@_K_K@std@@V?$allocator@U?$pair@_K_K@std@@@2@@std@@QAEAAV01@XZ ; std::_Vector_const_iterator<std::pair<unsigned __int64,unsigned __int64>,std::allocator<std::pair<unsigned __int64,unsigned __int64> > >::operator++
PUBLIC	??E?$_Vector_iterator@U?$pair@_K_K@std@@V?$allocator@U?$pair@_K_K@std@@@2@@std@@QAEAAV01@XZ ; std::_Vector_iterator<std::pair<unsigned __int64,unsigned __int64>,std::allocator<std::pair<unsigned __int64,unsigned __int64> > >::operator++
PUBLIC	??$SeparableFilterX@$01@@YAXPAE0HHHPAHHH@Z	; SeparableFilterX<2>
PUBLIC	??$SeparableFilterY@$01@@YAXPAE0HHHPAHHH@Z	; SeparableFilterY<2>
PUBLIC	??_C@_0BD@OLBABOEK@vector?$DMT?$DO?5too?5long?$AA@ ; `string'
PUBLIC	??_R0?AVlength_error@std@@@8			; std::length_error `RTTI Type Descriptor'
PUBLIC	__CT??_R0?AVlength_error@std@@@8??0length_error@std@@QAE@ABV01@@Z40
PUBLIC	__CTA3?AVlength_error@std@@
PUBLIC	__TI3?AVlength_error@std@@
PUBLIC	??_7length_error@std@@6B@			; std::length_error::`vftable'
PUBLIC	??_7Rasterizer@@6B@				; Rasterizer::`vftable'
EXTRN	??_ERasterizer@@UAEPAXI@Z:PROC			; Rasterizer::`vector deleting destructor'
EXTRN	__imp__BeginPath@4:PROC
EXTRN	__imp__DebugBreak@0:PROC
EXTRN	__imp__AbortPath@4:PROC
EXTRN	__imp__CloseFigure@4:PROC
EXTRN	__imp__EndPath@4:PROC
EXTRN	__imp__GetPath@16:PROC
EXTRN	??_Elength_error@std@@UAEPAXI@Z:PROC		; std::length_error::`vector deleting destructor'
;	COMDAT ??_7Rasterizer@@6B@
CONST	SEGMENT
??_7Rasterizer@@6B@ DD FLAT:??_R4Rasterizer@@6B@	; Rasterizer::`vftable'
	DD	FLAT:??_ERasterizer@@UAEPAXI@Z
CONST	ENDS
;	COMDAT ??_R4Rasterizer@@6B@
rdata$r	SEGMENT
??_R4Rasterizer@@6B@ DD 00H				; Rasterizer::`RTTI Complete Object Locator'
	DD	00H
	DD	00H
	DD	FLAT:??_R0?AVRasterizer@@@8
	DD	FLAT:??_R3Rasterizer@@8
rdata$r	ENDS
;	COMDAT ??_7length_error@std@@6B@
CONST	SEGMENT
??_7length_error@std@@6B@ DD FLAT:??_R4length_error@std@@6B@ ; std::length_error::`vftable'
	DD	FLAT:??_Elength_error@std@@UAEPAXI@Z
	DD	FLAT:?what@logic_error@std@@UBEPBDXZ
CONST	ENDS
;	COMDAT ??_R4length_error@std@@6B@
rdata$r	SEGMENT
??_R4length_error@std@@6B@ DD 00H			; std::length_error::`RTTI Complete Object Locator'
	DD	00H
	DD	00H
	DD	FLAT:??_R0?AVlength_error@std@@@8
	DD	FLAT:??_R3length_error@std@@8
rdata$r	ENDS
;	COMDAT ??_R3length_error@std@@8
rdata$r	SEGMENT
??_R3length_error@std@@8 DD 00H				; std::length_error::`RTTI Class Hierarchy Descriptor'
	DD	00H
	DD	03H
	DD	FLAT:??_R2length_error@std@@8
rdata$r	ENDS
;	COMDAT ??_R2length_error@std@@8
rdata$r	SEGMENT
??_R2length_error@std@@8 DD FLAT:??_R1A@?0A@EA@length_error@std@@8 ; std::length_error::`RTTI Base Class Array'
	DD	FLAT:??_R1A@?0A@EA@logic_error@std@@8
	DD	FLAT:??_R1A@?0A@EA@exception@std@@8
rdata$r	ENDS
;	COMDAT ??_R1A@?0A@EA@length_error@std@@8
rdata$r	SEGMENT
??_R1A@?0A@EA@length_error@std@@8 DD FLAT:??_R0?AVlength_error@std@@@8 ; std::length_error::`RTTI Base Class Descriptor at (0,-1,0,64)'
	DD	02H
	DD	00H
	DD	0ffffffffH
	DD	00H
	DD	040H
	DD	FLAT:??_R3length_error@std@@8
rdata$r	ENDS
;	COMDAT __TI3?AVlength_error@std@@
xdata$x	SEGMENT
__TI3?AVlength_error@std@@ DD 00H
	DD	FLAT:??1length_error@std@@UAE@XZ
	DD	00H
	DD	FLAT:__CTA3?AVlength_error@std@@
xdata$x	ENDS
;	COMDAT __CTA3?AVlength_error@std@@
xdata$x	SEGMENT
__CTA3?AVlength_error@std@@ DD 03H
	DD	FLAT:__CT??_R0?AVlength_error@std@@@8??0length_error@std@@QAE@ABV01@@Z40
	DD	FLAT:__CT??_R0?AVlogic_error@std@@@8??0logic_error@std@@QAE@ABV01@@Z40
	DD	FLAT:__CT??_R0?AVexception@std@@@8??0exception@std@@QAE@ABV01@@Z12
xdata$x	ENDS
;	COMDAT __CT??_R0?AVlength_error@std@@@8??0length_error@std@@QAE@ABV01@@Z40
xdata$x	SEGMENT
__CT??_R0?AVlength_error@std@@@8??0length_error@std@@QAE@ABV01@@Z40 DD 00H
	DD	FLAT:??_R0?AVlength_error@std@@@8
	DD	00H
	DD	0ffffffffH
	ORG $+4
	DD	028H
	DD	FLAT:??0length_error@std@@QAE@ABV01@@Z
xdata$x	ENDS
;	COMDAT ??_R0?AVlength_error@std@@@8
_DATA	SEGMENT
??_R0?AVlength_error@std@@@8 DD FLAT:??_7type_info@@6B@	; std::length_error `RTTI Type Descriptor'
	DD	00H
	DB	'.?AVlength_error@std@@', 00H
_DATA	ENDS
;	COMDAT ??_C@_0BD@OLBABOEK@vector?$DMT?$DO?5too?5long?$AA@
CONST	SEGMENT
??_C@_0BD@OLBABOEK@vector?$DMT?$DO?5too?5long?$AA@ DB 'vector<T> too long'
	DB	00H						; `string'
	ORG $+12
__bad_alloc_Message DD FLAT:??_C@_0P@GHFPNOJB@bad?5allocation?$AA@
; Function compile flags: /Ogtpy
; File c:\program files (x86)\microsoft visual studio 9.0\vc\include\algorithm
;	COMDAT ??$_Push_heap@PAHHH@std@@YAXPAHHHH@Z
_TEXT	SEGMENT
__First$ = 8						; size = 4
__Hole$ = 12						; size = 4
__Top$ = 16						; size = 4
__Val$ = 20						; size = 4
??$_Push_heap@PAHHH@std@@YAXPAHHHH@Z PROC		; std::_Push_heap<int *,int,int>, COMDAT

; 1971 : 	for (_Diff _Idx = (_Hole - 1) / 2;

	mov	ecx, DWORD PTR __Hole$[esp-4]
	lea	eax, DWORD PTR [ecx-1]
	cdq
	sub	eax, edx
	push	ebx

; 1972 : 		_Top < _Hole && _DEBUG_LT(*(_First + _Idx), _Val);
; 1973 : 		_Idx = (_Hole - 1) / 2)

	mov	ebx, DWORD PTR __Top$[esp]
	sar	eax, 1
	cmp	ebx, ecx
	jge	SHORT $LN8@Push_heap
	push	esi
	mov	esi, DWORD PTR __First$[esp+4]
	push	edi
	mov	edi, DWORD PTR __Val$[esp+8]
	npad	1
$LL3@Push_heap:
	mov	edx, DWORD PTR [esi+eax*4]
	cmp	edx, edi
	jge	SHORT $LN9@Push_heap

; 1974 : 		{	// move _Hole up to parent
; 1975 : 		*(_First + _Hole) = *(_First + _Idx);

	mov	DWORD PTR [esi+ecx*4], edx

; 1976 : 		_Hole = _Idx;

	mov	ecx, eax
	dec	eax
	cdq
	sub	eax, edx
	sar	eax, 1
	cmp	ebx, ecx
	jl	SHORT $LL3@Push_heap
$LN9@Push_heap:

; 1977 : 		}
; 1978 : 
; 1979 : 	*(_First + _Hole) = _Val;	// drop _Val into final hole

	mov	DWORD PTR [esi+ecx*4], edi
	pop	edi
	pop	esi
	pop	ebx

; 1980 : 	}

	ret	0
$LN8@Push_heap:

; 1977 : 		}
; 1978 : 
; 1979 : 	*(_First + _Hole) = _Val;	// drop _Val into final hole

	mov	eax, DWORD PTR __Val$[esp]
	mov	edx, DWORD PTR __First$[esp]
	mov	DWORD PTR [edx+ecx*4], eax
	pop	ebx

; 1980 : 	}

	ret	0
??$_Push_heap@PAHHH@std@@YAXPAHHHH@Z ENDP		; std::_Push_heap<int *,int,int>
; Function compile flags: /Ogtpy
; File c:\program files (x86)\microsoft visual studio 9.0\vc\include\memory
_TEXT	ENDS
;	COMDAT ??$_Uninit_copy@PAHPAHV?$allocator@H@std@@@std@@YAPAHPAH00AAV?$allocator@H@0@U_Scalar_ptr_iterator_tag@0@U_Range_checked_iterator_tag@0@@Z
_TEXT	SEGMENT
__First$ = 8						; size = 4
__Last$ = 12						; size = 4
__Dest$ = 16						; size = 4
___formal$ = 20						; size = 4
___formal$ = 24						; size = 1
___formal$ = 28						; size = 1
??$_Uninit_copy@PAHPAHV?$allocator@H@std@@@std@@YAPAHPAH00AAV?$allocator@H@0@U_Scalar_ptr_iterator_tag@0@U_Range_checked_iterator_tag@0@@Z PROC ; std::_Uninit_copy<int *,int *,std::allocator<int> >, COMDAT

; 144  : 	_DEBUG_RANGE(_First, _Last);
; 145  : 	_DEBUG_POINTER(_Dest);
; 146  : 	size_t _Count = (size_t)(_Last - _First);

	mov	eax, DWORD PTR __Last$[esp-4]
	mov	edx, DWORD PTR __First$[esp-4]
	sub	eax, edx
	push	esi
	sar	eax, 2
	push	edi

; 147  : 	_FwdIt _Result = _Dest + _Count;

	mov	edi, DWORD PTR __Dest$[esp+4]
	lea	ecx, DWORD PTR [eax*4]
	lea	esi, DWORD PTR [ecx+edi]

; 148  : 	if (_Count > 0)

	test	eax, eax
	jbe	SHORT $LN4@Uninit_cop

; 149  : 		_CRT_SECURE_MEMMOVE(&*_Dest, _Count * sizeof (*_First), &*_First, _Count * sizeof (*_First));	// NB: non-overlapping move

	push	ecx
	push	edx
	push	ecx
	push	edi
	call	_memmove_s
	add	esp, 16					; 00000010H
$LN4@Uninit_cop:
	pop	edi

; 150  : 	return _Result;

	mov	eax, esi
	pop	esi

; 151  : 	}

	ret	0
??$_Uninit_copy@PAHPAHV?$allocator@H@std@@@std@@YAPAHPAH00AAV?$allocator@H@0@U_Scalar_ptr_iterator_tag@0@U_Range_checked_iterator_tag@0@@Z ENDP ; std::_Uninit_copy<int *,int *,std::allocator<int> >
; Function compile flags: /Ogtpy
; File c:\program files (x86)\microsoft visual studio 9.0\vc\include\xutility
_TEXT	ENDS
;	COMDAT ??$_Fill_n@PAHIH@std@@YAXPAHIABHU_Range_checked_iterator_tag@0@@Z
_TEXT	SEGMENT
__First$ = 8						; size = 4
__Count$ = 12						; size = 4
__Val$ = 16						; size = 4
___formal$ = 20						; size = 1
??$_Fill_n@PAHIH@std@@YAXPAHIABHU_Range_checked_iterator_tag@0@@Z PROC ; std::_Fill_n<int *,unsigned int,int>, COMDAT

; 3171 : 	for (; 0 < _Count; --_Count, ++_First)

	mov	eax, DWORD PTR __Count$[esp-4]
	test	eax, eax
	jbe	SHORT $LN1@Fill_n
	mov	edx, DWORD PTR __Val$[esp-4]
	mov	ecx, DWORD PTR __First$[esp-4]
	push	esi
$LL3@Fill_n:

; 3172 : 		*_First = _Val;

	mov	esi, DWORD PTR [edx]
	mov	DWORD PTR [ecx], esi
	dec	eax
	add	ecx, 4
	test	eax, eax
	ja	SHORT $LL3@Fill_n
	pop	esi
$LN1@Fill_n:

; 3173 : 	}

	ret	0
??$_Fill_n@PAHIH@std@@YAXPAHIABHU_Range_checked_iterator_tag@0@@Z ENDP ; std::_Fill_n<int *,unsigned int,int>
; Function compile flags: /Ogtpy
; File c:\program files (x86)\microsoft visual studio 9.0\vc\include\algorithm
_TEXT	ENDS
;	COMDAT ??$_Adjust_heap@PAHHH@std@@YAXPAHHHH@Z
_TEXT	SEGMENT
__First$ = 8						; size = 4
__Hole$ = 12						; size = 4
__Bottom$ = 16						; size = 4
__Val$ = 20						; size = 4
??$_Adjust_heap@PAHHH@std@@YAXPAHHHH@Z PROC		; std::_Adjust_heap<int *,int,int>, COMDAT

; 2054 : 	_Diff _Top = _Hole;

	mov	ecx, DWORD PTR __Hole$[esp-4]

; 2055 : 	_Diff _Idx = 2 * _Hole + 2;
; 2056 : 
; 2057 : 	for (; _Idx < _Bottom; _Idx = 2 * _Idx + 2)

	mov	edx, DWORD PTR __First$[esp-4]
	push	esi
	mov	esi, DWORD PTR __Bottom$[esp]
	lea	eax, DWORD PTR [ecx+ecx+2]
	cmp	eax, esi
	push	edi
	mov	edi, ecx
	jge	SHORT $LN10@Adjust_hea
	push	ebx
	npad	7
$LL5@Adjust_hea:

; 2058 : 		{	// move _Hole down to larger child
; 2059 : 		if (_DEBUG_LT(*(_First + _Idx), *(_First + (_Idx - 1))))

	mov	ebx, DWORD PTR [edx+eax*4]
	cmp	ebx, DWORD PTR [edx+eax*4-4]
	jge	SHORT $LN2@Adjust_hea

; 2060 : 			--_Idx;

	dec	eax
$LN2@Adjust_hea:

; 2061 : 		*(_First + _Hole) = *(_First + _Idx), _Hole = _Idx;

	mov	ebx, DWORD PTR [edx+eax*4]
	mov	DWORD PTR [edx+ecx*4], ebx
	mov	ecx, eax
	lea	eax, DWORD PTR [eax+eax+2]
	cmp	eax, esi
	jl	SHORT $LL5@Adjust_hea
	pop	ebx
$LN10@Adjust_hea:

; 2062 : 		}
; 2063 : 
; 2064 : 	if (_Idx == _Bottom)

	jne	SHORT $LN1@Adjust_hea

; 2065 : 		{	// only child at bottom, move _Hole down to it
; 2066 : 		*(_First + _Hole) = *(_First + (_Bottom - 1));

	mov	eax, DWORD PTR [edx+esi*4-4]
	mov	DWORD PTR [edx+ecx*4], eax

; 2067 : 		_Hole = _Bottom - 1;

	lea	ecx, DWORD PTR [esi-1]
$LN1@Adjust_hea:

; 2068 : 		}
; 2069 : 	std::_Push_heap(_First, _Hole, _Top, _Val);

	mov	eax, DWORD PTR __Val$[esp+4]
	push	eax
	push	edi
	push	ecx
	push	edx
	call	??$_Push_heap@PAHHH@std@@YAXPAHHHH@Z	; std::_Push_heap<int *,int,int>
	add	esp, 16					; 00000010H
	pop	edi
	pop	esi

; 2070 : 	}

	ret	0
??$_Adjust_heap@PAHHH@std@@YAXPAHHHH@Z ENDP		; std::_Adjust_heap<int *,int,int>
; Function compile flags: /Ogtpy
; File c:\program files (x86)\microsoft visual studio 9.0\vc\include\utility
_TEXT	ENDS
;	COMDAT ??$swap@H@std@@YAXAAH0@Z
_TEXT	SEGMENT
__Left$ = 8						; size = 4
__Right$ = 12						; size = 4
??$swap@H@std@@YAXAAH0@Z PROC				; std::swap<int>, COMDAT

; 18   : 	if (&_Left != &_Right)

	mov	eax, DWORD PTR __Left$[esp-4]
	mov	ecx, DWORD PTR __Right$[esp-4]
	cmp	eax, ecx
	je	SHORT $LN1@swap

; 19   : 		{	// different, worth swapping
; 20   : 		_Ty _Tmp = _Left;

	mov	edx, DWORD PTR [eax]
	push	esi

; 21   : 
; 22   : 		_Left = _Right;

	mov	esi, DWORD PTR [ecx]
	mov	DWORD PTR [eax], esi

; 23   : 		_Right = _Tmp;

	mov	DWORD PTR [ecx], edx
	pop	esi
$LN1@swap:

; 24   : 		}
; 25   : 	}

	ret	0
??$swap@H@std@@YAXAAH0@Z ENDP				; std::swap<int>
; Function compile flags: /Ogtpy
; File c:\program files (x86)\microsoft visual studio 9.0\vc\include\vector
_TEXT	ENDS
;	COMDAT ?_Checked_iterator_base@?$_Vector_const_iterator@U?$pair@_K_K@std@@V?$allocator@U?$pair@_K_K@std@@@2@@std@@QBEPBU?$pair@_K_K@2@XZ
_TEXT	SEGMENT
?_Checked_iterator_base@?$_Vector_const_iterator@U?$pair@_K_K@std@@V?$allocator@U?$pair@_K_K@std@@@2@@std@@QBEPBU?$pair@_K_K@2@XZ PROC ; std::_Vector_const_iterator<std::pair<unsigned __int64,unsigned __int64>,std::allocator<std::pair<unsigned __int64,unsigned __int64> > >::_Checked_iterator_base, COMDAT
; _this$ = eax

; 47   : 		return _Myptr;

	mov	eax, DWORD PTR [eax+4]

; 48   : 	}

	ret	0
?_Checked_iterator_base@?$_Vector_const_iterator@U?$pair@_K_K@std@@V?$allocator@U?$pair@_K_K@std@@@2@@std@@QBEPBU?$pair@_K_K@2@XZ ENDP ; std::_Vector_const_iterator<std::pair<unsigned __int64,unsigned __int64>,std::allocator<std::pair<unsigned __int64,unsigned __int64> > >::_Checked_iterator_base
; Function compile flags: /Ogtpy
_TEXT	ENDS
;	COMDAT ?_Checked_iterator_base@?$_Vector_iterator@U?$pair@_K_K@std@@V?$allocator@U?$pair@_K_K@std@@@2@@std@@QBEPAU?$pair@_K_K@2@XZ
_TEXT	SEGMENT
?_Checked_iterator_base@?$_Vector_iterator@U?$pair@_K_K@std@@V?$allocator@U?$pair@_K_K@std@@@2@@std@@QBEPAU?$pair@_K_K@2@XZ PROC ; std::_Vector_iterator<std::pair<unsigned __int64,unsigned __int64>,std::allocator<std::pair<unsigned __int64,unsigned __int64> > >::_Checked_iterator_base, COMDAT
; _this$ = eax

; 305  : 		return this->_Myptr;

	mov	eax, DWORD PTR [eax+4]

; 306  : 	}

	ret	0
?_Checked_iterator_base@?$_Vector_iterator@U?$pair@_K_K@std@@V?$allocator@U?$pair@_K_K@std@@@2@@std@@QBEPAU?$pair@_K_K@2@XZ ENDP ; std::_Vector_iterator<std::pair<unsigned __int64,unsigned __int64>,std::allocator<std::pair<unsigned __int64,unsigned __int64> > >::_Checked_iterator_base
; Function compile flags: /Ogtpy
; File c:\program files (x86)\microsoft visual studio 9.0\vc\include\xutility
_TEXT	ENDS
;	COMDAT ??$_Copy_backward_opt@PAU?$pair@_K_K@std@@PAU12@Uforward_iterator_tag@2@@std@@YAPAU?$pair@_K_K@0@PAU10@00Uforward_iterator_tag@0@U_Nonscalar_ptr_iterator_tag@0@U_Range_checked_iterator_tag@0@@Z
_TEXT	SEGMENT
__First$ = 8						; size = 4
___formal$ = 12						; size = 1
___formal$ = 16						; size = 1
___formal$ = 20						; size = 1
??$_Copy_backward_opt@PAU?$pair@_K_K@std@@PAU12@Uforward_iterator_tag@2@@std@@YAPAU?$pair@_K_K@0@PAU10@00Uforward_iterator_tag@0@U_Nonscalar_ptr_iterator_tag@0@U_Range_checked_iterator_tag@0@@Z PROC ; std::_Copy_backward_opt<std::pair<unsigned __int64,unsigned __int64> *,std::pair<unsigned __int64,unsigned __int64> *,std::forward_iterator_tag>, COMDAT
; __Last$ = ecx
; __Dest$ = eax

; 2647 : 	{	// copy [_First, _Last) backwards to [..., _Dest), arbitrary iterators

	mov	edx, DWORD PTR __First$[esp-4]

; 2648 : 	_DEBUG_RANGE(_First, _Last);
; 2649 : 	while (_First != _Last)

	cmp	edx, ecx
	je	SHORT $LN1@Copy_backw
	push	esi
	npad	7
$LL2@Copy_backw:

; 2650 : 		*--_Dest = *--_Last;

	mov	esi, DWORD PTR [ecx-16]
	sub	ecx, 16					; 00000010H
	sub	eax, 16					; 00000010H
	mov	DWORD PTR [eax], esi
	mov	esi, DWORD PTR [ecx+4]
	mov	DWORD PTR [eax+4], esi
	mov	esi, DWORD PTR [ecx+8]
	mov	DWORD PTR [eax+8], esi
	mov	esi, DWORD PTR [ecx+12]
	mov	DWORD PTR [eax+12], esi
	cmp	ecx, edx
	jne	SHORT $LL2@Copy_backw
	pop	esi
$LN1@Copy_backw:

; 2651 : 	return (_Dest);
; 2652 : 	}

	ret	0
??$_Copy_backward_opt@PAU?$pair@_K_K@std@@PAU12@Uforward_iterator_tag@2@@std@@YAPAU?$pair@_K_K@0@PAU10@00Uforward_iterator_tag@0@U_Nonscalar_ptr_iterator_tag@0@U_Range_checked_iterator_tag@0@@Z ENDP ; std::_Copy_backward_opt<std::pair<unsigned __int64,unsigned __int64> *,std::pair<unsigned __int64,unsigned __int64> *,std::forward_iterator_tag>
; Function compile flags: /Ogtpy
_TEXT	ENDS
;	COMDAT ??$_Iter_cat@PAH@std@@YA?AUrandom_access_iterator_tag@0@ABQAH@Z
_TEXT	SEGMENT
___$ReturnUdt$ = 8					; size = 4
___formal$ = 12						; size = 4
??$_Iter_cat@PAH@std@@YA?AUrandom_access_iterator_tag@0@ABQAH@Z PROC ; std::_Iter_cat<int *>, COMDAT

; 953  : 	typename iterator_traits<_Iter>::iterator_category _Cat;
; 954  : 	return (_Cat);

	mov	eax, DWORD PTR ___$ReturnUdt$[esp-4]

; 955  : 	}

	ret	0
??$_Iter_cat@PAH@std@@YA?AUrandom_access_iterator_tag@0@ABQAH@Z ENDP ; std::_Iter_cat<int *>
; Function compile flags: /Ogtpy
_TEXT	ENDS
;	COMDAT ??$_Checked_base@V?$_Vector_const_iterator@U?$pair@_K_K@std@@V?$allocator@U?$pair@_K_K@std@@@2@@std@@U_Different_checked_iterator_base_type_tag@2@@std@@YAPBU?$pair@_K_K@0@AAV?$_Vector_const_iterator@U?$pair@_K_K@std@@V?$allocator@U?$pair@_K_K@std@@@2@@0@U_Different_checked_iterator_base_type_tag@0@@Z
_TEXT	SEGMENT
___formal$ = 8						; size = 1
??$_Checked_base@V?$_Vector_const_iterator@U?$pair@_K_K@std@@V?$allocator@U?$pair@_K_K@std@@@2@@std@@U_Different_checked_iterator_base_type_tag@2@@std@@YAPBU?$pair@_K_K@0@AAV?$_Vector_const_iterator@U?$pair@_K_K@std@@V?$allocator@U?$pair@_K_K@std@@@2@@0@U_Different_checked_iterator_base_type_tag@0@@Z PROC ; std::_Checked_base<std::_Vector_const_iterator<std::pair<unsigned __int64,unsigned __int64>,std::allocator<std::pair<unsigned __int64,unsigned __int64> > >,std::_Different_checked_iterator_base_type_tag>, COMDAT
; __It$ = eax

; 1139 : 		return _It._Checked_iterator_base();

	mov	eax, DWORD PTR [eax+4]

; 1140 : 	}

	ret	0
??$_Checked_base@V?$_Vector_const_iterator@U?$pair@_K_K@std@@V?$allocator@U?$pair@_K_K@std@@@2@@std@@U_Different_checked_iterator_base_type_tag@2@@std@@YAPBU?$pair@_K_K@0@AAV?$_Vector_const_iterator@U?$pair@_K_K@std@@V?$allocator@U?$pair@_K_K@std@@@2@@0@U_Different_checked_iterator_base_type_tag@0@@Z ENDP ; std::_Checked_base<std::_Vector_const_iterator<std::pair<unsigned __int64,unsigned __int64>,std::allocator<std::pair<unsigned __int64,unsigned __int64> > >,std::_Different_checked_iterator_base_type_tag>
; Function compile flags: /Ogtpy
_TEXT	ENDS
;	COMDAT ??$_Checked_base@V?$_Vector_iterator@U?$pair@_K_K@std@@V?$allocator@U?$pair@_K_K@std@@@2@@std@@U_Different_checked_iterator_base_type_tag@2@@std@@YAPAU?$pair@_K_K@0@AAV?$_Vector_iterator@U?$pair@_K_K@std@@V?$allocator@U?$pair@_K_K@std@@@2@@0@U_Different_checked_iterator_base_type_tag@0@@Z
_TEXT	SEGMENT
___formal$ = 8						; size = 1
??$_Checked_base@V?$_Vector_iterator@U?$pair@_K_K@std@@V?$allocator@U?$pair@_K_K@std@@@2@@std@@U_Different_checked_iterator_base_type_tag@2@@std@@YAPAU?$pair@_K_K@0@AAV?$_Vector_iterator@U?$pair@_K_K@std@@V?$allocator@U?$pair@_K_K@std@@@2@@0@U_Different_checked_iterator_base_type_tag@0@@Z PROC ; std::_Checked_base<std::_Vector_iterator<std::pair<unsigned __int64,unsigned __int64>,std::allocator<std::pair<unsigned __int64,unsigned __int64> > >,std::_Different_checked_iterator_base_type_tag>, COMDAT
; __It$ = eax

; 1139 : 		return _It._Checked_iterator_base();

	mov	eax, DWORD PTR [eax+4]

; 1140 : 	}

	ret	0
??$_Checked_base@V?$_Vector_iterator@U?$pair@_K_K@std@@V?$allocator@U?$pair@_K_K@std@@@2@@std@@U_Different_checked_iterator_base_type_tag@2@@std@@YAPAU?$pair@_K_K@0@AAV?$_Vector_iterator@U?$pair@_K_K@std@@V?$allocator@U?$pair@_K_K@std@@@2@@0@U_Different_checked_iterator_base_type_tag@0@@Z ENDP ; std::_Checked_base<std::_Vector_iterator<std::pair<unsigned __int64,unsigned __int64>,std::allocator<std::pair<unsigned __int64,unsigned __int64> > >,std::_Different_checked_iterator_base_type_tag>
; Function compile flags: /Ogtpy
; File c:\program files (x86)\microsoft visual studio 9.0\vc\include\algorithm
_TEXT	ENDS
;	COMDAT ??$_Make_heap@PAHHH@std@@YAXPAH000@Z
_TEXT	SEGMENT
__First$ = 8						; size = 4
__Last$ = 12						; size = 4
___formal$ = 16						; size = 4
___formal$ = 20						; size = 4
??$_Make_heap@PAHHH@std@@YAXPAH000@Z PROC		; std::_Make_heap<int *,int,int>, COMDAT

; 2162 : 	{	// make nontrivial [_First, _Last) into a heap, using operator<

	push	ebx

; 2163 : 	_Diff _Bottom = _Last - _First;

	mov	ebx, DWORD PTR __First$[esp]
	push	esi
	push	edi
	mov	edi, DWORD PTR __Last$[esp+8]
	sub	edi, ebx
	sar	edi, 2

; 2164 : 
; 2165 : 	for (_Diff _Hole = _Bottom / 2; 0 < _Hole; )

	mov	eax, edi
	cdq
	sub	eax, edx
	mov	esi, eax
	sar	esi, 1
	test	esi, esi
	jle	SHORT $LN1@Make_heap
	npad	3
$LL2@Make_heap:

; 2166 : 		{	// reheap top half, bottom to top
; 2167 : 		--_Hole;
; 2168 : 		std::_Adjust_heap(_First, _Hole, _Bottom,
; 2169 : 			_Ty(*(_First + _Hole)));

	mov	eax, DWORD PTR [ebx+esi*4-4]
	dec	esi
	push	eax
	push	edi
	push	esi
	push	ebx
	call	??$_Adjust_heap@PAHHH@std@@YAXPAHHHH@Z	; std::_Adjust_heap<int *,int,int>
	add	esp, 16					; 00000010H
	test	esi, esi
	jg	SHORT $LL2@Make_heap
$LN1@Make_heap:
	pop	edi
	pop	esi
	pop	ebx

; 2170 : 		}
; 2171 : 	}

	ret	0
??$_Make_heap@PAHHH@std@@YAXPAH000@Z ENDP		; std::_Make_heap<int *,int,int>
; Function compile flags: /Ogtpy
; File c:\program files (x86)\microsoft visual studio 9.0\vc\include\xutility
_TEXT	ENDS
;	COMDAT ??$_Val_type@PAH@std@@YAPAHPAH@Z
_TEXT	SEGMENT
___formal$ = 8						; size = 4
??$_Val_type@PAH@std@@YAPAHPAH@Z PROC			; std::_Val_type<int *>, COMDAT

; 1740 : 	return (0);

	xor	eax, eax

; 1741 : 	}

	ret	0
??$_Val_type@PAH@std@@YAPAHPAH@Z ENDP			; std::_Val_type<int *>
; Function compile flags: /Ogtpy
_TEXT	ENDS
;	COMDAT ??$_Dist_type@PAH@std@@YAPAHPAH@Z
_TEXT	SEGMENT
___formal$ = 8						; size = 4
??$_Dist_type@PAH@std@@YAPAHPAH@Z PROC			; std::_Dist_type<int *>, COMDAT

; 1805 : 	return (0);

	xor	eax, eax

; 1806 : 	}

	ret	0
??$_Dist_type@PAH@std@@YAPAHPAH@Z ENDP			; std::_Dist_type<int *>
; Function compile flags: /Ogtpy
; File c:\program files (x86)\microsoft visual studio 9.0\vc\include\algorithm
_TEXT	ENDS
;	COMDAT ??$iter_swap@PAHPAH@std@@YAXPAH0@Z
_TEXT	SEGMENT
__Left$ = 8						; size = 4
__Right$ = 12						; size = 4
??$iter_swap@PAHPAH@std@@YAXPAH0@Z PROC			; std::iter_swap<int *,int *>, COMDAT

; 592  : 	std::swap(*_Left, *_Right);

	mov	eax, DWORD PTR __Left$[esp-4]
	mov	ecx, DWORD PTR __Right$[esp-4]
	cmp	eax, ecx
	je	SHORT $LN3@iter_swap
	mov	edx, DWORD PTR [eax]
	push	esi
	mov	esi, DWORD PTR [ecx]
	mov	DWORD PTR [eax], esi
	mov	DWORD PTR [ecx], edx
	pop	esi
$LN3@iter_swap:

; 593  : 	}

	ret	0
??$iter_swap@PAHPAH@std@@YAXPAH0@Z ENDP			; std::iter_swap<int *,int *>
; Function compile flags: /Ogtpy
; File c:\program files (x86)\microsoft visual studio 9.0\vc\include\utility
_TEXT	ENDS
;	COMDAT ??0?$pair@PAHPAH@std@@QAE@ABQAH0@Z
_TEXT	SEGMENT
__Val1$ = 8						; size = 4
__Val2$ = 12						; size = 4
??0?$pair@PAHPAH@std@@QAE@ABQAH0@Z PROC			; std::pair<int *,int *>::pair<int *,int *>, COMDAT
; _this$ = ecx

; 42   : 		{	// construct from specified values

	mov	eax, ecx
	mov	ecx, DWORD PTR __Val1$[esp-4]
	mov	edx, DWORD PTR [ecx]
	mov	ecx, DWORD PTR __Val2$[esp-4]
	mov	DWORD PTR [eax], edx
	mov	edx, DWORD PTR [ecx]
	mov	DWORD PTR [eax+4], edx

; 43   : 		}

	ret	8
??0?$pair@PAHPAH@std@@QAE@ABQAH0@Z ENDP			; std::pair<int *,int *>::pair<int *,int *>
; Function compile flags: /Ogtpy
; File c:\program files (x86)\microsoft visual studio 9.0\vc\include\vector
_TEXT	ENDS
;	COMDAT ?_Checked_iterator_base@?$_Vector_iterator@HV?$allocator@H@std@@@std@@QBEPAHXZ
_TEXT	SEGMENT
?_Checked_iterator_base@?$_Vector_iterator@HV?$allocator@H@std@@@std@@QBEPAHXZ PROC ; std::_Vector_iterator<int,std::allocator<int> >::_Checked_iterator_base, COMDAT
; _this$ = ecx

; 305  : 		return this->_Myptr;

	mov	eax, DWORD PTR [ecx+4]

; 306  : 	}

	ret	0
?_Checked_iterator_base@?$_Vector_iterator@HV?$allocator@H@std@@@std@@QBEPAHXZ ENDP ; std::_Vector_iterator<int,std::allocator<int> >::_Checked_iterator_base
; Function compile flags: /Ogtpy
; File c:\program files (x86)\microsoft visual studio 9.0\vc\include\xmemory
_TEXT	ENDS
;	COMDAT ??$_Destroy@U?$pair@_K_K@std@@@std@@YAXPAU?$pair@_K_K@0@@Z
_TEXT	SEGMENT
??$_Destroy@U?$pair@_K_K@std@@@std@@YAXPAU?$pair@_K_K@0@@Z PROC ; std::_Destroy<std::pair<unsigned __int64,unsigned __int64> >, COMDAT

; 59   : 	_DESTRUCTOR(_Ty, _Ptr);
; 60   : 	}

	ret	0
??$_Destroy@U?$pair@_K_K@std@@@std@@YAXPAU?$pair@_K_K@0@@Z ENDP ; std::_Destroy<std::pair<unsigned __int64,unsigned __int64> >
; Function compile flags: /Ogtpy
; File c:\program files (x86)\microsoft visual studio 9.0\vc\include\xutility
_TEXT	ENDS
;	COMDAT ??$_Copy_backward_opt@PAHPAHUrandom_access_iterator_tag@std@@@std@@YAPAHPAH00Urandom_access_iterator_tag@0@U_Scalar_ptr_iterator_tag@0@U_Range_checked_iterator_tag@0@@Z
_TEXT	SEGMENT
__First$ = 8						; size = 4
__Last$ = 12						; size = 4
__Dest$ = 16						; size = 4
___formal$ = 20						; size = 1
___formal$ = 24						; size = 1
___formal$ = 28						; size = 1
??$_Copy_backward_opt@PAHPAHUrandom_access_iterator_tag@std@@@std@@YAPAHPAH00Urandom_access_iterator_tag@0@U_Scalar_ptr_iterator_tag@0@U_Range_checked_iterator_tag@0@@Z PROC ; std::_Copy_backward_opt<int *,int *,std::random_access_iterator_tag>, COMDAT

; 2673 : 
; 2674 :  #if _HAS_ITERATOR_DEBUGGING
; 2675 : 	_DEBUG_RANGE(_First, _Last);
; 2676 : 	if (_First != _Last)
; 2677 : 		_DEBUG_POINTER(_Dest);
; 2678 :  #endif /* _HAS_ITERATOR_DEBUGGING */
; 2679 : 
; 2680 : 	ptrdiff_t _Off = _Last - _First;	// NB: non-overlapping move

	mov	eax, DWORD PTR __Last$[esp-4]
	mov	edx, DWORD PTR __First$[esp-4]
	sub	eax, edx
	sar	eax, 2
	push	esi

; 2681 : 	/* if _OutIt is range checked, this will make sure there is enough space for 
; 2682 : 	 * the memmove
; 2683 : 	 */
; 2684 : 	_OutIt _Result = _Dest - _Off;

	mov	esi, DWORD PTR __Dest$[esp]
	lea	ecx, DWORD PTR [eax*4]
	sub	esi, ecx

; 2685 : 	if (_Off > 0)

	test	eax, eax
	jle	SHORT $LN4@Copy_backw@2

; 2686 : 		_CRT_SECURE_MEMMOVE(&*_Result, _Off * sizeof (*_First), &*_First, _Off * sizeof (*_First));

	push	ecx
	push	edx
	push	ecx
	push	esi
	call	_memmove_s
	add	esp, 16					; 00000010H
$LN4@Copy_backw@2:

; 2687 : 	return _Result;

	mov	eax, esi
	pop	esi

; 2688 : 	}

	ret	0
??$_Copy_backward_opt@PAHPAHUrandom_access_iterator_tag@std@@@std@@YAPAHPAH00Urandom_access_iterator_tag@0@U_Scalar_ptr_iterator_tag@0@U_Range_checked_iterator_tag@0@@Z ENDP ; std::_Copy_backward_opt<int *,int *,std::random_access_iterator_tag>
; Function compile flags: /Ogtpy
_TEXT	ENDS
;	COMDAT ??$_Checked_base@PAH@std@@YAPAHAAPAHU_Unchanged_checked_iterator_base_type_tag@0@@Z
_TEXT	SEGMENT
__It$ = 8						; size = 4
___formal$ = 12						; size = 1
??$_Checked_base@PAH@std@@YAPAHAAPAHU_Unchanged_checked_iterator_base_type_tag@0@@Z PROC ; std::_Checked_base<int *>, COMDAT

; 1147 : 		return _It;

	mov	eax, DWORD PTR __It$[esp-4]
	mov	eax, DWORD PTR [eax]

; 1148 : 	}

	ret	0
??$_Checked_base@PAH@std@@YAPAHAAPAHU_Unchanged_checked_iterator_base_type_tag@0@@Z ENDP ; std::_Checked_base<int *>
; Function compile flags: /Ogtpy
_TEXT	ENDS
;	COMDAT ??$_Copy_opt@PAU?$pair@_K_K@std@@PAU12@Uforward_iterator_tag@2@@std@@YAPAU?$pair@_K_K@0@PAU10@00Uforward_iterator_tag@0@U_Nonscalar_ptr_iterator_tag@0@U_Range_checked_iterator_tag@0@@Z
_TEXT	SEGMENT
__First$ = 8						; size = 4
___formal$ = 12						; size = 1
___formal$ = 16						; size = 1
___formal$ = 20						; size = 1
??$_Copy_opt@PAU?$pair@_K_K@std@@PAU12@Uforward_iterator_tag@2@@std@@YAPAU?$pair@_K_K@0@PAU10@00Uforward_iterator_tag@0@U_Nonscalar_ptr_iterator_tag@0@U_Range_checked_iterator_tag@0@@Z PROC ; std::_Copy_opt<std::pair<unsigned __int64,unsigned __int64> *,std::pair<unsigned __int64,unsigned __int64> *,std::forward_iterator_tag>, COMDAT
; __Last$ = edx
; __Dest$ = eax

; 2443 : 	{	// copy [_First, _Last) to [_Dest, ...), arbitrary iterators

	mov	ecx, DWORD PTR __First$[esp-4]

; 2444 : 	_DEBUG_RANGE(_First, _Last);
; 2445 : 	for (; _First != _Last; ++_Dest, ++_First)

	cmp	ecx, edx
	je	SHORT $LN1@Copy_opt
	push	esi
	npad	7
$LL3@Copy_opt:

; 2446 : 		*_Dest = *_First;

	mov	esi, DWORD PTR [ecx]
	mov	DWORD PTR [eax], esi
	mov	esi, DWORD PTR [ecx+4]
	mov	DWORD PTR [eax+4], esi
	mov	esi, DWORD PTR [ecx+8]
	mov	DWORD PTR [eax+8], esi
	mov	esi, DWORD PTR [ecx+12]
	mov	DWORD PTR [eax+12], esi
	add	ecx, 16					; 00000010H
	add	eax, 16					; 00000010H
	cmp	ecx, edx
	jne	SHORT $LL3@Copy_opt
	pop	esi
$LN1@Copy_opt:

; 2447 : 	return (_Dest);
; 2448 : 	}

	ret	0
??$_Copy_opt@PAU?$pair@_K_K@std@@PAU12@Uforward_iterator_tag@2@@std@@YAPAU?$pair@_K_K@0@PAU10@00Uforward_iterator_tag@0@U_Nonscalar_ptr_iterator_tag@0@U_Range_checked_iterator_tag@0@@Z ENDP ; std::_Copy_opt<std::pair<unsigned __int64,unsigned __int64> *,std::pair<unsigned __int64,unsigned __int64> *,std::forward_iterator_tag>
; Function compile flags: /Ogtpy
_TEXT	ENDS
;	COMDAT ??$_Checked_base@PAU?$pair@_K_K@std@@@std@@YAPAU?$pair@_K_K@0@AAPAU10@U_Unchanged_checked_iterator_base_type_tag@0@@Z
_TEXT	SEGMENT
___formal$ = 8						; size = 1
??$_Checked_base@PAU?$pair@_K_K@std@@@std@@YAPAU?$pair@_K_K@0@AAPAU10@U_Unchanged_checked_iterator_base_type_tag@0@@Z PROC ; std::_Checked_base<std::pair<unsigned __int64,unsigned __int64> *>, COMDAT
; __It$ = eax

; 1147 : 		return _It;

	mov	eax, DWORD PTR [eax]

; 1148 : 	}

	ret	0
??$_Checked_base@PAU?$pair@_K_K@std@@@std@@YAPAU?$pair@_K_K@0@AAPAU10@U_Unchanged_checked_iterator_base_type_tag@0@@Z ENDP ; std::_Checked_base<std::pair<unsigned __int64,unsigned __int64> *>
; Function compile flags: /Ogtpy
_TEXT	ENDS
;	COMDAT ??$_Ptr_cat@V?$_Vector_const_iterator@U?$pair@_K_K@std@@V?$allocator@U?$pair@_K_K@std@@@2@@std@@PAU?$pair@_K_K@2@@std@@YA?AU_Nonscalar_ptr_iterator_tag@0@AAV?$_Vector_const_iterator@U?$pair@_K_K@std@@V?$allocator@U?$pair@_K_K@std@@@2@@0@AAPAU?$pair@_K_K@0@@Z
_TEXT	SEGMENT
__Cat$ = -1						; size = 1
??$_Ptr_cat@V?$_Vector_const_iterator@U?$pair@_K_K@std@@V?$allocator@U?$pair@_K_K@std@@@2@@std@@PAU?$pair@_K_K@2@@std@@YA?AU_Nonscalar_ptr_iterator_tag@0@AAV?$_Vector_const_iterator@U?$pair@_K_K@std@@V?$allocator@U?$pair@_K_K@std@@@2@@0@AAPAU?$pair@_K_K@0@@Z PROC ; std::_Ptr_cat<std::_Vector_const_iterator<std::pair<unsigned __int64,unsigned __int64>,std::allocator<std::pair<unsigned __int64,unsigned __int64> > >,std::pair<unsigned __int64,unsigned __int64> *>, COMDAT

; 1483 : 	{

	push	ecx

; 1484 : 	typename _Ptr_cat_helper<_T1, _T2>::_Ptr_cat _Cat;
; 1485 : 	return (_Cat);

	mov	al, BYTE PTR __Cat$[esp+4]

; 1486 : 	}

	pop	ecx
	ret	0
??$_Ptr_cat@V?$_Vector_const_iterator@U?$pair@_K_K@std@@V?$allocator@U?$pair@_K_K@std@@@2@@std@@PAU?$pair@_K_K@2@@std@@YA?AU_Nonscalar_ptr_iterator_tag@0@AAV?$_Vector_const_iterator@U?$pair@_K_K@std@@V?$allocator@U?$pair@_K_K@std@@@2@@0@AAPAU?$pair@_K_K@0@@Z ENDP ; std::_Ptr_cat<std::_Vector_const_iterator<std::pair<unsigned __int64,unsigned __int64>,std::allocator<std::pair<unsigned __int64,unsigned __int64> > >,std::pair<unsigned __int64,unsigned __int64> *>
; Function compile flags: /Ogtpy
_TEXT	ENDS
;	COMDAT ??$_Checked_base@V?$_Vector_const_iterator@U?$pair@_K_K@std@@V?$allocator@U?$pair@_K_K@std@@@2@@std@@@std@@YAPBU?$pair@_K_K@0@AAV?$_Vector_const_iterator@U?$pair@_K_K@std@@V?$allocator@U?$pair@_K_K@std@@@2@@0@@Z
_TEXT	SEGMENT
??$_Checked_base@V?$_Vector_const_iterator@U?$pair@_K_K@std@@V?$allocator@U?$pair@_K_K@std@@@2@@std@@@std@@YAPBU?$pair@_K_K@0@AAV?$_Vector_const_iterator@U?$pair@_K_K@std@@V?$allocator@U?$pair@_K_K@std@@@2@@0@@Z PROC ; std::_Checked_base<std::_Vector_const_iterator<std::pair<unsigned __int64,unsigned __int64>,std::allocator<std::pair<unsigned __int64,unsigned __int64> > > >, COMDAT
; __It$ = eax

; 1164 : 		typename _Checked_iterator_base_helper<_Iter>::_Checked_iterator_base_type_tag _Base_tag;
; 1165 : 		return _Checked_base(_It, _Base_tag);

	mov	eax, DWORD PTR [eax+4]

; 1166 : 	}

	ret	0
??$_Checked_base@V?$_Vector_const_iterator@U?$pair@_K_K@std@@V?$allocator@U?$pair@_K_K@std@@@2@@std@@@std@@YAPBU?$pair@_K_K@0@AAV?$_Vector_const_iterator@U?$pair@_K_K@std@@V?$allocator@U?$pair@_K_K@std@@@2@@0@@Z ENDP ; std::_Checked_base<std::_Vector_const_iterator<std::pair<unsigned __int64,unsigned __int64>,std::allocator<std::pair<unsigned __int64,unsigned __int64> > > >
; Function compile flags: /Ogtpy
_TEXT	ENDS
;	COMDAT ??$_Checked_base@V?$_Vector_iterator@U?$pair@_K_K@std@@V?$allocator@U?$pair@_K_K@std@@@2@@std@@@std@@YAPAU?$pair@_K_K@0@AAV?$_Vector_iterator@U?$pair@_K_K@std@@V?$allocator@U?$pair@_K_K@std@@@2@@0@@Z
_TEXT	SEGMENT
??$_Checked_base@V?$_Vector_iterator@U?$pair@_K_K@std@@V?$allocator@U?$pair@_K_K@std@@@2@@std@@@std@@YAPAU?$pair@_K_K@0@AAV?$_Vector_iterator@U?$pair@_K_K@std@@V?$allocator@U?$pair@_K_K@std@@@2@@0@@Z PROC ; std::_Checked_base<std::_Vector_iterator<std::pair<unsigned __int64,unsigned __int64>,std::allocator<std::pair<unsigned __int64,unsigned __int64> > > >, COMDAT
; __It$ = eax

; 1164 : 		typename _Checked_iterator_base_helper<_Iter>::_Checked_iterator_base_type_tag _Base_tag;
; 1165 : 		return _Checked_base(_It, _Base_tag);

	mov	eax, DWORD PTR [eax+4]

; 1166 : 	}

	ret	0
??$_Checked_base@V?$_Vector_iterator@U?$pair@_K_K@std@@V?$allocator@U?$pair@_K_K@std@@@2@@std@@@std@@YAPAU?$pair@_K_K@0@AAV?$_Vector_iterator@U?$pair@_K_K@std@@V?$allocator@U?$pair@_K_K@std@@@2@@0@@Z ENDP ; std::_Checked_base<std::_Vector_iterator<std::pair<unsigned __int64,unsigned __int64>,std::allocator<std::pair<unsigned __int64,unsigned __int64> > > >
; Function compile flags: /Ogtpy
_TEXT	ENDS
;	COMDAT ??$_Checked_base@V?$_Vector_iterator@HV?$allocator@H@std@@@std@@U_Different_checked_iterator_base_type_tag@2@@std@@YAPAHAAV?$_Vector_iterator@HV?$allocator@H@std@@@0@U_Different_checked_iterator_base_type_tag@0@@Z
_TEXT	SEGMENT
__It$ = 8						; size = 4
___formal$ = 12						; size = 1
??$_Checked_base@V?$_Vector_iterator@HV?$allocator@H@std@@@std@@U_Different_checked_iterator_base_type_tag@2@@std@@YAPAHAAV?$_Vector_iterator@HV?$allocator@H@std@@@0@U_Different_checked_iterator_base_type_tag@0@@Z PROC ; std::_Checked_base<std::_Vector_iterator<int,std::allocator<int> >,std::_Different_checked_iterator_base_type_tag>, COMDAT

; 1139 : 		return _It._Checked_iterator_base();

	mov	eax, DWORD PTR __It$[esp-4]
	mov	eax, DWORD PTR [eax+4]

; 1140 : 	}

	ret	0
??$_Checked_base@V?$_Vector_iterator@HV?$allocator@H@std@@@std@@U_Different_checked_iterator_base_type_tag@2@@std@@YAPAHAAV?$_Vector_iterator@HV?$allocator@H@std@@@0@U_Different_checked_iterator_base_type_tag@0@@Z ENDP ; std::_Checked_base<std::_Vector_iterator<int,std::allocator<int> >,std::_Different_checked_iterator_base_type_tag>
; Function compile flags: /Ogtpy
; File c:\program files (x86)\microsoft visual studio 9.0\vc\include\xmemory
_TEXT	ENDS
;	COMDAT ?destroy@?$allocator@U?$pair@_K_K@std@@@std@@QAEXPAU?$pair@_K_K@2@@Z
_TEXT	SEGMENT
?destroy@?$allocator@U?$pair@_K_K@std@@@std@@QAEXPAU?$pair@_K_K@2@@Z PROC ; std::allocator<std::pair<unsigned __int64,unsigned __int64> >::destroy, COMDAT

; 160  : 		_Destroy(_Ptr);
; 161  : 		}

	ret	0
?destroy@?$allocator@U?$pair@_K_K@std@@@std@@QAEXPAU?$pair@_K_K@2@@Z ENDP ; std::allocator<std::pair<unsigned __int64,unsigned __int64> >::destroy
; Function compile flags: /Ogtpy
; File c:\program files (x86)\microsoft visual studio 9.0\vc\include\xutility
_TEXT	ENDS
;	COMDAT ??$_Move_cat@PAH@std@@YA?AU_Undefined_move_tag@0@ABQAH@Z
_TEXT	SEGMENT
__Cat$ = -1						; size = 1
___formal$ = 8						; size = 4
??$_Move_cat@PAH@std@@YA?AU_Undefined_move_tag@0@ABQAH@Z PROC ; std::_Move_cat<int *>, COMDAT

; 1200 : 	{

	push	ecx

; 1201 : 		typename _Move_operation_category<typename iterator_traits<_Iter>::value_type>::_Move_cat _Cat;
; 1202 : 		return (_Cat);

	mov	al, BYTE PTR __Cat$[esp+4]

; 1203 : 	}

	pop	ecx
	ret	0
??$_Move_cat@PAH@std@@YA?AU_Undefined_move_tag@0@ABQAH@Z ENDP ; std::_Move_cat<int *>
; Function compile flags: /Ogtpy
_TEXT	ENDS
;	COMDAT ??$_Fill@PAHH@std@@YAXPAH0ABH@Z
_TEXT	SEGMENT
__First$ = 8						; size = 4
__Last$ = 12						; size = 4
__Val$ = 16						; size = 4
??$_Fill@PAHH@std@@YAXPAH0ABH@Z PROC			; std::_Fill<int *,int>, COMDAT

; 3131 : 	_DEBUG_RANGE(_First, _Last);
; 3132 : 	for (; _First != _Last; ++_First)

	mov	eax, DWORD PTR __First$[esp-4]
	mov	ecx, DWORD PTR __Last$[esp-4]
	cmp	eax, ecx
	je	SHORT $LN1@Fill
	mov	edx, DWORD PTR __Val$[esp-4]
	push	esi
$LL3@Fill:

; 3133 : 		*_First = _Val;

	mov	esi, DWORD PTR [edx]
	mov	DWORD PTR [eax], esi
	add	eax, 4
	cmp	eax, ecx
	jne	SHORT $LL3@Fill
	pop	esi
$LN1@Fill:

; 3134 : 	}

	ret	0
??$_Fill@PAHH@std@@YAXPAH0ABH@Z ENDP			; std::_Fill<int *,int>
; Function compile flags: /Ogtpy
; File c:\program files (x86)\microsoft visual studio 9.0\vc\include\xmemory
_TEXT	ENDS
;	COMDAT ??$_Destroy_range@V?$allocator@H@std@@@std@@YAXPAH0AAV?$allocator@H@0@U_Scalar_ptr_iterator_tag@0@@Z
_TEXT	SEGMENT
__First$ = 8						; size = 4
__Last$ = 12						; size = 4
__Al$ = 16						; size = 4
___formal$ = 20						; size = 1
??$_Destroy_range@V?$allocator@H@std@@@std@@YAXPAH0AAV?$allocator@H@0@U_Scalar_ptr_iterator_tag@0@@Z PROC ; std::_Destroy_range<std::allocator<int> >, COMDAT

; 242  : 	}

	ret	0
??$_Destroy_range@V?$allocator@H@std@@@std@@YAXPAH0AAV?$allocator@H@0@U_Scalar_ptr_iterator_tag@0@@Z ENDP ; std::_Destroy_range<std::allocator<int> >
; Function compile flags: /Ogtpy
; File c:\program files (x86)\microsoft visual studio 9.0\vc\include\xutility
_TEXT	ENDS
;	COMDAT ??$_Move_cat@PAU?$pair@_K_K@std@@@std@@YA?AU_Undefined_move_tag@0@ABQAU?$pair@_K_K@0@@Z
_TEXT	SEGMENT
__Cat$ = -1						; size = 1
??$_Move_cat@PAU?$pair@_K_K@std@@@std@@YA?AU_Undefined_move_tag@0@ABQAU?$pair@_K_K@0@@Z PROC ; std::_Move_cat<std::pair<unsigned __int64,unsigned __int64> *>, COMDAT

; 1200 : 	{

	push	ecx

; 1201 : 		typename _Move_operation_category<typename iterator_traits<_Iter>::value_type>::_Move_cat _Cat;
; 1202 : 		return (_Cat);

	mov	al, BYTE PTR __Cat$[esp+4]

; 1203 : 	}

	pop	ecx
	ret	0
??$_Move_cat@PAU?$pair@_K_K@std@@@std@@YA?AU_Undefined_move_tag@0@ABQAU?$pair@_K_K@0@@Z ENDP ; std::_Move_cat<std::pair<unsigned __int64,unsigned __int64> *>
; Function compile flags: /Ogtpy
_TEXT	ENDS
;	COMDAT ??$_Fill@PAU?$pair@_K_K@std@@U12@@std@@YAXPAU?$pair@_K_K@0@0ABU10@@Z
_TEXT	SEGMENT
__First$ = 8						; size = 4
??$_Fill@PAU?$pair@_K_K@std@@U12@@std@@YAXPAU?$pair@_K_K@0@0ABU10@@Z PROC ; std::_Fill<std::pair<unsigned __int64,unsigned __int64> *,std::pair<unsigned __int64,unsigned __int64> >, COMDAT
; __Last$ = edx
; __Val$ = ecx

; 3130 : 	{	// copy _Val through [_First, _Last)

	mov	eax, DWORD PTR __First$[esp-4]

; 3131 : 	_DEBUG_RANGE(_First, _Last);
; 3132 : 	for (; _First != _Last; ++_First)

	cmp	eax, edx
	je	SHORT $LN1@Fill@2
	push	esi
	npad	7
$LL3@Fill@2:

; 3133 : 		*_First = _Val;

	mov	esi, DWORD PTR [ecx]
	mov	DWORD PTR [eax], esi
	mov	esi, DWORD PTR [ecx+4]
	mov	DWORD PTR [eax+4], esi
	mov	esi, DWORD PTR [ecx+8]
	mov	DWORD PTR [eax+8], esi
	mov	esi, DWORD PTR [ecx+12]
	mov	DWORD PTR [eax+12], esi
	add	eax, 16					; 00000010H
	cmp	eax, edx
	jne	SHORT $LL3@Fill@2
	pop	esi
$LN1@Fill@2:

; 3134 : 	}

	ret	0
??$_Fill@PAU?$pair@_K_K@std@@U12@@std@@YAXPAU?$pair@_K_K@0@0ABU10@@Z ENDP ; std::_Fill<std::pair<unsigned __int64,unsigned __int64> *,std::pair<unsigned __int64,unsigned __int64> >
; Function compile flags: /Ogtpy
_TEXT	ENDS
;	COMDAT ??$_Copy_opt@PAHPAHUrandom_access_iterator_tag@std@@@std@@YAPAHPAH00Urandom_access_iterator_tag@0@U_Scalar_ptr_iterator_tag@0@U_Range_checked_iterator_tag@0@@Z
_TEXT	SEGMENT
__First$ = 8						; size = 4
__Last$ = 12						; size = 4
__Dest$ = 16						; size = 4
___formal$ = 20						; size = 1
___formal$ = 24						; size = 1
___formal$ = 28						; size = 1
??$_Copy_opt@PAHPAHUrandom_access_iterator_tag@std@@@std@@YAPAHPAH00Urandom_access_iterator_tag@0@U_Scalar_ptr_iterator_tag@0@U_Range_checked_iterator_tag@0@@Z PROC ; std::_Copy_opt<int *,int *,std::random_access_iterator_tag>, COMDAT

; 2469 : 
; 2470 :  #if _HAS_ITERATOR_DEBUGGING
; 2471 : 	_DEBUG_RANGE(_First, _Last);
; 2472 : 	if (_First != _Last)
; 2473 : 		_DEBUG_POINTER(_Dest);
; 2474 :  #endif /* _HAS_ITERATOR_DEBUGGING */
; 2475 : 
; 2476 : 	ptrdiff_t _Off = _Last - _First;	// NB: non-overlapping move

	mov	eax, DWORD PTR __Last$[esp-4]
	mov	edx, DWORD PTR __First$[esp-4]
	sub	eax, edx
	push	esi
	sar	eax, 2
	push	edi

; 2477 : 	// if _OutIt is range checked, this will make sure there is enough space for the memmove
; 2478 : 	_OutIt _Result = _Dest + _Off;

	mov	edi, DWORD PTR __Dest$[esp+4]
	lea	ecx, DWORD PTR [eax*4]
	lea	esi, DWORD PTR [ecx+edi]

; 2479 : 	if (_Off > 0)

	test	eax, eax
	jle	SHORT $LN4@Copy_opt@2

; 2480 : 		_CRT_SECURE_MEMMOVE(&*_Dest, _Off * sizeof (*_First), &*_First, _Off * sizeof (*_First));

	push	ecx
	push	edx
	push	ecx
	push	edi
	call	_memmove_s
	add	esp, 16					; 00000010H
$LN4@Copy_opt@2:
	pop	edi

; 2481 : 	return _Result;

	mov	eax, esi
	pop	esi

; 2482 : 	}

	ret	0
??$_Copy_opt@PAHPAHUrandom_access_iterator_tag@std@@@std@@YAPAHPAH00Urandom_access_iterator_tag@0@U_Scalar_ptr_iterator_tag@0@U_Range_checked_iterator_tag@0@@Z ENDP ; std::_Copy_opt<int *,int *,std::random_access_iterator_tag>
; Function compile flags: /Ogtpy
_TEXT	ENDS
;	COMDAT ??$_Ptr_cat@PAHPAH@std@@YA?AU_Scalar_ptr_iterator_tag@0@AAPAH0@Z
_TEXT	SEGMENT
__Cat$ = -1						; size = 1
___formal$ = 8						; size = 4
___formal$ = 12						; size = 4
??$_Ptr_cat@PAHPAH@std@@YA?AU_Scalar_ptr_iterator_tag@0@AAPAH0@Z PROC ; std::_Ptr_cat<int *,int *>, COMDAT

; 1483 : 	{

	push	ecx

; 1484 : 	typename _Ptr_cat_helper<_T1, _T2>::_Ptr_cat _Cat;
; 1485 : 	return (_Cat);

	mov	al, BYTE PTR __Cat$[esp+4]

; 1486 : 	}

	pop	ecx
	ret	0
??$_Ptr_cat@PAHPAH@std@@YA?AU_Scalar_ptr_iterator_tag@0@AAPAH0@Z ENDP ; std::_Ptr_cat<int *,int *>
; Function compile flags: /Ogtpy
_TEXT	ENDS
;	COMDAT ??$_Iter_random@PAHPAH@std@@YA?AUrandom_access_iterator_tag@0@ABQAH0@Z
_TEXT	SEGMENT
___$ReturnUdt$ = 8					; size = 4
___formal$ = 12						; size = 4
___formal$ = 16						; size = 4
??$_Iter_random@PAHPAH@std@@YA?AUrandom_access_iterator_tag@0@ABQAH0@Z PROC ; std::_Iter_random<int *,int *>, COMDAT

; 994  : 	typename _Iter_random_helper<
; 995  : 		iterator_traits<_Iter1>::iterator_category, 
; 996  : 		iterator_traits<_Iter2>::iterator_category>::_Iter_random_cat _Cat;
; 997  : 	return (_Cat);

	mov	eax, DWORD PTR ___$ReturnUdt$[esp-4]

; 998  : 	}

	ret	0
??$_Iter_random@PAHPAH@std@@YA?AUrandom_access_iterator_tag@0@ABQAH0@Z ENDP ; std::_Iter_random<int *,int *>
; Function compile flags: /Ogtpy
_TEXT	ENDS
;	COMDAT ??$_Checked_base@PAH@std@@YAPAHAAPAH@Z
_TEXT	SEGMENT
__It$ = 8						; size = 4
??$_Checked_base@PAH@std@@YAPAHAAPAH@Z PROC		; std::_Checked_base<int *>, COMDAT

; 1164 : 		typename _Checked_iterator_base_helper<_Iter>::_Checked_iterator_base_type_tag _Base_tag;
; 1165 : 		return _Checked_base(_It, _Base_tag);

	mov	eax, DWORD PTR __It$[esp-4]
	mov	eax, DWORD PTR [eax]

; 1166 : 	}

	ret	0
??$_Checked_base@PAH@std@@YAPAHAAPAH@Z ENDP		; std::_Checked_base<int *>
; Function compile flags: /Ogtpy
; File c:\program files (x86)\microsoft visual studio 9.0\vc\include\xmemory
_TEXT	ENDS
;	COMDAT ??$_Destroy_range@V?$allocator@U?$pair@_K_K@std@@@std@@@std@@YAXPAU?$pair@_K_K@0@0AAV?$allocator@U?$pair@_K_K@std@@@0@U_Nonscalar_ptr_iterator_tag@0@@Z
_TEXT	SEGMENT
___formal$ = 8						; size = 1
??$_Destroy_range@V?$allocator@U?$pair@_K_K@std@@@std@@@std@@YAXPAU?$pair@_K_K@0@0AAV?$allocator@U?$pair@_K_K@std@@@0@U_Nonscalar_ptr_iterator_tag@0@@Z PROC ; std::_Destroy_range<std::allocator<std::pair<unsigned __int64,unsigned __int64> > >, COMDAT

; 233  : 	for (; _First != _Last; ++_First)
; 234  : 		_Al.destroy(_First);
; 235  : 	}

	ret	0
??$_Destroy_range@V?$allocator@U?$pair@_K_K@std@@@std@@@std@@YAXPAU?$pair@_K_K@0@0AAV?$allocator@U?$pair@_K_K@std@@@0@U_Nonscalar_ptr_iterator_tag@0@@Z ENDP ; std::_Destroy_range<std::allocator<std::pair<unsigned __int64,unsigned __int64> > >
; Function compile flags: /Ogtpy
; File c:\program files (x86)\microsoft visual studio 9.0\vc\include\xutility
_TEXT	ENDS
;	COMDAT ??$_Ptr_cat@PAU?$pair@_K_K@std@@PAU12@@std@@YA?AU_Nonscalar_ptr_iterator_tag@0@AAPAU?$pair@_K_K@0@0@Z
_TEXT	SEGMENT
__Cat$ = -1						; size = 1
??$_Ptr_cat@PAU?$pair@_K_K@std@@PAU12@@std@@YA?AU_Nonscalar_ptr_iterator_tag@0@AAPAU?$pair@_K_K@0@0@Z PROC ; std::_Ptr_cat<std::pair<unsigned __int64,unsigned __int64> *,std::pair<unsigned __int64,unsigned __int64> *>, COMDAT

; 1483 : 	{

	push	ecx

; 1484 : 	typename _Ptr_cat_helper<_T1, _T2>::_Ptr_cat _Cat;
; 1485 : 	return (_Cat);

	mov	al, BYTE PTR __Cat$[esp+4]

; 1486 : 	}

	pop	ecx
	ret	0
??$_Ptr_cat@PAU?$pair@_K_K@std@@PAU12@@std@@YA?AU_Nonscalar_ptr_iterator_tag@0@AAPAU?$pair@_K_K@0@0@Z ENDP ; std::_Ptr_cat<std::pair<unsigned __int64,unsigned __int64> *,std::pair<unsigned __int64,unsigned __int64> *>
; Function compile flags: /Ogtpy
_TEXT	ENDS
;	COMDAT ??$_Iter_random@PAU?$pair@_K_K@std@@PAU12@@std@@YA?AUrandom_access_iterator_tag@0@ABQAU?$pair@_K_K@0@0@Z
_TEXT	SEGMENT
??$_Iter_random@PAU?$pair@_K_K@std@@PAU12@@std@@YA?AUrandom_access_iterator_tag@0@ABQAU?$pair@_K_K@0@0@Z PROC ; std::_Iter_random<std::pair<unsigned __int64,unsigned __int64> *,std::pair<unsigned __int64,unsigned __int64> *>, COMDAT
; ___$ReturnUdt$ = eax

; 994  : 	typename _Iter_random_helper<
; 995  : 		iterator_traits<_Iter1>::iterator_category, 
; 996  : 		iterator_traits<_Iter2>::iterator_category>::_Iter_random_cat _Cat;
; 997  : 	return (_Cat);
; 998  : 	}

	ret	0
??$_Iter_random@PAU?$pair@_K_K@std@@PAU12@@std@@YA?AUrandom_access_iterator_tag@0@ABQAU?$pair@_K_K@0@0@Z ENDP ; std::_Iter_random<std::pair<unsigned __int64,unsigned __int64> *,std::pair<unsigned __int64,unsigned __int64> *>
; Function compile flags: /Ogtpy
_TEXT	ENDS
;	COMDAT ??$_Checked_base@PAU?$pair@_K_K@std@@@std@@YAPAU?$pair@_K_K@0@AAPAU10@@Z
_TEXT	SEGMENT
??$_Checked_base@PAU?$pair@_K_K@std@@@std@@YAPAU?$pair@_K_K@0@AAPAU10@@Z PROC ; std::_Checked_base<std::pair<unsigned __int64,unsigned __int64> *>, COMDAT
; __It$ = eax

; 1164 : 		typename _Checked_iterator_base_helper<_Iter>::_Checked_iterator_base_type_tag _Base_tag;
; 1165 : 		return _Checked_base(_It, _Base_tag);

	mov	eax, DWORD PTR [eax]

; 1166 : 	}

	ret	0
??$_Checked_base@PAU?$pair@_K_K@std@@@std@@YAPAU?$pair@_K_K@0@AAPAU10@@Z ENDP ; std::_Checked_base<std::pair<unsigned __int64,unsigned __int64> *>
; Function compile flags: /Ogtpy
_TEXT	ENDS
;	COMDAT ??$_Checked_base@V?$_Vector_iterator@HV?$allocator@H@std@@@std@@@std@@YAPAHAAV?$_Vector_iterator@HV?$allocator@H@std@@@0@@Z
_TEXT	SEGMENT
__It$ = 8						; size = 4
??$_Checked_base@V?$_Vector_iterator@HV?$allocator@H@std@@@std@@@std@@YAPAHAAV?$_Vector_iterator@HV?$allocator@H@std@@@0@@Z PROC ; std::_Checked_base<std::_Vector_iterator<int,std::allocator<int> > >, COMDAT

; 1164 : 		typename _Checked_iterator_base_helper<_Iter>::_Checked_iterator_base_type_tag _Base_tag;
; 1165 : 		return _Checked_base(_It, _Base_tag);

	mov	eax, DWORD PTR __It$[esp-4]
	mov	eax, DWORD PTR [eax+4]

; 1166 : 	}

	ret	0
??$_Checked_base@V?$_Vector_iterator@HV?$allocator@H@std@@@std@@@std@@YAPAHAAV?$_Vector_iterator@HV?$allocator@H@std@@@0@@Z ENDP ; std::_Checked_base<std::_Vector_iterator<int,std::allocator<int> > >
; Function compile flags: /Ogtpy
; File c:\program files (x86)\microsoft visual studio 9.0\vc\include\xmemory
_TEXT	ENDS
;	COMDAT ??$?0H@?$allocator@V_Aux_cont@std@@@std@@QAE@ABV?$allocator@H@1@@Z
_TEXT	SEGMENT
___formal$ = 8						; size = 4
??$?0H@?$allocator@V_Aux_cont@std@@@std@@QAE@ABV?$allocator@H@1@@Z PROC ; std::allocator<std::_Aux_cont>::allocator<std::_Aux_cont><int>, COMDAT
; _this$ = ecx

; 128  : 		allocator(const allocator<_Other>&) _THROW0()

	mov	eax, ecx

; 129  : 		{	// construct from a related allocator (do nothing)
; 130  : 		}

	ret	4
??$?0H@?$allocator@V_Aux_cont@std@@@std@@QAE@ABV?$allocator@H@1@@Z ENDP ; std::allocator<std::_Aux_cont>::allocator<std::_Aux_cont><int>
; Function compile flags: /Ogtpy
; File c:\program files (x86)\microsoft visual studio 9.0\vc\include\xutility
_TEXT	ENDS
;	COMDAT ??$fill@PAHH@std@@YAXPAH0ABH@Z
_TEXT	SEGMENT
__First$ = 8						; size = 4
__Last$ = 12						; size = 4
__Val$ = 16						; size = 4
??$fill@PAHH@std@@YAXPAH0ABH@Z PROC			; std::fill<int *,int>, COMDAT

; 3161 : 	_Fill(_CHECKED_BASE(_First), _CHECKED_BASE(_Last), _Val);

	mov	eax, DWORD PTR __First$[esp-4]
	mov	ecx, DWORD PTR __Last$[esp-4]
	cmp	eax, ecx
	je	SHORT $LN11@fill
	mov	edx, DWORD PTR __Val$[esp-4]
	push	esi
$LL13@fill:
	mov	esi, DWORD PTR [edx]
	mov	DWORD PTR [eax], esi
	add	eax, 4
	cmp	eax, ecx
	jne	SHORT $LL13@fill
	pop	esi
$LN11@fill:

; 3162 : 	}

	ret	0
??$fill@PAHH@std@@YAXPAH0ABH@Z ENDP			; std::fill<int *,int>
; Function compile flags: /Ogtpy
; File c:\program files (x86)\microsoft visual studio 9.0\vc\include\xmemory
_TEXT	ENDS
;	COMDAT ??$_Destroy_range@V?$allocator@H@std@@@std@@YAXPAH0AAV?$allocator@H@0@@Z
_TEXT	SEGMENT
__First$ = 8						; size = 4
__Last$ = 12						; size = 4
__Al$ = 16						; size = 4
??$_Destroy_range@V?$allocator@H@std@@@std@@YAXPAH0AAV?$allocator@H@0@@Z PROC ; std::_Destroy_range<std::allocator<int> >, COMDAT

; 225  : 	_Destroy_range(_First, _Last, _Al, _Ptr_cat(_First, _Last));
; 226  : 	}

	ret	0
??$_Destroy_range@V?$allocator@H@std@@@std@@YAXPAH0AAV?$allocator@H@0@@Z ENDP ; std::_Destroy_range<std::allocator<int> >
; Function compile flags: /Ogtpy
_TEXT	ENDS
;	COMDAT ??$?0U?$pair@_K_K@std@@@?$allocator@V_Aux_cont@std@@@std@@QAE@ABV?$allocator@U?$pair@_K_K@std@@@1@@Z
_TEXT	SEGMENT
??$?0U?$pair@_K_K@std@@@?$allocator@V_Aux_cont@std@@@std@@QAE@ABV?$allocator@U?$pair@_K_K@std@@@1@@Z PROC ; std::allocator<std::_Aux_cont>::allocator<std::_Aux_cont><std::pair<unsigned __int64,unsigned __int64> >, COMDAT
; _this$ = eax

; 129  : 		{	// construct from a related allocator (do nothing)
; 130  : 		}

	ret	0
??$?0U?$pair@_K_K@std@@@?$allocator@V_Aux_cont@std@@@std@@QAE@ABV?$allocator@U?$pair@_K_K@std@@@1@@Z ENDP ; std::allocator<std::_Aux_cont>::allocator<std::_Aux_cont><std::pair<unsigned __int64,unsigned __int64> >
; Function compile flags: /Ogtpy
; File c:\program files (x86)\microsoft visual studio 9.0\vc\include\xutility
_TEXT	ENDS
;	COMDAT ??$fill@PAU?$pair@_K_K@std@@U12@@std@@YAXPAU?$pair@_K_K@0@0ABU10@@Z
_TEXT	SEGMENT
__First$ = 8						; size = 4
??$fill@PAU?$pair@_K_K@std@@U12@@std@@YAXPAU?$pair@_K_K@0@0ABU10@@Z PROC ; std::fill<std::pair<unsigned __int64,unsigned __int64> *,std::pair<unsigned __int64,unsigned __int64> >, COMDAT
; __Last$ = edx
; __Val$ = ecx

; 3160 : 	{	// copy _Val through [_First, _Last)

	mov	eax, DWORD PTR __First$[esp-4]

; 3161 : 	_Fill(_CHECKED_BASE(_First), _CHECKED_BASE(_Last), _Val);

	cmp	eax, edx
	je	SHORT $LN11@fill@2
	push	esi
	npad	7
$LL13@fill@2:
	mov	esi, DWORD PTR [ecx]
	mov	DWORD PTR [eax], esi
	mov	esi, DWORD PTR [ecx+4]
	mov	DWORD PTR [eax+4], esi
	mov	esi, DWORD PTR [ecx+8]
	mov	DWORD PTR [eax+8], esi
	mov	esi, DWORD PTR [ecx+12]
	mov	DWORD PTR [eax+12], esi
	add	eax, 16					; 00000010H
	cmp	eax, edx
	jne	SHORT $LL13@fill@2
	pop	esi
$LN11@fill@2:

; 3162 : 	}

	ret	0
??$fill@PAU?$pair@_K_K@std@@U12@@std@@YAXPAU?$pair@_K_K@0@0ABU10@@Z ENDP ; std::fill<std::pair<unsigned __int64,unsigned __int64> *,std::pair<unsigned __int64,unsigned __int64> >
; Function compile flags: /Ogtpy
_TEXT	ENDS
;	COMDAT ??$unchecked_copy@PAHPAH@stdext@@YAPAHPAH00@Z
_TEXT	SEGMENT
__First$ = 8						; size = 4
__Last$ = 12						; size = 4
__Dest$ = 16						; size = 4
??$unchecked_copy@PAHPAH@stdext@@YAPAHPAH00@Z PROC	; stdext::unchecked_copy<int *,int *>, COMDAT

; 3579 : 		return (_STD _Copy_opt(_CHECKED_BASE(_First), _CHECKED_BASE(_Last), _Dest,
; 3580 : 			_STD _Iter_random(_First, _Dest), _STD _Ptr_cat(_First, _Dest), _STD _Range_checked_iterator_tag()));

	mov	eax, DWORD PTR __Last$[esp-4]
	mov	edx, DWORD PTR __First$[esp-4]
	sub	eax, edx
	push	esi
	sar	eax, 2
	push	edi
	mov	edi, DWORD PTR __Dest$[esp+4]
	lea	ecx, DWORD PTR [eax*4]
	lea	esi, DWORD PTR [ecx+edi]
	test	eax, eax
	jle	SHORT $LN18@unchecked_
	push	ecx
	push	edx
	push	ecx
	push	edi
	call	_memmove_s
	add	esp, 16					; 00000010H
$LN18@unchecked_:
	pop	edi
	mov	eax, esi
	pop	esi

; 3581 : 	}

	ret	0
??$unchecked_copy@PAHPAH@stdext@@YAPAHPAH00@Z ENDP	; stdext::unchecked_copy<int *,int *>
; Function compile flags: /Ogtpy
; File c:\program files (x86)\microsoft visual studio 9.0\vc\include\xmemory
_TEXT	ENDS
;	COMDAT ??$_Destroy_range@V?$allocator@U?$pair@_K_K@std@@@std@@@std@@YAXPAU?$pair@_K_K@0@0AAV?$allocator@U?$pair@_K_K@std@@@0@@Z
_TEXT	SEGMENT
??$_Destroy_range@V?$allocator@U?$pair@_K_K@std@@@std@@@std@@YAXPAU?$pair@_K_K@0@0AAV?$allocator@U?$pair@_K_K@std@@@0@@Z PROC ; std::_Destroy_range<std::allocator<std::pair<unsigned __int64,unsigned __int64> > >, COMDAT

; 225  : 	_Destroy_range(_First, _Last, _Al, _Ptr_cat(_First, _Last));
; 226  : 	}

	ret	0
??$_Destroy_range@V?$allocator@U?$pair@_K_K@std@@@std@@@std@@YAXPAU?$pair@_K_K@0@0AAV?$allocator@U?$pair@_K_K@std@@@0@@Z ENDP ; std::_Destroy_range<std::allocator<std::pair<unsigned __int64,unsigned __int64> > >
; Function compile flags: /Ogtpy
; File c:\program files (x86)\microsoft visual studio 9.0\vc\include\utility
_TEXT	ENDS
;	COMDAT ??$swap@PAU?$pair@_K_K@std@@@std@@YAXAAPAU?$pair@_K_K@0@0@Z
_TEXT	SEGMENT
??$swap@PAU?$pair@_K_K@std@@@std@@YAXAAPAU?$pair@_K_K@0@0@Z PROC ; std::swap<std::pair<unsigned __int64,unsigned __int64> *>, COMDAT
; __Left$ = ecx
; __Right$ = eax

; 18   : 	if (&_Left != &_Right)

	cmp	ecx, eax
	je	SHORT $LN1@swap@2

; 19   : 		{	// different, worth swapping
; 20   : 		_Ty _Tmp = _Left;

	mov	edx, DWORD PTR [ecx]
	push	esi

; 21   : 
; 22   : 		_Left = _Right;

	mov	esi, DWORD PTR [eax]
	mov	DWORD PTR [ecx], esi

; 23   : 		_Right = _Tmp;

	mov	DWORD PTR [eax], edx
	pop	esi
$LN1@swap@2:

; 24   : 		}
; 25   : 	}

	ret	0
??$swap@PAU?$pair@_K_K@std@@@std@@YAXAAPAU?$pair@_K_K@0@0@Z ENDP ; std::swap<std::pair<unsigned __int64,unsigned __int64> *>
; Function compile flags: /Ogtpy
; File c:\program files (x86)\microsoft visual studio 9.0\vc\include\xmemory
_TEXT	ENDS
;	COMDAT ??$?8U?$pair@_K_K@std@@U01@@std@@YA_NABV?$allocator@U?$pair@_K_K@std@@@0@0@Z
_TEXT	SEGMENT
??$?8U?$pair@_K_K@std@@U01@@std@@YA_NABV?$allocator@U?$pair@_K_K@std@@@0@0@Z PROC ; std::operator==<std::pair<unsigned __int64,unsigned __int64>,std::pair<unsigned __int64,unsigned __int64> >, COMDAT

; 175  : 	return (true);

	mov	al, 1

; 176  : 	}

	ret	0
??$?8U?$pair@_K_K@std@@U01@@std@@YA_NABV?$allocator@U?$pair@_K_K@std@@@0@0@Z ENDP ; std::operator==<std::pair<unsigned __int64,unsigned __int64>,std::pair<unsigned __int64,unsigned __int64> >
; Function compile flags: /Ogtpy
; File d:\-=svn=-\svplayer\src\subtitles\separablefilter.h
_TEXT	ENDS
;	COMDAT ??$SeparableFilterY@$01@@YAXPAE0HHHPAHHH@Z
_TEXT	SEGMENT
_y$133095 = -32						; size = 4
tv233 = -28						; size = 4
_accum$133099 = -24					; size = 4
_in$133093 = -20					; size = 4
tv434 = -16						; size = 4
tv286 = -12						; size = 4
tv496 = -8						; size = 4
tv441 = -4						; size = 4
_dst$ = 8						; size = 4
_height$ = 12						; size = 4
_stride$ = 16						; size = 4
_kernel$ = 20						; size = 4
_kernel_size$ = 24					; size = 4
_divisor$ = 28						; size = 4
??$SeparableFilterY@$01@@YAXPAE0HHHPAHHH@Z PROC		; SeparableFilterY<2>, COMDAT
; _src$ = edx
; _width$ = eax

; 66   : {

	sub	esp, 32					; 00000020H
	push	ebx
	mov	ebx, DWORD PTR _stride$[esp+32]
	push	ebp
	mov	ebp, DWORD PTR _kernel_size$[esp+36]
	push	esi

; 67   : #pragma omp parallel for
; 68   : 	width *= PixelDist;

	add	eax, eax

; 69   : 	for (int  x = 0; x < width; x+=PixelDist) {

	xor	esi, esi
	cmp	eax, esi
	jle	$LN11@SeparableF
	mov	ecx, DWORD PTR _dst$[esp+40]
	dec	eax
	sub	ecx, edx
	shr	eax, 1
	inc	eax
	mov	DWORD PTR tv434[esp+44], edx
	mov	DWORD PTR tv441[esp+44], ecx
	mov	DWORD PTR tv496[esp+44], eax
	push	edi
$LL13@SeparableF:

; 70   : 		unsigned char *in = src + x;
; 71   : 		unsigned char *out = dst + x;
; 72   : 		for (int y = 0; y < height; y++) {

	mov	edi, DWORD PTR _height$[esp+44]
	cmp	edi, esi
	mov	edx, DWORD PTR tv434[esp+48]
	mov	DWORD PTR _in$133093[esp+48], edx
	mov	DWORD PTR _y$133095[esp+48], esi
	jle	$LN12@SeparableF
	npad	7
$LL10@SeparableF:

; 73   : 			int accum = 0;
; 74   : 			for (int k = 0; k < kernel_size; k++) {

	cmp	ebp, esi
	mov	DWORD PTR _accum$133099[esp+48], esi
	jle	SHORT $LN5@SeparableF
	mov	eax, ebp
	cdq
	sub	eax, edx
	sar	eax, 1
	mov	ecx, eax
	mov	eax, edi
	imul	eax, ebx
	mov	DWORD PTR tv286[esp+48], eax
	mov	eax, ebp
	cdq
	sub	eax, edx
	mov	edx, DWORD PTR _y$133095[esp+48]
	sar	eax, 1
	neg	ecx
	mov	DWORD PTR tv233[esp+48], ecx
	sub	edi, eax
	sub	edx, eax
	imul	ecx, ebx
$LL22@SeparableF:

; 75   : 				int yofs = k - kernel_size/2;

	mov	ebx, DWORD PTR tv233[esp+48]
	mov	eax, ecx

; 76   : 				if (y+yofs < 0) yofs += height;

	test	edx, edx
	jge	SHORT $LN4@SeparableF
	add	eax, DWORD PTR tv286[esp+48]
	mov	ebx, edi
$LN4@SeparableF:

; 77   : 				if (y+yofs >= height) yofs -= height;

	mov	ebp, DWORD PTR _y$133095[esp+48]
	add	ebx, ebp
	cmp	ebx, DWORD PTR _height$[esp+44]
	jl	SHORT $LN23@SeparableF
	sub	eax, DWORD PTR tv286[esp+48]
$LN23@SeparableF:

; 78   : 				accum += (int)(in[yofs*stride] * kernel[k]);

	mov	ebx, DWORD PTR _in$133093[esp+48]
	movzx	eax, BYTE PTR [eax+ebx]
	mov	ebx, DWORD PTR _kernel$[esp+44]
	imul	eax, DWORD PTR [ebx+esi*4]
	mov	ebx, DWORD PTR _stride$[esp+44]
	mov	ebp, DWORD PTR _kernel_size$[esp+44]
	add	DWORD PTR _accum$133099[esp+48], eax
	inc	DWORD PTR tv233[esp+48]
	inc	esi
	add	ecx, ebx
	inc	edx
	inc	edi
	cmp	esi, ebp
	jl	SHORT $LL22@SeparableF
	mov	ecx, DWORD PTR tv441[esp+48]
	mov	edi, DWORD PTR _height$[esp+44]
	xor	esi, esi
$LN5@SeparableF:

; 79   : 			}
; 80   : 			accum /= divisor;

	mov	eax, DWORD PTR _accum$133099[esp+48]
	cdq
	idiv	DWORD PTR _divisor$[esp+44]

; 81   : 			if (accum > 255) accum = 255;

	cmp	eax, 255				; 000000ffH
	jle	SHORT $LN2@SeparableF
	mov	eax, 255				; 000000ffH

; 82   : 			if (accum < 0) accum = 0;

	jmp	SHORT $LN1@SeparableF
$LN2@SeparableF:
	cmp	eax, esi
	jge	SHORT $LN1@SeparableF
	xor	eax, eax
$LN1@SeparableF:

; 83   : 			*out = (unsigned char)accum;

	mov	edx, DWORD PTR _in$133093[esp+48]
	mov	BYTE PTR [ecx+edx], al
	mov	eax, DWORD PTR _y$133095[esp+48]
	inc	eax

; 84   : 			in += stride;

	add	edx, ebx
	cmp	eax, edi
	mov	DWORD PTR _in$133093[esp+48], edx
	mov	DWORD PTR _y$133095[esp+48], eax
	jl	$LL10@SeparableF

; 70   : 		unsigned char *in = src + x;
; 71   : 		unsigned char *out = dst + x;
; 72   : 		for (int y = 0; y < height; y++) {

	mov	eax, DWORD PTR tv496[esp+48]
$LN12@SeparableF:

; 69   : 	for (int  x = 0; x < width; x+=PixelDist) {

	add	DWORD PTR tv434[esp+48], 2
	sub	eax, 1
	mov	DWORD PTR tv496[esp+48], eax
	jne	$LL13@SeparableF
	pop	edi
$LN11@SeparableF:
	pop	esi
	pop	ebp
	pop	ebx

; 85   : 			out += stride;
; 86   : 		}
; 87   : 	}
; 88   : }

	add	esp, 32					; 00000020H
	ret	0
??$SeparableFilterY@$01@@YAXPAE0HHHPAHHH@Z ENDP		; SeparableFilterY<2>
; Function compile flags: /Ogtpy
_TEXT	ENDS
;	COMDAT ??$SeparableFilterX@$01@@YAXPAE0HHHPAHHH@Z
_TEXT	SEGMENT
tv232 = -28						; size = 4
_accum$133076 = -24					; size = 4
_x$133072 = -20						; size = 4
_in$133070 = -16					; size = 4
tv437 = -12						; size = 4
tv488 = -8						; size = 4
tv446 = -4						; size = 4
_dst$ = 8						; size = 4
_width$ = 12						; size = 4
_stride$ = 16						; size = 4
_kernel$ = 20						; size = 4
_kernel_size$ = 24					; size = 4
_divisor$ = 28						; size = 4
??$SeparableFilterX@$01@@YAXPAE0HHHPAHHH@Z PROC		; SeparableFilterX<2>, COMDAT
; _src$ = ecx
; _height$ = eax

; 36   : {

	sub	esp, 28					; 0000001cH
	push	ebx
	mov	ebx, DWORD PTR _kernel_size$[esp+28]

; 37   : #pragma omp parallel for
; 38   : 	for (int y = 0; y < height; y++) {

	test	eax, eax
	jle	$LN11@SeparableF@2
	push	ebp
	push	esi
	push	edi
	mov	edi, DWORD PTR _dst$[esp+40]
	mov	ebp, ecx
	sub	edi, ecx
	mov	DWORD PTR tv437[esp+44], ebp
	mov	DWORD PTR tv446[esp+44], edi
	mov	DWORD PTR tv488[esp+44], eax
	npad	9
$LL24@SeparableF@2:

; 39   : 		unsigned char *in = src + y*stride;
; 40   : 		unsigned char *out = dst + y*stride;
; 41   : 		for (int x = 0; x < width; x++) {

	xor	ecx, ecx
	cmp	DWORD PTR _width$[esp+40], ecx
	mov	DWORD PTR _in$133070[esp+44], ebp
	mov	DWORD PTR _x$133072[esp+44], ecx
	jle	$LN12@SeparableF@2
$LL23@SeparableF@2:

; 42   : 			int accum = 0;

	xor	esi, esi

; 43   : 			for (int k = 0; k < kernel_size; k++) {

	cmp	ebx, esi
	mov	DWORD PTR _accum$133076[esp+44], esi
	jle	SHORT $LN5@SeparableF@2
	mov	eax, ebx
	cdq
	sub	eax, edx
	sar	eax, 1
	mov	edi, eax
	mov	eax, ebx
	cdq
	sub	eax, edx
	mov	edx, DWORD PTR _width$[esp+40]
	sar	eax, 1
	neg	edi
	mov	DWORD PTR tv232[esp+44], edi
	sub	edx, eax
	sub	ecx, eax
	add	edi, edi
	npad	2
$LL22@SeparableF@2:

; 44   : 				int xofs = k - kernel_size/2;

	mov	ebx, DWORD PTR tv232[esp+44]
	mov	eax, edi

; 45   : 				if (x+xofs < 0) xofs += width;

	test	ecx, ecx
	jge	SHORT $LN4@SeparableF@2
	mov	ebp, DWORD PTR _width$[esp+40]
	add	ebp, ebp
	mov	ebx, edx
	add	eax, ebp
$LN4@SeparableF@2:

; 46   : 				if (x+xofs >= width) xofs -= width;

	mov	ebp, DWORD PTR _x$133072[esp+44]
	add	ebp, ebx
	mov	ebx, DWORD PTR _width$[esp+40]
	cmp	ebp, ebx
	jl	SHORT $LN3@SeparableF@2
	add	ebx, ebx
	sub	eax, ebx
$LN3@SeparableF@2:

; 47   : 				accum += (int)(in[xofs*PixelDist] * kernel[k]);

	mov	ebp, DWORD PTR _in$133070[esp+44]
	movzx	eax, BYTE PTR [eax+ebp]
	mov	ebx, DWORD PTR _kernel$[esp+40]
	imul	eax, DWORD PTR [ebx+esi*4]
	mov	ebx, DWORD PTR _kernel_size$[esp+40]
	add	DWORD PTR _accum$133076[esp+44], eax
	inc	DWORD PTR tv232[esp+44]
	inc	esi
	add	edi, 2
	inc	ecx
	inc	edx
	cmp	esi, ebx
	jl	SHORT $LL22@SeparableF@2
	mov	edi, DWORD PTR tv446[esp+44]
	mov	ecx, DWORD PTR _x$133072[esp+44]
$LN5@SeparableF@2:

; 48   : 			}
; 49   : 			accum /= divisor;

	mov	eax, DWORD PTR _accum$133076[esp+44]
	cdq
	idiv	DWORD PTR _divisor$[esp+40]

; 50   : 			if (accum > 255) accum = 255;

	cmp	eax, 255				; 000000ffH
	jle	SHORT $LN2@SeparableF@2
	mov	eax, 255				; 000000ffH

; 51   : 			if (accum < 0) accum = 0;

	jmp	SHORT $LN1@SeparableF@2
$LN2@SeparableF@2:
	test	eax, eax
	jge	SHORT $LN1@SeparableF@2
	xor	eax, eax
$LN1@SeparableF@2:

; 39   : 		unsigned char *in = src + y*stride;
; 40   : 		unsigned char *out = dst + y*stride;
; 41   : 		for (int x = 0; x < width; x++) {

	inc	ecx

; 52   : 			*out = (unsigned char)accum;

	mov	BYTE PTR [edi+ebp], al

; 53   : 			in+=PixelDist;

	add	ebp, 2
	cmp	ecx, DWORD PTR _width$[esp+40]
	mov	DWORD PTR _in$133070[esp+44], ebp
	mov	DWORD PTR _x$133072[esp+44], ecx
	jl	$LL23@SeparableF@2

; 39   : 		unsigned char *in = src + y*stride;
; 40   : 		unsigned char *out = dst + y*stride;
; 41   : 		for (int x = 0; x < width; x++) {

	mov	ebp, DWORD PTR tv437[esp+44]
$LN12@SeparableF@2:

; 37   : #pragma omp parallel for
; 38   : 	for (int y = 0; y < height; y++) {

	add	ebp, DWORD PTR _stride$[esp+40]
	sub	DWORD PTR tv488[esp+44], 1
	mov	DWORD PTR tv437[esp+44], ebp
	jne	$LL24@SeparableF@2
	pop	edi
	pop	esi
	pop	ebp
$LN11@SeparableF@2:
	pop	ebx

; 54   : 			out+=PixelDist;
; 55   : 		}
; 56   : 	}
; 57   : }

	add	esp, 28					; 0000001cH
	ret	0
??$SeparableFilterX@$01@@YAXPAE0HHHPAHHH@Z ENDP		; SeparableFilterX<2>
; Function compile flags: /Ogtpy
; File c:\program files (x86)\microsoft visual studio 9.0\vc\include\xutility
_TEXT	ENDS
;	COMDAT ??$max@_K@std@@YAAB_KAB_K0@Z
_TEXT	SEGMENT
??$max@_K@std@@YAAB_KAB_K0@Z PROC			; std::max<unsigned __int64>, COMDAT
; __Left$ = ecx
; __Right$ = eax

; 3358 : 	return (_DEBUG_LT(_Left, _Right) ? _Right : _Left);

	mov	edx, DWORD PTR [ecx+4]
	cmp	edx, DWORD PTR [eax+4]
	ja	SHORT $LN3@max
	jb	SHORT $LN4@max
	mov	edx, DWORD PTR [ecx]
	cmp	edx, DWORD PTR [eax]
	jb	SHORT $LN4@max
$LN3@max:
	mov	eax, ecx
$LN4@max:

; 3359 : 	}

	ret	0
??$max@_K@std@@YAAB_KAB_K0@Z ENDP			; std::max<unsigned __int64>
; Function compile flags: /Ogtpy
; File c:\program files (x86)\microsoft visual studio 9.0\vc\include\utility
_TEXT	ENDS
;	COMDAT ??$?0_J_J@?$pair@_K_K@std@@QAE@ABU?$pair@_J_J@1@@Z
_TEXT	SEGMENT
??$?0_J_J@?$pair@_K_K@std@@QAE@ABU?$pair@_J_J@1@@Z PROC	; std::pair<unsigned __int64,unsigned __int64>::pair<unsigned __int64,unsigned __int64><__int64,__int64>, COMDAT
; _this$ = eax
; __Right$ = ecx

; 49   : 		{	// construct from compatible pair

	mov	edx, DWORD PTR [ecx]
	mov	DWORD PTR [eax], edx
	mov	edx, DWORD PTR [ecx+4]
	mov	DWORD PTR [eax+4], edx
	mov	edx, DWORD PTR [ecx+8]
	mov	DWORD PTR [eax+8], edx
	mov	ecx, DWORD PTR [ecx+12]
	mov	DWORD PTR [eax+12], ecx

; 50   : 		}

	ret	0
??$?0_J_J@?$pair@_K_K@std@@QAE@ABU?$pair@_J_J@1@@Z ENDP	; std::pair<unsigned __int64,unsigned __int64>::pair<unsigned __int64,unsigned __int64><__int64,__int64>
; Function compile flags: /Ogtpy
_TEXT	ENDS
;	COMDAT ??$swap@V_Aux_cont@std@@@std@@YAXAAV_Aux_cont@0@0@Z
_TEXT	SEGMENT
??$swap@V_Aux_cont@std@@@std@@YAXAAV_Aux_cont@0@0@Z PROC ; std::swap<std::_Aux_cont>, COMDAT
; __Left$ = ecx
; __Right$ = eax

; 18   : 	if (&_Left != &_Right)

	cmp	ecx, eax
	je	SHORT $LN1@swap@3

; 19   : 		{	// different, worth swapping
; 20   : 		_Ty _Tmp = _Left;

	mov	edx, DWORD PTR [ecx]
	push	esi

; 21   : 
; 22   : 		_Left = _Right;

	mov	esi, DWORD PTR [eax]
	mov	DWORD PTR [ecx], esi

; 23   : 		_Right = _Tmp;

	mov	DWORD PTR [eax], edx
	pop	esi
$LN1@swap@3:

; 24   : 		}
; 25   : 	}

	ret	0
??$swap@V_Aux_cont@std@@@std@@YAXAAV_Aux_cont@0@0@Z ENDP ; std::swap<std::_Aux_cont>
; Function compile flags: /Ogtpy
_TEXT	ENDS
;	COMDAT ??$swap@PAV_Aux_cont@std@@@std@@YAXAAPAV_Aux_cont@0@0@Z
_TEXT	SEGMENT
??$swap@PAV_Aux_cont@std@@@std@@YAXAAPAV_Aux_cont@0@0@Z PROC ; std::swap<std::_Aux_cont *>, COMDAT
; __Left$ = ecx
; __Right$ = eax

; 18   : 	if (&_Left != &_Right)

	cmp	ecx, eax
	je	SHORT $LN1@swap@4

; 19   : 		{	// different, worth swapping
; 20   : 		_Ty _Tmp = _Left;

	mov	edx, DWORD PTR [ecx]
	push	esi

; 21   : 
; 22   : 		_Left = _Right;

	mov	esi, DWORD PTR [eax]
	mov	DWORD PTR [ecx], esi

; 23   : 		_Right = _Tmp;

	mov	DWORD PTR [eax], edx
	pop	esi
$LN1@swap@4:

; 24   : 		}
; 25   : 	}

	ret	0
??$swap@PAV_Aux_cont@std@@@std@@YAXAAPAV_Aux_cont@0@0@Z ENDP ; std::swap<std::_Aux_cont *>
; Function compile flags: /Ogtpy
; File c:\program files (x86)\microsoft visual studio 9.0\vc\include\xmemory
_TEXT	ENDS
;	COMDAT ?max_size@?$allocator@H@std@@QBEIXZ
_TEXT	SEGMENT
?max_size@?$allocator@H@std@@QBEIXZ PROC		; std::allocator<int>::max_size, COMDAT
; _this$ = ecx

; 165  : 		_SIZT _Count = (_SIZT)(-1) / sizeof (_Ty);
; 166  : 		return (0 < _Count ? _Count : 1);

	mov	eax, 1073741823				; 3fffffffH

; 167  : 		}

	ret	0
?max_size@?$allocator@H@std@@QBEIXZ ENDP		; std::allocator<int>::max_size
; Function compile flags: /Ogtpy
_TEXT	ENDS
;	COMDAT ?deallocate@?$allocator@H@std@@QAEXPAHI@Z
_TEXT	SEGMENT
__Ptr$ = 8						; size = 4
___formal$ = 12						; size = 4
?deallocate@?$allocator@H@std@@QAEXPAHI@Z PROC		; std::allocator<int>::deallocate, COMDAT
; _this$ = ecx

; 140  : 		::operator delete(_Ptr);

	mov	eax, DWORD PTR __Ptr$[esp-4]
	push	eax
	call	??3@YAXPAX@Z				; operator delete
	pop	ecx

; 141  : 		}

	ret	8
?deallocate@?$allocator@H@std@@QAEXPAHI@Z ENDP		; std::allocator<int>::deallocate
; Function compile flags: /Ogtpy
_TEXT	ENDS
;	COMDAT ??0?$allocator@H@std@@QAE@ABV01@@Z
_TEXT	SEGMENT
___formal$ = 8						; size = 4
??0?$allocator@H@std@@QAE@ABV01@@Z PROC			; std::allocator<int>::allocator<int>, COMDAT
; _this$ = ecx

; 123  : 	allocator(const allocator<_Ty>&) _THROW0()

	mov	eax, ecx

; 124  : 		{	// construct by copying (do nothing)
; 125  : 		}

	ret	4
??0?$allocator@H@std@@QAE@ABV01@@Z ENDP			; std::allocator<int>::allocator<int>
; Function compile flags: /Ogtpy
; File c:\program files (x86)\microsoft visual studio 9.0\vc\include\vector
_TEXT	ENDS
;	COMDAT ?_Destroy@?$vector@HV?$allocator@H@std@@@std@@IAEXPAH0@Z
_TEXT	SEGMENT
__First$ = 8						; size = 4
__Last$ = 12						; size = 4
?_Destroy@?$vector@HV?$allocator@H@std@@@std@@IAEXPAH0@Z PROC ; std::vector<int,std::allocator<int> >::_Destroy, COMDAT
; _this$ = ecx

; 1124 : 		_Destroy_range(_First, _Last, this->_Alval);
; 1125 : 		}

	ret	8
?_Destroy@?$vector@HV?$allocator@H@std@@@std@@IAEXPAH0@Z ENDP ; std::vector<int,std::allocator<int> >::_Destroy
; Function compile flags: /Ogtpy
_TEXT	ENDS
;	COMDAT ?max_size@?$vector@HV?$allocator@H@std@@@std@@QBEIXZ
_TEXT	SEGMENT
?max_size@?$vector@HV?$allocator@H@std@@@std@@QBEIXZ PROC ; std::vector<int,std::allocator<int> >::max_size, COMDAT
; _this$ = ecx

; 731  : 		return (this->_Alval.max_size());

	mov	eax, 1073741823				; 3fffffffH

; 732  : 		}

	ret	0
?max_size@?$vector@HV?$allocator@H@std@@@std@@QBEIXZ ENDP ; std::vector<int,std::allocator<int> >::max_size
; Function compile flags: /Ogtpy
; File c:\program files (x86)\microsoft visual studio 9.0\vc\include\xmemory
_TEXT	ENDS
;	COMDAT ?max_size@?$allocator@U?$pair@_K_K@std@@@std@@QBEIXZ
_TEXT	SEGMENT
?max_size@?$allocator@U?$pair@_K_K@std@@@std@@QBEIXZ PROC ; std::allocator<std::pair<unsigned __int64,unsigned __int64> >::max_size, COMDAT

; 165  : 		_SIZT _Count = (_SIZT)(-1) / sizeof (_Ty);
; 166  : 		return (0 < _Count ? _Count : 1);

	mov	eax, 268435455				; 0fffffffH

; 167  : 		}

	ret	0
?max_size@?$allocator@U?$pair@_K_K@std@@@std@@QBEIXZ ENDP ; std::allocator<std::pair<unsigned __int64,unsigned __int64> >::max_size
; Function compile flags: /Ogtpy
_TEXT	ENDS
;	COMDAT ??0?$allocator@U?$pair@_K_K@std@@@std@@QAE@ABV01@@Z
_TEXT	SEGMENT
??0?$allocator@U?$pair@_K_K@std@@@std@@QAE@ABV01@@Z PROC ; std::allocator<std::pair<unsigned __int64,unsigned __int64> >::allocator<std::pair<unsigned __int64,unsigned __int64> >, COMDAT
; _this$ = eax

; 124  : 		{	// construct by copying (do nothing)
; 125  : 		}

	ret	0
??0?$allocator@U?$pair@_K_K@std@@@std@@QAE@ABV01@@Z ENDP ; std::allocator<std::pair<unsigned __int64,unsigned __int64> >::allocator<std::pair<unsigned __int64,unsigned __int64> >
; Function compile flags: /Ogtpy
_TEXT	ENDS
;	COMDAT ??0?$allocator@H@std@@QAE@XZ
_TEXT	SEGMENT
??0?$allocator@H@std@@QAE@XZ PROC			; std::allocator<int>::allocator<int>, COMDAT
; _this$ = ecx

; 119  : 	allocator() _THROW0()

	mov	eax, ecx

; 120  : 		{	// construct default allocator (do nothing)
; 121  : 		}

	ret	0
??0?$allocator@H@std@@QAE@XZ ENDP			; std::allocator<int>::allocator<int>
; Function compile flags: /Ogtpy
; File c:\program files (x86)\microsoft visual studio 9.0\vc\include\vector
_TEXT	ENDS
;	COMDAT ?_Tidy@?$vector@HV?$allocator@H@std@@@std@@IAEXXZ
_TEXT	SEGMENT
?_Tidy@?$vector@HV?$allocator@H@std@@@std@@IAEXXZ PROC	; std::vector<int,std::allocator<int> >::_Tidy, COMDAT
; _this$ = ecx

; 1128 : 		{	// free all storage

	push	esi
	mov	esi, ecx

; 1129 : 		if (_Myfirst != 0)

	mov	eax, DWORD PTR [esi+12]
	test	eax, eax
	je	SHORT $LN4@Tidy

; 1130 : 			{	// something to free, destroy and deallocate it
; 1131 : 
; 1132 :  #if _HAS_ITERATOR_DEBUGGING
; 1133 : 			this->_Orphan_all();
; 1134 :  #endif /* _HAS_ITERATOR_DEBUGGING */
; 1135 : 
; 1136 : 			_Destroy(_Myfirst, _Mylast);
; 1137 : 			this->_Alval.deallocate(_Myfirst, _Myend - _Myfirst);

	push	eax
	call	??3@YAXPAX@Z				; operator delete
	add	esp, 4
$LN4@Tidy:

; 1138 : 			}
; 1139 : 		_Myfirst = 0, _Mylast = 0, _Myend = 0;

	mov	DWORD PTR [esi+12], 0
	mov	DWORD PTR [esi+16], 0
	mov	DWORD PTR [esi+20], 0
	pop	esi

; 1140 : 		}

	ret	0
?_Tidy@?$vector@HV?$allocator@H@std@@@std@@IAEXXZ ENDP	; std::vector<int,std::allocator<int> >::_Tidy
; Function compile flags: /Ogtpy
_TEXT	ENDS
;	COMDAT ?size@?$vector@HV?$allocator@H@std@@@std@@QBEIXZ
_TEXT	SEGMENT
?size@?$vector@HV?$allocator@H@std@@@std@@QBEIXZ PROC	; std::vector<int,std::allocator<int> >::size, COMDAT
; _this$ = ecx

; 726  : 		return (_Mylast - _Myfirst);

	mov	eax, DWORD PTR [ecx+16]
	sub	eax, DWORD PTR [ecx+12]
	sar	eax, 2

; 727  : 		}

	ret	0
?size@?$vector@HV?$allocator@H@std@@@std@@QBEIXZ ENDP	; std::vector<int,std::allocator<int> >::size
; Function compile flags: /Ogtpy
_TEXT	ENDS
;	COMDAT ?capacity@?$vector@HV?$allocator@H@std@@@std@@QBEIXZ
_TEXT	SEGMENT
?capacity@?$vector@HV?$allocator@H@std@@@std@@QBEIXZ PROC ; std::vector<int,std::allocator<int> >::capacity, COMDAT
; _this$ = ecx

; 635  : 		return (_Myfirst == 0 ? 0 : _Myend - _Myfirst);

	mov	edx, DWORD PTR [ecx+12]
	test	edx, edx
	jne	SHORT $LN3@capacity
	xor	eax, eax

; 636  : 		}

	ret	0
$LN3@capacity:

; 635  : 		return (_Myfirst == 0 ? 0 : _Myend - _Myfirst);

	mov	eax, DWORD PTR [ecx+20]
	sub	eax, edx
	sar	eax, 2

; 636  : 		}

	ret	0
?capacity@?$vector@HV?$allocator@H@std@@@std@@QBEIXZ ENDP ; std::vector<int,std::allocator<int> >::capacity
; Function compile flags: /Ogtpy
; File c:\program files (x86)\microsoft visual studio 9.0\vc\include\xmemory
_TEXT	ENDS
;	COMDAT ?deallocate@?$allocator@U?$pair@_K_K@std@@@std@@QAEXPAU?$pair@_K_K@2@I@Z
_TEXT	SEGMENT
?deallocate@?$allocator@U?$pair@_K_K@std@@@std@@QAEXPAU?$pair@_K_K@2@I@Z PROC ; std::allocator<std::pair<unsigned __int64,unsigned __int64> >::deallocate, COMDAT
; __Ptr$ = eax

; 140  : 		::operator delete(_Ptr);

	push	eax
	call	??3@YAXPAX@Z				; operator delete
	pop	ecx

; 141  : 		}

	ret	0
?deallocate@?$allocator@U?$pair@_K_K@std@@@std@@QAEXPAU?$pair@_K_K@2@I@Z ENDP ; std::allocator<std::pair<unsigned __int64,unsigned __int64> >::deallocate
; Function compile flags: /Ogtpy
_TEXT	ENDS
;	COMDAT ??0?$allocator@U?$pair@_K_K@std@@@std@@QAE@XZ
_TEXT	SEGMENT
??0?$allocator@U?$pair@_K_K@std@@@std@@QAE@XZ PROC	; std::allocator<std::pair<unsigned __int64,unsigned __int64> >::allocator<std::pair<unsigned __int64,unsigned __int64> >, COMDAT
; _this$ = eax

; 120  : 		{	// construct default allocator (do nothing)
; 121  : 		}

	ret	0
??0?$allocator@U?$pair@_K_K@std@@@std@@QAE@XZ ENDP	; std::allocator<std::pair<unsigned __int64,unsigned __int64> >::allocator<std::pair<unsigned __int64,unsigned __int64> >
; Function compile flags: /Ogtpy
; File c:\program files (x86)\microsoft visual studio 9.0\vc\include\vector
_TEXT	ENDS
;	COMDAT ?_Destroy@?$vector@U?$pair@_K_K@std@@V?$allocator@U?$pair@_K_K@std@@@2@@std@@IAEXPAU?$pair@_K_K@2@0@Z
_TEXT	SEGMENT
?_Destroy@?$vector@U?$pair@_K_K@std@@V?$allocator@U?$pair@_K_K@std@@@2@@std@@IAEXPAU?$pair@_K_K@2@0@Z PROC ; std::vector<std::pair<unsigned __int64,unsigned __int64>,std::allocator<std::pair<unsigned __int64,unsigned __int64> > >::_Destroy, COMDAT

; 1124 : 		_Destroy_range(_First, _Last, this->_Alval);
; 1125 : 		}

	ret	0
?_Destroy@?$vector@U?$pair@_K_K@std@@V?$allocator@U?$pair@_K_K@std@@@2@@std@@IAEXPAU?$pair@_K_K@2@0@Z ENDP ; std::vector<std::pair<unsigned __int64,unsigned __int64>,std::allocator<std::pair<unsigned __int64,unsigned __int64> > >::_Destroy
; Function compile flags: /Ogtpy
_TEXT	ENDS
;	COMDAT ?max_size@?$vector@U?$pair@_K_K@std@@V?$allocator@U?$pair@_K_K@std@@@2@@std@@QBEIXZ
_TEXT	SEGMENT
?max_size@?$vector@U?$pair@_K_K@std@@V?$allocator@U?$pair@_K_K@std@@@2@@std@@QBEIXZ PROC ; std::vector<std::pair<unsigned __int64,unsigned __int64>,std::allocator<std::pair<unsigned __int64,unsigned __int64> > >::max_size, COMDAT

; 731  : 		return (this->_Alval.max_size());

	mov	eax, 268435455				; 0fffffffH

; 732  : 		}

	ret	0
?max_size@?$vector@U?$pair@_K_K@std@@V?$allocator@U?$pair@_K_K@std@@@2@@std@@QBEIXZ ENDP ; std::vector<std::pair<unsigned __int64,unsigned __int64>,std::allocator<std::pair<unsigned __int64,unsigned __int64> > >::max_size
; Function compile flags: /Ogtpy
_TEXT	ENDS
;	COMDAT ?capacity@?$vector@U?$pair@_K_K@std@@V?$allocator@U?$pair@_K_K@std@@@2@@std@@QBEIXZ
_TEXT	SEGMENT
?capacity@?$vector@U?$pair@_K_K@std@@V?$allocator@U?$pair@_K_K@std@@@2@@std@@QBEIXZ PROC ; std::vector<std::pair<unsigned __int64,unsigned __int64>,std::allocator<std::pair<unsigned __int64,unsigned __int64> > >::capacity, COMDAT
; _this$ = eax

; 635  : 		return (_Myfirst == 0 ? 0 : _Myend - _Myfirst);

	mov	ecx, DWORD PTR [eax+12]
	test	ecx, ecx
	jne	SHORT $LN3@capacity@2
	xor	eax, eax

; 636  : 		}

	ret	0
$LN3@capacity@2:

; 635  : 		return (_Myfirst == 0 ? 0 : _Myend - _Myfirst);

	mov	eax, DWORD PTR [eax+20]
	sub	eax, ecx
	sar	eax, 4

; 636  : 		}

	ret	0
?capacity@?$vector@U?$pair@_K_K@std@@V?$allocator@U?$pair@_K_K@std@@@2@@std@@QBEIXZ ENDP ; std::vector<std::pair<unsigned __int64,unsigned __int64>,std::allocator<std::pair<unsigned __int64,unsigned __int64> > >::capacity
; Function compile flags: /Ogtpy
; File c:\program files (x86)\microsoft visual studio 9.0\vc\include\utility
_TEXT	ENDS
;	COMDAT ??0?$pair@_K_K@std@@QAE@AB_K0@Z
_TEXT	SEGMENT
_this$ = 8						; size = 4
??0?$pair@_K_K@std@@QAE@AB_K0@Z PROC			; std::pair<unsigned __int64,unsigned __int64>::pair<unsigned __int64,unsigned __int64>, COMDAT
; __Val1$ = edx
; __Val2$ = ecx

; 42   : 		{	// construct from specified values

	mov	eax, DWORD PTR _this$[esp-4]
	push	esi
	mov	esi, DWORD PTR [edx]
	mov	DWORD PTR [eax], esi
	mov	edx, DWORD PTR [edx+4]
	mov	DWORD PTR [eax+4], edx
	mov	edx, DWORD PTR [ecx]
	mov	DWORD PTR [eax+8], edx
	mov	ecx, DWORD PTR [ecx+4]
	mov	DWORD PTR [eax+12], ecx
	pop	esi

; 43   : 		}

	ret	4
??0?$pair@_K_K@std@@QAE@AB_K0@Z ENDP			; std::pair<unsigned __int64,unsigned __int64>::pair<unsigned __int64,unsigned __int64>
; Function compile flags: /Ogtpy
_TEXT	ENDS
;	COMDAT ??0?$pair@_J_J@std@@QAE@AB_J0@Z
_TEXT	SEGMENT
_this$ = 8						; size = 4
??0?$pair@_J_J@std@@QAE@AB_J0@Z PROC			; std::pair<__int64,__int64>::pair<__int64,__int64>, COMDAT
; __Val1$ = edx
; __Val2$ = ecx

; 42   : 		{	// construct from specified values

	mov	eax, DWORD PTR _this$[esp-4]
	push	esi
	mov	esi, DWORD PTR [edx]
	mov	DWORD PTR [eax], esi
	mov	edx, DWORD PTR [edx+4]
	mov	DWORD PTR [eax+4], edx
	mov	edx, DWORD PTR [ecx]
	mov	DWORD PTR [eax+8], edx
	mov	ecx, DWORD PTR [ecx+4]
	mov	DWORD PTR [eax+12], ecx
	pop	esi

; 43   : 		}

	ret	4
??0?$pair@_J_J@std@@QAE@AB_J0@Z ENDP			; std::pair<__int64,__int64>::pair<__int64,__int64>
; Function compile flags: /Ogtpy
; File c:\program files (x86)\microsoft visual studio 9.0\vc\include\vector
_TEXT	ENDS
;	COMDAT ?size@?$vector@U?$pair@_K_K@std@@V?$allocator@U?$pair@_K_K@std@@@2@@std@@QBEIXZ
_TEXT	SEGMENT
?size@?$vector@U?$pair@_K_K@std@@V?$allocator@U?$pair@_K_K@std@@@2@@std@@QBEIXZ PROC ; std::vector<std::pair<unsigned __int64,unsigned __int64>,std::allocator<std::pair<unsigned __int64,unsigned __int64> > >::size, COMDAT
; _this$ = ecx

; 726  : 		return (_Mylast - _Myfirst);

	mov	eax, DWORD PTR [ecx+16]
	sub	eax, DWORD PTR [ecx+12]
	sar	eax, 4

; 727  : 		}

	ret	0
?size@?$vector@U?$pair@_K_K@std@@V?$allocator@U?$pair@_K_K@std@@@2@@std@@QBEIXZ ENDP ; std::vector<std::pair<unsigned __int64,unsigned __int64>,std::allocator<std::pair<unsigned __int64,unsigned __int64> > >::size
; Function compile flags: /Ogtpy
; File d:\-=svn=-\svplayer\src\subtitles\rasterizer.cpp
_TEXT	ENDS
;	COMDAT ?safe_subtract@@YAKKK@Z
_TEXT	SEGMENT
_a$ = 8							; size = 4
_b$ = 12						; size = 4
?safe_subtract@@YAKKK@Z PROC				; safe_subtract, COMDAT

; 903  : {

	push	ebp
	mov	ebp, esp

; 904  : 	__m64 ap = _mm_cvtsi32_si64(a);
; 905  : 	__m64 bp = _mm_cvtsi32_si64(b);

	movd	mm1, DWORD PTR _b$[ebp]
	movd	mm0, DWORD PTR _a$[ebp]

; 906  : 	__m64 rp = _mm_subs_pu16(ap, bp);

	psubusw	mm0, mm1

; 907  : 	DWORD r = (DWORD)_mm_cvtsi64_si32(rp);

	movd	eax, mm0

; 908  : 	_mm_empty();

	emms

; 909  : 	return r;
; 910  : 	//return (b > a) ? 0 : a - b;
; 911  : }

	pop	ebp
	ret	0
?safe_subtract@@YAKKK@Z ENDP				; safe_subtract
; Function compile flags: /Ogtpy
_TEXT	ENDS
;	COMDAT ?pixmix2_sse2@@YAXPAKKKK@Z
_TEXT	SEGMENT
_shapealpha$ = 8					; size = 4
_clipalpha$ = 12					; size = 4
?pixmix2_sse2@@YAXPAKKKK@Z PROC				; pixmix2_sse2, COMDAT
; _dst$ = edx
; _color$ = ecx

; 881  : {

	push	ebp
	mov	ebp, esp
	and	esp, -16				; fffffff0H

; 882  : 	int alpha = (((shapealpha)*(clipalpha)*(color>>24))>>12)&0xff;

	mov	eax, ecx
	shr	eax, 24					; 00000018H
	imul	eax, DWORD PTR _shapealpha$[ebp]
	imul	eax, DWORD PTR _clipalpha$[ebp]
	sub	esp, 12					; 0000000cH
	push	esi

; 883  : 	color &= 0xffffff;
; 884  : 
; 885  : 	__m128i zero = _mm_setzero_si128();
; 886  : 	__m128i a = _mm_set1_epi32(((alpha+1) << 16) | (0x100 - alpha));
; 887  : 	__m128i d = _mm_unpacklo_epi8(_mm_cvtsi32_si128(*dst), zero);

	mov	esi, DWORD PTR [edx]
	shr	eax, 12					; 0000000cH
	and	ecx, 16777215				; 00ffffffH
	and	eax, 255				; 000000ffH
	movd	xmm0, esi

; 888  : 	__m128i s = _mm_unpacklo_epi8(_mm_cvtsi32_si128(color), zero);

	movd	xmm2, ecx

; 889  : 	__m128i r = _mm_unpacklo_epi16(d, s);
; 890  : 
; 891  : 	r = _mm_madd_epi16(r, a);
; 892  : 	r = _mm_srli_epi32(r, 8);

	lea	ecx, DWORD PTR [eax+1]
	mov	esi, 256				; 00000100H
	sub	esi, eax
	pxor	xmm1, xmm1
	punpcklbw xmm0, xmm1
	shl	ecx, 16					; 00000010H
	punpcklbw xmm2, xmm1
	or	ecx, esi
	punpcklwd xmm0, xmm2
	movd	xmm1, ecx
	pshufd	xmm1, xmm1, 0
	pmaddwd	xmm0, xmm1
	psrld	xmm0, 8

; 893  : 	r = _mm_packs_epi32(r, r);

	packssdw xmm0, xmm0

; 894  : 	r = _mm_packus_epi16(r, r);

	packuswb xmm0, xmm0

; 895  : 
; 896  : 	*dst = (DWORD)_mm_cvtsi128_si32(r);

	movd	eax, xmm0
	mov	DWORD PTR [edx], eax

; 897  : }

	pop	esi
	mov	esp, ebp
	pop	ebp
	ret	0
?pixmix2_sse2@@YAXPAKKKK@Z ENDP				; pixmix2_sse2
; Function compile flags: /Ogtpy
_TEXT	ENDS
;	COMDAT ?pixmix_sse2@@YAXPAKKK@Z
_TEXT	SEGMENT
_alpha$ = 8						; size = 4
?pixmix_sse2@@YAXPAKKK@Z PROC				; pixmix_sse2, COMDAT
; _dst$ = edx
; _color$ = ecx

; 862  : {

	push	ebp
	mov	ebp, esp
	and	esp, -16				; fffffff0H

; 863  : 	alpha = (((alpha) * (color>>24)) >> 6) & 0xff;

	mov	eax, ecx
	shr	eax, 24					; 00000018H
	imul	eax, DWORD PTR _alpha$[ebp]
	sub	esp, 12					; 0000000cH
	push	esi

; 864  : 	color &= 0xffffff;
; 865  : 
; 866  : 	__m128i zero = _mm_setzero_si128();
; 867  : 	__m128i a = _mm_set1_epi32(((alpha+1) << 16) | (0x100 - alpha));
; 868  : 	__m128i d = _mm_unpacklo_epi8(_mm_cvtsi32_si128(*dst), zero);

	mov	esi, DWORD PTR [edx]
	shr	eax, 6
	and	ecx, 16777215				; 00ffffffH
	and	eax, 255				; 000000ffH
	movd	xmm0, esi

; 869  : 	__m128i s = _mm_unpacklo_epi8(_mm_cvtsi32_si128(color), zero);

	movd	xmm2, ecx

; 870  : 	__m128i r = _mm_unpacklo_epi16(d, s);
; 871  : 
; 872  : 	r = _mm_madd_epi16(r, a);
; 873  : 	r = _mm_srli_epi32(r, 8);

	lea	ecx, DWORD PTR [eax+1]
	mov	esi, 256				; 00000100H
	sub	esi, eax
	pxor	xmm1, xmm1
	punpcklbw xmm0, xmm1
	shl	ecx, 16					; 00000010H
	punpcklbw xmm2, xmm1
	or	ecx, esi
	punpcklwd xmm0, xmm2
	movd	xmm1, ecx
	pshufd	xmm1, xmm1, 0
	pmaddwd	xmm0, xmm1
	psrld	xmm0, 8

; 874  : 	r = _mm_packs_epi32(r, r);

	packssdw xmm0, xmm0

; 875  : 	r = _mm_packus_epi16(r, r);

	packuswb xmm0, xmm0

; 876  : 
; 877  : 	*dst = (DWORD)_mm_cvtsi128_si32(r);

	movd	eax, xmm0
	mov	DWORD PTR [edx], eax

; 878  : }

	pop	esi
	mov	esp, ebp
	pop	ebp
	ret	0
?pixmix_sse2@@YAXPAKKK@Z ENDP				; pixmix_sse2
; Function compile flags: /Ogtpy
_TEXT	ENDS
;	COMDAT ?pixmix2@@YAXPAKKKK@Z
_TEXT	SEGMENT
_dst$ = 8						; size = 4
_shapealpha$ = 12					; size = 4
_clipalpha$ = 16					; size = 4
?pixmix2@@YAXPAKKKK@Z PROC				; pixmix2, COMDAT
; _color$ = edx

; 849  : 	int a = (((shapealpha)*(clipalpha)*(color>>24))>>12)&0xff;
; 850  : 	int ia = 256-a;
; 851  : 	a+=1;
; 852  : 
; 853  : 	*dst = ((((*dst&0x00ff00ff)*ia + (color&0x00ff00ff)*a)&0xff00ff00)>>8)
; 854  : 			| ((((*dst&0x0000ff00)*ia + (color&0x0000ff00)*a)&0x00ff0000)>>8)
; 855  : 			| ((((*dst>>8)&0x00ff0000)*ia)&0xff000000);

	mov	ecx, DWORD PTR _dst$[esp-4]
	mov	ecx, DWORD PTR [ecx]
	mov	eax, edx
	shr	eax, 24					; 00000018H
	imul	eax, DWORD PTR _shapealpha$[esp-4]
	imul	eax, DWORD PTR _clipalpha$[esp-4]
	push	ebx
	push	ebp
	push	esi
	push	edi
	shr	eax, 12					; 0000000cH
	mov	edi, ecx
	and	edi, -65281				; ffff00ffH
	mov	ebx, edx
	and	ebx, -65281				; ffff00ffH
	and	eax, 255				; 000000ffH
	mov	esi, 256				; 00000100H
	sub	esi, eax
	imul	edi, esi
	inc	eax
	imul	ebx, eax
	add	edi, ebx
	mov	ebx, ecx
	and	ebx, 65280				; 0000ff00H
	mov	ebp, edx
	imul	ebx, esi
	and	ebp, 65280				; 0000ff00H
	imul	ebp, eax
	add	ebx, ebp
	xor	edi, ebx
	mov	ebx, ecx
	and	ebx, 16711935				; 00ff00ffH
	and	edx, 16711935				; 00ff00ffH
	imul	ebx, esi
	shr	ecx, 8
	imul	edx, eax
	and	ecx, 16711680				; 00ff0000H
	imul	ecx, esi
	and	edi, 16711680				; 00ff0000H
	add	ebx, edx
	mov	edx, DWORD PTR _dst$[esp+12]
	xor	edi, ebx
	shr	edi, 8
	and	ecx, -16777216				; ff000000H
	or	edi, ecx
	mov	DWORD PTR [edx], edi
	pop	edi
	pop	esi
	pop	ebp
	pop	ebx

; 856  : }

	ret	0
?pixmix2@@YAXPAKKKK@Z ENDP				; pixmix2
; Function compile flags: /Ogtpy
_TEXT	ENDS
;	COMDAT ?pixmix@@YAXPAKKK@Z
_TEXT	SEGMENT
_ia$ = 8						; size = 4
_alpha$ = 8						; size = 4
?pixmix@@YAXPAKKK@Z PROC				; pixmix, COMDAT
; _dst$ = edi
; _color$ = edx

; 837  : 	int a = (((alpha)*(color>>24))>>6)&0xff;
; 838  : 	// Make sure both a and ia are in range 1..256 for the >>8 operations below to be correct
; 839  : 	int ia = 256-a;
; 840  : 	a+=1;
; 841  : 
; 842  : 	*dst = ((((*dst&0x00ff00ff)*ia + (color&0x00ff00ff)*a)&0xff00ff00)>>8)
; 843  : 			| ((((*dst&0x0000ff00)*ia + (color&0x0000ff00)*a)&0x00ff0000)>>8)
; 844  : 			| ((((*dst>>8)&0x00ff0000)*ia)&0xff000000);

	mov	ecx, DWORD PTR [edi]
	mov	eax, edx
	push	ebx
	shr	eax, 24					; 00000018H
	imul	eax, DWORD PTR _alpha$[esp]
	push	ebp
	push	esi
	shr	eax, 6
	mov	ebp, ecx
	and	ebp, 65280				; 0000ff00H
	and	eax, 255				; 000000ffH
	mov	ebx, edx
	and	ebx, 65280				; 0000ff00H
	mov	esi, 256				; 00000100H
	sub	esi, eax
	imul	ebp, esi
	inc	eax
	imul	ebx, eax
	add	ebx, ebp
	mov	DWORD PTR _ia$[esp+8], esi
	mov	ebp, ecx
	and	ebp, -65281				; ffff00ffH
	imul	ebp, DWORD PTR _ia$[esp+8]
	mov	esi, edx
	and	esi, -65281				; ffff00ffH
	imul	esi, eax
	add	esi, ebp
	xor	ebx, esi
	mov	esi, DWORD PTR _ia$[esp+8]
	mov	ebp, ecx
	and	ebp, 16711935				; 00ff00ffH
	imul	ebp, esi
	and	edx, 16711935				; 00ff00ffH
	shr	ecx, 8
	imul	edx, eax
	and	ecx, 16711680				; 00ff0000H
	imul	ecx, esi
	and	ebx, 16711680				; 00ff0000H
	add	ebp, edx
	xor	ebx, ebp
	shr	ebx, 8
	and	ecx, -16777216				; ff000000H
	pop	esi
	or	ebx, ecx
	pop	ebp
	mov	DWORD PTR [edi], ebx
	pop	ebx

; 845  : }

	ret	0
?pixmix@@YAXPAKKK@Z ENDP				; pixmix
_TEXT	ENDS
PUBLIC	?PartialEndPath@Rasterizer@@QAE_NPAUHDC__@@JJ@Z	; Rasterizer::PartialEndPath
; Function compile flags: /Ogtpy
;	COMDAT ?PartialEndPath@Rasterizer@@QAE_NPAUHDC__@@JJ@Z
_TEXT	SEGMENT
_hdc$ = -16						; size = 4
_pNewTypes$128771 = -12					; size = 4
_pNewPoints$128772 = -8					; size = 4
_pTypes$128780 = -4					; size = 4
_dx$ = 8						; size = 4
?PartialEndPath@Rasterizer@@QAE_NPAUHDC__@@JJ@Z PROC	; Rasterizer::PartialEndPath, COMDAT
; _this$ = esi

; 296  : {

	sub	esp, 16					; 00000010H
	push	ebx
	push	ebp
	push	edi

; 323  : 		{
; 324  : 			for(int i = 0; i < nPoints; ++i)

	mov	edi, DWORD PTR _g_hDC
	push	edi

; 336  : 		}
; 337  : 		else
; 338  : 			DebugBreak();

	mov	DWORD PTR _hdc$[esp+32], edi
	call	DWORD PTR __imp__CloseFigure@4
	push	edi
	call	DWORD PTR __imp__EndPath@4
	test	eax, eax
	je	$LN9@PartialEnd
	push	0
	push	0
	push	0
	push	edi
	call	DWORD PTR __imp__GetPath@16
	mov	edi, eax
	test	edi, edi
	je	$LN15@PartialEnd
	mov	eax, DWORD PTR [esi+32]
	mov	ecx, DWORD PTR [esi+24]
	add	eax, edi
	push	eax
	push	ecx
	call	_realloc
	mov	edx, DWORD PTR [esi+32]
	add	edx, edi
	add	edx, edx
	add	edx, edx
	mov	ebx, eax
	mov	eax, DWORD PTR [esi+28]
	add	edx, edx
	push	edx
	push	eax
	mov	DWORD PTR _pNewTypes$128771[esp+44], ebx
	call	_realloc
	add	esp, 16					; 00000010H
	mov	DWORD PTR _pNewPoints$128772[esp+28], eax
	test	ebx, ebx
	je	SHORT $LN7@PartialEnd

; 297  : 	::CloseFigure(hdc);
; 298  : 
; 299  : 	if(::EndPath(hdc))
; 300  : 	{
; 301  : 		int nPoints;
; 302  : 		BYTE* pNewTypes;
; 303  : 		POINT* pNewPoints;
; 304  : 
; 305  : 		nPoints = GetPath(hdc, NULL, NULL, 0);
; 306  : 
; 307  : 		if(!nPoints)
; 308  : 			return true;
; 309  : 
; 310  : 		pNewTypes = (BYTE*)realloc(mpPathTypes, (mPathPoints + nPoints) * sizeof(BYTE));
; 311  : 		pNewPoints = (POINT*)realloc(mpPathPoints, (mPathPoints + nPoints) * sizeof(POINT));
; 312  : 
; 313  : 		if(pNewTypes)
; 314  : 			mpPathTypes = pNewTypes;

	mov	DWORD PTR [esi+24], ebx
$LN7@PartialEnd:

; 315  : 
; 316  : 		if(pNewPoints)

	test	eax, eax
	je	SHORT $LN6@PartialEnd

; 317  : 			mpPathPoints = pNewPoints;

	mov	DWORD PTR [esi+28], eax
$LN6@PartialEnd:

; 318  : 
; 319  : 		BYTE* pTypes = new BYTE[nPoints];

	push	edi
	call	??_U@YAPAXI@Z				; operator new[]
	mov	ebp, eax

; 320  : 		POINT* pPoints = new POINT[nPoints];

	xor	ecx, ecx
	mov	eax, edi
	mov	edx, 8
	mul	edx
	seto	cl
	mov	DWORD PTR _pTypes$128780[esp+32], ebp
	neg	ecx
	or	ecx, eax
	push	ecx
	call	??_U@YAPAXI@Z				; operator new[]
	add	esp, 8

; 321  : 
; 322  : 		if(pNewTypes && pNewPoints && nPoints == GetPath(hdc, pPoints, pTypes, nPoints))

	cmp	DWORD PTR _pNewTypes$128771[esp+28], 0
	mov	ebx, eax
	je	SHORT $LN5@PartialEnd
	cmp	DWORD PTR _pNewPoints$128772[esp+28], 0
	je	SHORT $LN5@PartialEnd
	mov	eax, DWORD PTR _hdc$[esp+28]
	push	edi
	push	ebp
	push	ebx
	push	eax
	call	DWORD PTR __imp__GetPath@16
	cmp	edi, eax
	jne	SHORT $LN5@PartialEnd

; 323  : 		{
; 324  : 			for(int i = 0; i < nPoints; ++i)

	xor	eax, eax
	test	edi, edi
	jle	SHORT $LN2@PartialEnd
	npad	5
$LL14@PartialEnd:

; 325  : 			{
; 326  : 				mpPathPoints[mPathPoints + i].x = pPoints[i].x + dx;

	mov	ecx, DWORD PTR [ebx+eax*8]
	add	ecx, DWORD PTR _dx$[esp+24]
	mov	edx, DWORD PTR [esi+32]
	mov	ebp, DWORD PTR [esi+28]
	add	edx, eax
	mov	DWORD PTR [ebp+edx*8], ecx

; 327  : 				mpPathPoints[mPathPoints + i].y = pPoints[i].y + dy;

	mov	ecx, DWORD PTR [esi+32]
	mov	ebp, DWORD PTR [ebx+eax*8+4]
	mov	edx, DWORD PTR [esi+28]
	add	ecx, eax
	mov	DWORD PTR [edx+ecx*8+4], ebp

; 328  : 				mpPathTypes[mPathPoints + i] = pTypes[i];

	mov	ecx, DWORD PTR [esi+32]
	add	ecx, DWORD PTR [esi+24]
	mov	ebp, DWORD PTR _pTypes$128780[esp+28]
	mov	dl, BYTE PTR [eax+ebp]
	mov	BYTE PTR [ecx+eax], dl
	inc	eax
	cmp	eax, edi
	jl	SHORT $LL14@PartialEnd
$LN2@PartialEnd:

; 329  : 			}
; 330  : 
; 331  : 			mPathPoints += nPoints;

	add	DWORD PTR [esi+32], edi

; 332  : 
; 333  : 			delete[] pTypes;

	push	ebp
	call	??_V@YAXPAX@Z				; operator delete[]

; 334  : 			delete[] pPoints;

	push	ebx
	call	??_V@YAXPAX@Z				; operator delete[]
	add	esp, 8
$LN15@PartialEnd:
	pop	edi
	pop	ebp

; 335  : 			return true;

	mov	al, 1
	pop	ebx

; 347  : }

	add	esp, 16					; 00000010H
	ret	4
$LN5@PartialEnd:

; 336  : 		}
; 337  : 		else
; 338  : 			DebugBreak();

	call	DWORD PTR __imp__DebugBreak@0

; 339  : 
; 340  : 		delete[] pTypes;

	push	ebp
	call	??_V@YAXPAX@Z				; operator delete[]

; 341  : 		delete[] pPoints;

	push	ebx
	call	??_V@YAXPAX@Z				; operator delete[]
	mov	edi, DWORD PTR _hdc$[esp+36]
	add	esp, 8
$LN9@PartialEnd:

; 342  : 	}
; 343  : 
; 344  : 	::AbortPath(hdc);

	push	edi
	call	DWORD PTR __imp__AbortPath@4
	pop	edi
	pop	ebp

; 345  : 
; 346  : 	return false;

	xor	al, al
	pop	ebx

; 347  : }

	add	esp, 16					; 00000010H
	ret	4
?PartialEndPath@Rasterizer@@QAE_NPAUHDC__@@JJ@Z ENDP	; Rasterizer::PartialEndPath
_TEXT	ENDS
PUBLIC	?EndPath@Rasterizer@@QAE_NPAUHDC__@@@Z		; Rasterizer::EndPath
; Function compile flags: /Ogtpy
;	COMDAT ?EndPath@Rasterizer@@QAE_NPAUHDC__@@@Z
_TEXT	SEGMENT
?EndPath@Rasterizer@@QAE_NPAUHDC__@@@Z PROC		; Rasterizer::EndPath, COMDAT
; _this$ = esi

; 265  : {

	push	ebx
	push	edi
	mov	edi, DWORD PTR _g_hDC

; 266  : 	::CloseFigure(hdc);

	push	edi
	call	DWORD PTR __imp__CloseFigure@4

; 267  : 
; 268  : 	if(::EndPath(hdc))

	push	edi
	call	DWORD PTR __imp__EndPath@4
	test	eax, eax
	je	SHORT $LN1@EndPath

; 269  : 	{
; 270  : 		mPathPoints = GetPath(hdc, NULL, NULL, 0);

	mov	ebx, DWORD PTR __imp__GetPath@16
	push	0
	push	0
	push	0
	push	edi
	call	ebx
	mov	DWORD PTR [esi+32], eax

; 271  : 
; 272  : 		if(!mPathPoints)

	test	eax, eax
	jne	SHORT $LN2@EndPath
$LN6@EndPath:
	pop	edi

; 273  : 			return true;

	mov	al, 1
	pop	ebx

; 285  : }

	ret	0
$LN2@EndPath:

; 274  : 
; 275  : 		mpPathTypes = (BYTE*)malloc(sizeof(BYTE) * mPathPoints);

	push	eax
	call	_malloc
	mov	DWORD PTR [esi+24], eax

; 276  : 		mpPathPoints = (POINT*)malloc(sizeof(POINT) * mPathPoints);

	mov	eax, DWORD PTR [esi+32]
	add	eax, eax
	add	eax, eax
	add	eax, eax
	push	eax
	call	_malloc

; 277  : 
; 278  : 		if(mPathPoints == GetPath(hdc, mpPathPoints, mpPathTypes, mPathPoints))

	mov	ecx, DWORD PTR [esi+32]
	mov	edx, DWORD PTR [esi+24]
	add	esp, 8
	push	ecx
	push	edx
	push	eax
	push	edi
	mov	DWORD PTR [esi+28], eax
	call	ebx
	cmp	DWORD PTR [esi+32], eax

; 279  : 			return true;

	je	SHORT $LN6@EndPath
$LN1@EndPath:

; 280  : 	}
; 281  : 
; 282  : 	::AbortPath(hdc);

	push	edi
	call	DWORD PTR __imp__AbortPath@4
	pop	edi

; 283  : 
; 284  : 	return false;

	xor	al, al
	pop	ebx

; 285  : }

	ret	0
?EndPath@Rasterizer@@QAE_NPAUHDC__@@@Z ENDP		; Rasterizer::EndPath
_TEXT	ENDS
PUBLIC	?_ReallocEdgeBuffer@Rasterizer@@AAEXH@Z		; Rasterizer::_ReallocEdgeBuffer
; Function compile flags: /Ogtpy
;	COMDAT ?_ReallocEdgeBuffer@Rasterizer@@AAEXH@Z
_TEXT	SEGMENT
?_ReallocEdgeBuffer@Rasterizer@@AAEXH@Z PROC		; Rasterizer::_ReallocEdgeBuffer, COMDAT
; _this$ = esi
; _edges$ = eax

; 70   : 	mEdgeHeapSize = edges;
; 71   : 	mpEdgeBuffer = (Edge*)realloc(mpEdgeBuffer, sizeof(Edge)*edges);

	mov	ecx, DWORD PTR [esi+96]
	mov	DWORD PTR [esi+100], eax
	add	eax, eax
	add	eax, eax
	add	eax, eax
	push	eax
	push	ecx
	call	_realloc
	add	esp, 8
	mov	DWORD PTR [esi+96], eax

; 72   : }

	ret	0
?_ReallocEdgeBuffer@Rasterizer@@AAEXH@Z ENDP		; Rasterizer::_ReallocEdgeBuffer
_TEXT	ENDS
PUBLIC	?_TrashOverlay@Rasterizer@@AAEXXZ		; Rasterizer::_TrashOverlay
; Function compile flags: /Ogtpy
;	COMDAT ?_TrashOverlay@Rasterizer@@AAEXXZ
_TEXT	SEGMENT
?_TrashOverlay@Rasterizer@@AAEXXZ PROC			; Rasterizer::_TrashOverlay, COMDAT
; _this$ = esi

; 64   : 	delete [] mpOverlayBuffer;

	mov	eax, DWORD PTR [esi+112]
	push	eax
	call	??_V@YAXPAX@Z				; operator delete[]
	add	esp, 4

; 65   : 	mpOverlayBuffer = NULL;

	mov	DWORD PTR [esi+112], 0

; 66   : }

	ret	0
?_TrashOverlay@Rasterizer@@AAEXXZ ENDP			; Rasterizer::_TrashOverlay
_TEXT	ENDS
PUBLIC	?_TrashPath@Rasterizer@@AAEXXZ			; Rasterizer::_TrashPath
; Function compile flags: /Ogtpy
;	COMDAT ?_TrashPath@Rasterizer@@AAEXXZ
_TEXT	SEGMENT
?_TrashPath@Rasterizer@@AAEXXZ PROC			; Rasterizer::_TrashPath, COMDAT
; _this$ = esi

; 55   : 	delete [] mpPathTypes;

	mov	eax, DWORD PTR [esi+24]
	push	eax
	call	??_V@YAXPAX@Z				; operator delete[]

; 56   : 	delete [] mpPathPoints;

	mov	ecx, DWORD PTR [esi+28]
	push	ecx
	call	??_V@YAXPAX@Z				; operator delete[]

; 57   : 	mpPathTypes = NULL;

	xor	eax, eax
	add	esp, 8
	mov	DWORD PTR [esi+24], eax

; 58   : 	mpPathPoints = NULL;

	mov	DWORD PTR [esi+28], eax

; 59   : 	mPathPoints = 0;

	mov	DWORD PTR [esi+32], eax

; 60   : }

	ret	0
?_TrashPath@Rasterizer@@AAEXXZ ENDP			; Rasterizer::_TrashPath
; Function compile flags: /Ogtpy
; File d:\-=svn=-\svplayer\src\subtitles\separablefilter.h
_TEXT	ENDS
;	COMDAT ??1GaussianKernel@@QAE@XZ
_TEXT	SEGMENT
??1GaussianKernel@@QAE@XZ PROC				; GaussianKernel::~GaussianKernel, COMDAT
; _this$ = eax

; 119  : 		delete[] kernel;

	mov	ecx, DWORD PTR [eax]
	push	ecx
	call	??_V@YAXPAX@Z				; operator delete[]
	pop	ecx

; 120  : 	}

	ret	0
??1GaussianKernel@@QAE@XZ ENDP				; GaussianKernel::~GaussianKernel
_TEXT	ENDS
PUBLIC	__real@401921fb54411744
PUBLIC	__real@0000000000000000
EXTRN	__CIsqrt:PROC
EXTRN	__CIexp:PROC
;	COMDAT __real@401921fb54411744
CONST	SEGMENT
__real@401921fb54411744 DQ 0401921fb54411744r	; 6.28319
CONST	ENDS
;	COMDAT __real@0000000000000000
CONST	SEGMENT
__real@0000000000000000 DQ 00000000000000000r	; 0
; Function compile flags: /Ogtpy
CONST	ENDS
;	COMDAT ?NormalDist@@YANNN@Z
_TEXT	SEGMENT
tv67 = -12						; size = 8
_sigma$ = 8						; size = 8
_x$ = 16						; size = 8
?NormalDist@@YANNN@Z PROC				; NormalDist, COMDAT

; 93   : 	if (sigma <= 0 && x == 0) return 1;

	fldz
	sub	esp, 12					; 0000000cH
	fld	QWORD PTR _sigma$[esp+8]
	fcom	ST(1)
	fnstsw	ax
	test	ah, 65					; 00000041H
	jp	SHORT $LN8@NormalDist
	fstp	ST(0)
	fcom	QWORD PTR _x$[esp+8]
	fnstsw	ax
	test	ah, 68					; 00000044H
	jp	SHORT $LN1@NormalDist
	fstp	ST(0)
	fld1

; 96   : }

	add	esp, 12					; 0000000cH
	ret	0
$LN8@NormalDist:

; 93   : 	if (sigma <= 0 && x == 0) return 1;

	fstp	ST(1)

; 94   : 	else if (sigma <= 0) return 0;
; 95   : 	else return exp(-(x*x)/(2*sigma*sigma)) / (sigma * sqrt(2*3.1415926535));

	fld	QWORD PTR _x$[esp+8]
	fmul	ST(0), ST(0)
	fld	ST(1)
	fadd	ST(0), ST(0)
	fmulp	ST(2), ST(0)
	fdivrp	ST(1), ST(0)
	fchs
	call	__CIexp
	fstp	QWORD PTR tv67[esp+12]
	fld	QWORD PTR __real@401921fb54411744
	call	__CIsqrt
	fmul	QWORD PTR _sigma$[esp+8]
	fdivr	QWORD PTR tv67[esp+12]
$LN1@NormalDist:

; 96   : }

	add	esp, 12					; 0000000cH
	ret	0
?NormalDist@@YANNN@Z ENDP				; NormalDist
; Function compile flags: /Ogtpy
; File c:\program files (x86)\microsoft visual studio 9.0\vc\include\xutility
_TEXT	ENDS
;	COMDAT ?_Swap_aux@_Container_base_aux@std@@QAEXAAV12@@Z
_TEXT	SEGMENT
?_Swap_aux@_Container_base_aux@std@@QAEXAAV12@@Z PROC	; std::_Container_base_aux::_Swap_aux, COMDAT
; _this$ = ecx
; __Right$ = eax

; 396  : 		{

	push	esi

; 397  : 		std::swap(_Myownedaux, _Right._Myownedaux);

	cmp	ecx, eax
	je	SHORT $LN3@Swap_aux
	mov	esi, DWORD PTR [eax]
	mov	edx, DWORD PTR [ecx]
	mov	DWORD PTR [ecx], esi
	mov	DWORD PTR [eax], edx
$LN3@Swap_aux:

; 398  : 		std::swap(*_Myownedaux, *_Right._Myownedaux);

	mov	eax, DWORD PTR [eax]
	mov	ecx, DWORD PTR [ecx]
	cmp	ecx, eax
	je	SHORT $LN6@Swap_aux
	mov	esi, DWORD PTR [eax]
	mov	edx, DWORD PTR [ecx]
	mov	DWORD PTR [ecx], esi
	mov	DWORD PTR [eax], edx
$LN6@Swap_aux:
	pop	esi

; 399  : 		}

	ret	0
?_Swap_aux@_Container_base_aux@std@@QAEXAAV12@@Z ENDP	; std::_Container_base_aux::_Swap_aux
; Function compile flags: /Ogtpy
; File c:\program files (x86)\microsoft visual studio 9.0\vc\atlmfc\include\atltypes.inl
_TEXT	ENDS
;	COMDAT ??9CPoint@@QBEHUtagPOINT@@@Z
_TEXT	SEGMENT
_point$ = 8						; size = 8
??9CPoint@@QBEHUtagPOINT@@@Z PROC			; CPoint::operator!=, COMDAT
; _this$ = ecx

; 91   : 	{ return (x != point.x || y != point.y); }

	mov	eax, DWORD PTR [ecx]
	cmp	eax, DWORD PTR _point$[esp-4]
	jne	SHORT $LN3@operator
	mov	ecx, DWORD PTR [ecx+4]
	cmp	ecx, DWORD PTR _point$[esp]
	jne	SHORT $LN3@operator
	xor	eax, eax
	ret	8
$LN3@operator:
	mov	eax, 1
	ret	8
??9CPoint@@QBEHUtagPOINT@@@Z ENDP			; CPoint::operator!=
; Function compile flags: /Ogtpy
_TEXT	ENDS
;	COMDAT ??0CPoint@@QAE@UtagPOINT@@@Z
_TEXT	SEGMENT
_initPt$ = 8						; size = 8
??0CPoint@@QAE@UtagPOINT@@@Z PROC			; CPoint::CPoint, COMDAT
; _this$ = ecx

; 72   : 	{ *(POINT*)this = initPt; }

	mov	edx, DWORD PTR _initPt$[esp]
	mov	eax, ecx
	mov	ecx, DWORD PTR _initPt$[esp-4]
	mov	DWORD PTR [eax], ecx
	mov	DWORD PTR [eax+4], edx
	ret	8
??0CPoint@@QAE@UtagPOINT@@@Z ENDP			; CPoint::CPoint
; Function compile flags: /Ogtpy
; File c:\program files (x86)\microsoft visual studio 9.0\vc\include\algorithm
;	COMDAT ??$_Pop_heap@PAHHH@std@@YAXPAH00H0@Z
_TEXT	SEGMENT
__First$ = 8						; size = 4
__Last$ = 12						; size = 4
__Dest$ = 16						; size = 4
__Val$ = 20						; size = 4
___formal$ = 24						; size = 4
??$_Pop_heap@PAHHH@std@@YAXPAH00H0@Z PROC		; std::_Pop_heap<int *,int,int>, COMDAT

; 2078 : 	*_Dest = *_First;

	mov	eax, DWORD PTR __First$[esp-4]
	mov	ecx, DWORD PTR [eax]
	mov	edx, DWORD PTR __Dest$[esp-4]
	mov	DWORD PTR [edx], ecx

; 2079 : 	std::_Adjust_heap(_First, _Diff(0), _Diff(_Last - _First), _Val);

	mov	edx, DWORD PTR __Last$[esp-4]
	mov	ecx, DWORD PTR __Val$[esp-4]
	push	ecx
	sub	edx, eax
	sar	edx, 2
	push	edx
	push	0
	push	eax
	call	??$_Adjust_heap@PAHHH@std@@YAXPAHHHH@Z	; std::_Adjust_heap<int *,int,int>
	add	esp, 16					; 00000010H

; 2080 : 	}

	ret	0
??$_Pop_heap@PAHHH@std@@YAXPAH00H0@Z ENDP		; std::_Pop_heap<int *,int,int>
; Function compile flags: /Ogtpy
_TEXT	ENDS
;	COMDAT ??$_Pop_heap_0@PAHH@std@@YAXPAH00@Z
_TEXT	SEGMENT
__First$ = 8						; size = 4
__Last$ = 12						; size = 4
___formal$ = 16						; size = 4
??$_Pop_heap_0@PAHH@std@@YAXPAH00@Z PROC		; std::_Pop_heap_0<int *,int>, COMDAT

; 2086 : 	_Pop_heap(_First, _Last - 1, _Last - 1,
; 2087 : 		_Ty(*(_Last - 1)), _Dist_type(_First));

	mov	ecx, DWORD PTR __First$[esp-4]
	mov	eax, DWORD PTR __Last$[esp-4]
	mov	edx, DWORD PTR [eax-4]
	push	esi
	mov	esi, DWORD PTR [ecx]
	mov	DWORD PTR [eax-4], esi
	sub	eax, ecx
	push	edx
	sub	eax, 4
	sar	eax, 2
	push	eax
	push	0
	push	ecx
	call	??$_Adjust_heap@PAHHH@std@@YAXPAHHHH@Z	; std::_Adjust_heap<int *,int,int>
	add	esp, 16					; 00000010H
	pop	esi

; 2088 : 	}

	ret	0
??$_Pop_heap_0@PAHH@std@@YAXPAH00@Z ENDP		; std::_Pop_heap_0<int *,int>
; Function compile flags: /Ogtpy
; File c:\program files (x86)\microsoft visual studio 9.0\vc\include\xutility
_TEXT	ENDS
;	COMDAT ??$unchecked_copy_backward@PAHPAH@stdext@@YAPAHPAH00@Z
_TEXT	SEGMENT
__First$ = 8						; size = 4
__Last$ = 12						; size = 4
__Dest$ = 16						; size = 4
??$unchecked_copy_backward@PAHPAH@stdext@@YAPAHPAH00@Z PROC ; stdext::unchecked_copy_backward<int *,int *>, COMDAT

; 3611 : 		return (_STD _Copy_backward_opt(_CHECKED_BASE(_First), _CHECKED_BASE(_Last), _Dest,
; 3612 : 			_STD _Iter_random(_First, _Dest), _STD _Ptr_cat(_First, _Dest), _STD _Range_checked_iterator_tag()));

	mov	eax, DWORD PTR __Last$[esp-4]
	mov	edx, DWORD PTR __First$[esp-4]
	sub	eax, edx
	sar	eax, 2
	push	esi
	mov	esi, DWORD PTR __Dest$[esp]
	lea	ecx, DWORD PTR [eax*4]
	sub	esi, ecx
	test	eax, eax
	jle	SHORT $LN18@unchecked_@2
	push	ecx
	push	edx
	push	ecx
	push	esi
	call	_memmove_s
	add	esp, 16					; 00000010H
$LN18@unchecked_@2:
	mov	eax, esi
	pop	esi

; 3613 : 	}

	ret	0
??$unchecked_copy_backward@PAHPAH@stdext@@YAPAHPAH00@Z ENDP ; stdext::unchecked_copy_backward<int *,int *>
; Function compile flags: /Ogtpy
; File c:\program files (x86)\microsoft visual studio 9.0\vc\include\algorithm
_TEXT	ENDS
;	COMDAT ??$pop_heap@PAH@std@@YAXPAH0@Z
_TEXT	SEGMENT
__First$ = 8						; size = 4
__Last$ = 12						; size = 4
??$pop_heap@PAH@std@@YAXPAH0@Z PROC			; std::pop_heap<int *>, COMDAT

; 2093 : 	_DEBUG_RANGE(_First, _Last);
; 2094 : 	_DEBUG_HEAP(_First, _Last);
; 2095 : 	if (1 < _Last - _First)

	mov	ecx, DWORD PTR __Last$[esp-4]
	mov	edx, DWORD PTR __First$[esp-4]
	mov	eax, ecx
	sub	eax, edx
	push	esi
	mov	esi, eax
	and	esi, -4					; fffffffcH
	cmp	esi, 4
	jle	SHORT $LN18@pop_heap

; 2096 : 		_Pop_heap_0(_CHECKED_BASE(_First), _CHECKED_BASE(_Last), _Val_type(_First));

	mov	esi, DWORD PTR [ecx-4]
	push	edi
	mov	edi, DWORD PTR [edx]
	add	eax, -4					; fffffffcH
	push	esi
	sar	eax, 2
	push	eax
	push	0
	push	edx
	mov	DWORD PTR [ecx-4], edi
	call	??$_Adjust_heap@PAHHH@std@@YAXPAHHHH@Z	; std::_Adjust_heap<int *,int,int>
	add	esp, 16					; 00000010H
	pop	edi
$LN18@pop_heap:
	pop	esi

; 2097 : 	}

	ret	0
??$pop_heap@PAH@std@@YAXPAH0@Z ENDP			; std::pop_heap<int *>
; Function compile flags: /Ogtpy
_TEXT	ENDS
;	COMDAT ??$_Med3@PAH@std@@YAXPAH00@Z
_TEXT	SEGMENT
__First$ = 8						; size = 4
__Mid$ = 12						; size = 4
__Last$ = 16						; size = 4
??$_Med3@PAH@std@@YAXPAH00@Z PROC			; std::_Med3<int *>, COMDAT

; 2997 : 	if (_DEBUG_LT(*_Mid, *_First))

	mov	eax, DWORD PTR __Mid$[esp-4]
	mov	ecx, DWORD PTR __First$[esp-4]
	mov	edx, DWORD PTR [eax]
	push	esi
	mov	esi, DWORD PTR [ecx]
	cmp	edx, esi
	jge	SHORT $LN8@Med3

; 2998 : 		std::iter_swap(_Mid, _First);

	cmp	eax, ecx
	je	SHORT $LN8@Med3
	mov	DWORD PTR [eax], esi
	mov	DWORD PTR [ecx], edx
$LN8@Med3:

; 2999 : 	if (_DEBUG_LT(*_Last, *_Mid))

	mov	esi, DWORD PTR [eax]
	push	edi
	mov	edi, DWORD PTR __Last$[esp+4]
	mov	edx, DWORD PTR [edi]
	cmp	edx, esi
	jge	SHORT $LN13@Med3

; 3000 : 		std::iter_swap(_Last, _Mid);

	cmp	edi, eax
	je	SHORT $LN13@Med3
	mov	DWORD PTR [edi], esi
	mov	DWORD PTR [eax], edx
$LN13@Med3:

; 3001 : 	if (_DEBUG_LT(*_Mid, *_First))

	mov	edx, DWORD PTR [eax]
	mov	esi, DWORD PTR [ecx]
	cmp	edx, esi
	pop	edi
	jge	SHORT $LN18@Med3

; 3002 : 		std::iter_swap(_Mid, _First);

	cmp	eax, ecx
	je	SHORT $LN18@Med3
	mov	DWORD PTR [eax], esi
	mov	DWORD PTR [ecx], edx
$LN18@Med3:
	pop	esi

; 3003 : 	}

	ret	0
??$_Med3@PAH@std@@YAXPAH00@Z ENDP			; std::_Med3<int *>
; Function compile flags: /Ogtpy
; File c:\program files (x86)\microsoft visual studio 9.0\vc\include\memory
_TEXT	ENDS
;	COMDAT ??$unchecked_uninitialized_copy@PAHPAHV?$allocator@H@std@@@stdext@@YAPAHPAH00AAV?$allocator@H@std@@@Z
_TEXT	SEGMENT
__First$ = 8						; size = 4
__Last$ = 12						; size = 4
__Dest$ = 16						; size = 4
__Al$ = 20						; size = 4
??$unchecked_uninitialized_copy@PAHPAHV?$allocator@H@std@@@stdext@@YAPAHPAH00AAV?$allocator@H@std@@@Z PROC ; stdext::unchecked_uninitialized_copy<int *,int *,std::allocator<int> >, COMDAT

; 810  : 		return (_STD _Uninit_copy(_CHECKED_BASE(_First), _CHECKED_BASE(_Last), _Dest, _Al,
; 811  : 			_STD _Ptr_cat(_First, _Dest), _STD _Range_checked_iterator_tag()));

	mov	eax, DWORD PTR __Last$[esp-4]
	mov	edx, DWORD PTR __First$[esp-4]
	sub	eax, edx
	push	esi
	sar	eax, 2
	push	edi
	mov	edi, DWORD PTR __Dest$[esp+4]
	lea	ecx, DWORD PTR [eax*4]
	lea	esi, DWORD PTR [ecx+edi]
	test	eax, eax
	jbe	SHORT $LN16@unchecked_@3
	push	ecx
	push	edx
	push	ecx
	push	edi
	call	_memmove_s
	add	esp, 16					; 00000010H
$LN16@unchecked_@3:
	pop	edi
	mov	eax, esi
	pop	esi

; 812  : 	}

	ret	0
??$unchecked_uninitialized_copy@PAHPAHV?$allocator@H@std@@@stdext@@YAPAHPAH00AAV?$allocator@H@std@@@Z ENDP ; stdext::unchecked_uninitialized_copy<int *,int *,std::allocator<int> >
; Function compile flags: /Ogtpy
; File c:\program files (x86)\microsoft visual studio 9.0\vc\include\xutility
_TEXT	ENDS
;	COMDAT ??$_Fill_n@PAHIH@std@@YAXPAHIABHUrandom_access_iterator_tag@0@U_Range_checked_iterator_tag@0@@Z
_TEXT	SEGMENT
__First$ = 8						; size = 4
__Count$ = 12						; size = 4
__Val$ = 16						; size = 4
___formal$ = 20						; size = 1
___formal$ = 24						; size = 1
??$_Fill_n@PAHIH@std@@YAXPAHIABHUrandom_access_iterator_tag@0@U_Range_checked_iterator_tag@0@@Z PROC ; std::_Fill_n<int *,unsigned int,int>, COMDAT

; 3225 : 		// if _OutIt is checked, this will ensure we have enough space
; 3226 : 		_OutIt _Last = _First + _Count; (_Last);
; 3227 : 		_Fill_n(_CHECKED_BASE(_First), _Count, _Val,
; 3228 : 			_Range_checked_iterator_tag());

	mov	eax, DWORD PTR __Count$[esp-4]
	mov	ecx, DWORD PTR __First$[esp-4]
	test	eax, eax
	jbe	SHORT $LN7@Fill_n@2
	mov	edx, DWORD PTR __Val$[esp-4]
	push	esi
$LL9@Fill_n@2:
	mov	esi, DWORD PTR [edx]
	mov	DWORD PTR [ecx], esi
	dec	eax
	add	ecx, 4
	test	eax, eax
	ja	SHORT $LL9@Fill_n@2
	pop	esi
$LN7@Fill_n@2:

; 3229 : 	}

	ret	0
??$_Fill_n@PAHIH@std@@YAXPAHIABHUrandom_access_iterator_tag@0@U_Range_checked_iterator_tag@0@@Z ENDP ; std::_Fill_n<int *,unsigned int,int>
; Function compile flags: /Ogtpy
; File c:\program files (x86)\microsoft visual studio 9.0\vc\include\algorithm
_TEXT	ENDS
;	COMDAT ??$_Insertion_sort1@PAHH@std@@YAXPAH00@Z
_TEXT	SEGMENT
__First$ = 8						; size = 4
__Last$ = 12						; size = 4
___formal$ = 16						; size = 4
??$_Insertion_sort1@PAHH@std@@YAXPAH00@Z PROC		; std::_Insertion_sort1<int *,int>, COMDAT

; 2966 : 	if (_First != _Last)

	mov	eax, DWORD PTR __Last$[esp-4]
	push	ebx
	mov	ebx, DWORD PTR __First$[esp]
	cmp	ebx, eax
	je	SHORT $LN6@Insertion_
	push	esi

; 2967 : 		for (_BidIt _Next = _First; ++_Next != _Last; )

	lea	esi, DWORD PTR [ebx+4]
	cmp	esi, eax
	je	SHORT $LN31@Insertion_
	push	ebp
	mov	ebp, 4
	push	edi
	sub	ebp, ebx
	npad	2
$LL7@Insertion_:

; 2968 : 			{	// order next element
; 2969 : 			_BidIt _Next1 = _Next;
; 2970 : 			_Ty _Val = *_Next;

	mov	edi, DWORD PTR [esi]

; 2971 : 
; 2972 : 			if (_DEBUG_LT(_Val, *_First))

	cmp	edi, DWORD PTR [ebx]
	mov	edx, esi
	jge	SHORT $LN5@Insertion_

; 2973 : 				{	// found new earliest element, move to front
; 2974 : 				_STDEXT unchecked_copy_backward(_First, _Next, ++_Next1);

	lea	eax, DWORD PTR [esi+ebp-4]
	sar	eax, 2
	test	eax, eax
	jle	SHORT $LN25@Insertion_
	add	eax, eax
	add	eax, eax
	push	eax
	mov	ecx, esi
	push	ebx
	sub	ecx, eax
	push	eax
	add	ecx, 4
	push	ecx
	call	_memmove_s
	add	esp, 16					; 00000010H
$LN25@Insertion_:

; 2975 : 				*_First = _Val;

	mov	DWORD PTR [ebx], edi

; 2976 : 				}
; 2977 : 			else

	jmp	SHORT $LN4@Insertion_
$LN5@Insertion_:

; 2978 : 				{	// look for insertion point after first
; 2979 : 				for (_BidIt _First1 = _Next1;
; 2980 : 					_DEBUG_LT(_Val, *--_First1);
; 2981 : 					_Next1 = _First1)

	mov	ecx, DWORD PTR [esi-4]
	cmp	edi, ecx
	lea	eax, DWORD PTR [esi-4]
	jge	SHORT $LN1@Insertion_
$LL3@Insertion_:

; 2982 : 					*_Next1 = *_First1;	// move hole down

	mov	DWORD PTR [edx], ecx
	mov	ecx, DWORD PTR [eax-4]
	mov	edx, eax
	sub	eax, 4
	cmp	edi, ecx
	jl	SHORT $LL3@Insertion_
$LN1@Insertion_:

; 2983 : 				*_Next1 = _Val;	// insert element in hole

	mov	DWORD PTR [edx], edi
$LN4@Insertion_:

; 2967 : 		for (_BidIt _Next = _First; ++_Next != _Last; )

	add	esi, 4
	cmp	esi, DWORD PTR __Last$[esp+12]
	jne	SHORT $LL7@Insertion_
	pop	edi
	pop	ebp
$LN31@Insertion_:
	pop	esi
$LN6@Insertion_:
	pop	ebx

; 2984 : 				}
; 2985 : 			}
; 2986 : 	}

	ret	0
??$_Insertion_sort1@PAHH@std@@YAXPAH00@Z ENDP		; std::_Insertion_sort1<int *,int>
; Function compile flags: /Ogtpy
_TEXT	ENDS
;	COMDAT ??$_Sort_heap@PAH@std@@YAXPAH0@Z
_TEXT	SEGMENT
__First$ = 8						; size = 4
__Last$ = 12						; size = 4
??$_Sort_heap@PAH@std@@YAXPAH0@Z PROC			; std::_Sort_heap<int *>, COMDAT

; 2212 : 	{	// order heap by repeatedly popping, using operator<

	push	esi

; 2213 : 	_DEBUG_RANGE(_First, _Last);
; 2214 : 	_DEBUG_HEAP(_First, _Last);
; 2215 : 	for (; 1 < _Last - _First; --_Last)

	mov	esi, DWORD PTR __Last$[esp]
	push	edi
	mov	edi, DWORD PTR __First$[esp+4]
	sub	esi, edi
	mov	eax, esi
	sar	eax, 2
	cmp	eax, 1
	jle	SHORT $LN1@Sort_heap
$LN28@Sort_heap:

; 2216 : 		std::pop_heap(_First, _Last);

	mov	eax, DWORD PTR [edi+esi-4]
	mov	ecx, DWORD PTR [edi]
	push	eax
	lea	edx, DWORD PTR [esi-4]
	sar	edx, 2
	push	edx
	push	0
	push	edi
	mov	DWORD PTR [edi+esi-4], ecx
	call	??$_Adjust_heap@PAHHH@std@@YAXPAHHHH@Z	; std::_Adjust_heap<int *,int,int>
	sub	esi, 4
	mov	eax, esi
	sar	eax, 2
	add	esp, 16					; 00000010H
	cmp	eax, 1
	jg	SHORT $LN28@Sort_heap
$LN1@Sort_heap:
	pop	edi
	pop	esi

; 2217 : 	}

	ret	0
??$_Sort_heap@PAH@std@@YAXPAH0@Z ENDP			; std::_Sort_heap<int *>
; Function compile flags: /Ogtpy
_TEXT	ENDS
;	COMDAT ??$_Median@PAH@std@@YAXPAH00@Z
_TEXT	SEGMENT
tv261 = 8						; size = 4
__First$ = 8						; size = 4
__Mid$ = 12						; size = 4
__Last$ = 16						; size = 4
??$_Median@PAH@std@@YAXPAH00@Z PROC			; std::_Median<int *>, COMDAT

; 3008 : 	if (40 < _Last - _First)

	mov	ecx, DWORD PTR __First$[esp-4]
	push	esi
	push	edi
	mov	edi, DWORD PTR __Last$[esp+4]
	mov	eax, edi
	sub	eax, ecx
	sar	eax, 2
	cmp	eax, 40					; 00000028H
	jle	$LN2@Median

; 3009 : 		{	// median of nine
; 3010 : 		size_t _Step = (_Last - _First + 1) / 8;

	inc	eax
	cdq
	and	edx, 7
	add	eax, edx

; 3011 : 		std::_Med3(_First, _First + _Step, _First + 2 * _Step);

	mov	edx, DWORD PTR [ecx]
	sar	eax, 3
	push	ebx
	push	ebp
	lea	ebp, DWORD PTR [eax*4]
	lea	edi, DWORD PTR [eax*8]
	mov	eax, DWORD PTR [ecx+ebp]
	lea	esi, DWORD PTR [ecx+ebp]
	mov	DWORD PTR tv261[esp+12], edi
	add	edi, ecx
	cmp	eax, edx
	jge	SHORT $LN12@Median
	cmp	esi, ecx
	je	SHORT $LN12@Median
	mov	DWORD PTR [esi], edx
	mov	DWORD PTR [ecx], eax
$LN12@Median:
	mov	eax, DWORD PTR [edi]
	mov	edx, DWORD PTR [esi]
	cmp	eax, edx
	jge	SHORT $LN17@Median
	cmp	edi, esi
	je	SHORT $LN17@Median
	mov	DWORD PTR [edi], edx
	mov	DWORD PTR [esi], eax
$LN17@Median:
	mov	eax, DWORD PTR [esi]
	mov	edx, DWORD PTR [ecx]
	cmp	eax, edx
	jge	SHORT $LN22@Median
	cmp	esi, ecx
	je	SHORT $LN22@Median
	mov	DWORD PTR [esi], edx
	mov	DWORD PTR [ecx], eax
$LN22@Median:

; 3012 : 		std::_Med3(_Mid - _Step, _Mid, _Mid + _Step);

	mov	eax, DWORD PTR __Mid$[esp+12]
	mov	edx, DWORD PTR [eax]
	mov	ecx, eax
	sub	ecx, ebp
	mov	edi, DWORD PTR [ecx]
	cmp	edx, edi
	lea	ebx, DWORD PTR [eax+ebp]
	jge	SHORT $LN32@Median
	cmp	eax, ecx
	je	SHORT $LN32@Median
	mov	DWORD PTR [eax], edi
	mov	DWORD PTR [ecx], edx
$LN32@Median:
	mov	edx, DWORD PTR [ebx]
	mov	edi, DWORD PTR [eax]
	cmp	edx, edi
	jge	SHORT $LN37@Median
	cmp	ebx, eax
	je	SHORT $LN37@Median
	mov	DWORD PTR [ebx], edi
	mov	DWORD PTR [eax], edx
$LN37@Median:
	mov	edx, DWORD PTR [eax]
	mov	edi, DWORD PTR [ecx]
	cmp	edx, edi
	jge	SHORT $LN42@Median
	cmp	eax, ecx
	je	SHORT $LN42@Median
	mov	DWORD PTR [eax], edi
	mov	DWORD PTR [ecx], edx
$LN42@Median:

; 3013 : 		std::_Med3(_Last - 2 * _Step, _Last - _Step, _Last);

	mov	edx, DWORD PTR __Last$[esp+12]
	mov	ecx, edx
	sub	edx, DWORD PTR tv261[esp+12]
	sub	ecx, ebp
	mov	edi, DWORD PTR [ecx]
	mov	ebx, DWORD PTR [edx]
	cmp	edi, ebx
	jge	SHORT $LN52@Median
	cmp	ecx, edx
	je	SHORT $LN52@Median
	mov	DWORD PTR [ecx], ebx
	mov	DWORD PTR [edx], edi
$LN52@Median:
	mov	ebp, DWORD PTR __Last$[esp+12]
	mov	edi, DWORD PTR [ebp]
	mov	ebx, DWORD PTR [ecx]
	cmp	edi, ebx
	jge	SHORT $LN57@Median
	cmp	ebp, ecx
	je	SHORT $LN57@Median
	mov	DWORD PTR [ebp], ebx
	mov	DWORD PTR [ecx], edi
$LN57@Median:
	mov	edi, DWORD PTR [ecx]
	mov	ebx, DWORD PTR [edx]
	cmp	edi, ebx
	jge	SHORT $LN62@Median
	cmp	ecx, edx
	je	SHORT $LN62@Median
	mov	DWORD PTR [ecx], ebx
	mov	DWORD PTR [edx], edi
$LN62@Median:

; 3014 : 		std::_Med3(_First + _Step, _Mid, _Last - _Step);

	mov	edx, DWORD PTR [eax]
	mov	edi, DWORD PTR [esi]
	cmp	edx, edi
	pop	ebp
	pop	ebx
	jge	SHORT $LN72@Median
	cmp	eax, esi
	je	SHORT $LN72@Median
	mov	DWORD PTR [eax], edi
	mov	DWORD PTR [esi], edx
$LN72@Median:
	mov	edx, DWORD PTR [ecx]
	mov	edi, DWORD PTR [eax]
	cmp	edx, edi
	jge	SHORT $LN77@Median
	cmp	ecx, eax
	je	SHORT $LN77@Median
	mov	DWORD PTR [ecx], edi
	mov	DWORD PTR [eax], edx
$LN77@Median:
	mov	ecx, DWORD PTR [eax]
	mov	edx, DWORD PTR [esi]
	cmp	ecx, edx
	jge	SHORT $LN102@Median
	cmp	eax, esi
	je	SHORT $LN102@Median
	mov	DWORD PTR [eax], edx
	pop	edi
	mov	DWORD PTR [esi], ecx
	pop	esi

; 3018 : 	}

	ret	0
$LN2@Median:

; 3015 : 		}
; 3016 : 	else
; 3017 : 		std::_Med3(_First, _Mid, _Last);

	mov	eax, DWORD PTR __Mid$[esp+4]
	mov	edx, DWORD PTR [eax]
	mov	esi, DWORD PTR [ecx]
	cmp	edx, esi
	jge	SHORT $LN92@Median
	cmp	eax, ecx
	je	SHORT $LN92@Median
	mov	DWORD PTR [eax], esi
	mov	DWORD PTR [ecx], edx
$LN92@Median:
	mov	edx, DWORD PTR [edi]
	mov	esi, DWORD PTR [eax]
	cmp	edx, esi
	jge	SHORT $LN97@Median
	cmp	edi, eax
	je	SHORT $LN97@Median
	mov	DWORD PTR [edi], esi
	mov	DWORD PTR [eax], edx
$LN97@Median:
	mov	edx, DWORD PTR [eax]
	mov	esi, DWORD PTR [ecx]
	cmp	edx, esi
	jge	SHORT $LN102@Median
	cmp	eax, ecx
	je	SHORT $LN102@Median
	mov	DWORD PTR [eax], esi
	mov	DWORD PTR [ecx], edx
$LN102@Median:
	pop	edi
	pop	esi

; 3018 : 	}

	ret	0
??$_Median@PAH@std@@YAXPAH00@Z ENDP			; std::_Median<int *>
; Function compile flags: /Ogtpy
; File c:\program files (x86)\microsoft visual studio 9.0\vc\include\xmemory
_TEXT	ENDS
;	COMDAT ??$_Construct@U?$pair@_K_K@std@@U12@@std@@YAXPAU?$pair@_K_K@0@ABU10@@Z
_TEXT	SEGMENT
??$_Construct@U?$pair@_K_K@std@@U12@@std@@YAXPAU?$pair@_K_K@0@ABU10@@Z PROC ; std::_Construct<std::pair<unsigned __int64,unsigned __int64>,std::pair<unsigned __int64,unsigned __int64> >, COMDAT
; __Ptr$ = eax
; __Val$ = ecx

; 51   : 	void _FARQ *_Vptr = _Ptr;
; 52   : 	::new (_Vptr) _T1(_Val);

	test	eax, eax
	je	SHORT $LN3@Construct
	mov	edx, DWORD PTR [ecx]
	mov	DWORD PTR [eax], edx
	mov	edx, DWORD PTR [ecx+4]
	mov	DWORD PTR [eax+4], edx
	mov	edx, DWORD PTR [ecx+8]
	mov	DWORD PTR [eax+8], edx
	mov	ecx, DWORD PTR [ecx+12]
	mov	DWORD PTR [eax+12], ecx
$LN3@Construct:

; 53   : 	}

	ret	0
??$_Construct@U?$pair@_K_K@std@@U12@@std@@YAXPAU?$pair@_K_K@0@ABU10@@Z ENDP ; std::_Construct<std::pair<unsigned __int64,unsigned __int64>,std::pair<unsigned __int64,unsigned __int64> >
; Function compile flags: /Ogtpy
; File c:\program files (x86)\microsoft visual studio 9.0\vc\include\memory
_TEXT	ENDS
;	COMDAT ??$_Uninit_move@PAHPAHV?$allocator@H@std@@U_Undefined_move_tag@2@@std@@YAPAHPAH00AAV?$allocator@H@0@U_Undefined_move_tag@0@U_Range_checked_iterator_tag@0@@Z
_TEXT	SEGMENT
__First$ = 8						; size = 4
__Last$ = 12						; size = 4
__Dest$ = 16						; size = 4
__Al$ = 20						; size = 4
___formal$ = 24						; size = 1
___formal$ = 28						; size = 1
??$_Uninit_move@PAHPAHV?$allocator@H@std@@U_Undefined_move_tag@2@@std@@YAPAHPAH00AAV?$allocator@H@0@U_Undefined_move_tag@0@U_Range_checked_iterator_tag@0@@Z PROC ; std::_Uninit_move<int *,int *,std::allocator<int>,std::_Undefined_move_tag>, COMDAT

; 205  : 	return _STDEXT unchecked_uninitialized_copy(_First, _Last, _Dest, _Al);

	mov	eax, DWORD PTR __Last$[esp-4]
	mov	edx, DWORD PTR __First$[esp-4]
	sub	eax, edx
	push	esi
	sar	eax, 2
	push	edi
	mov	edi, DWORD PTR __Dest$[esp+4]
	lea	ecx, DWORD PTR [eax*4]
	lea	esi, DWORD PTR [ecx+edi]
	test	eax, eax
	jbe	SHORT $LN18@Uninit_mov
	push	ecx
	push	edx
	push	ecx
	push	edi
	call	_memmove_s
	add	esp, 16					; 00000010H
$LN18@Uninit_mov:
	pop	edi
	mov	eax, esi
	pop	esi

; 206  : 	}

	ret	0
??$_Uninit_move@PAHPAHV?$allocator@H@std@@U_Undefined_move_tag@2@@std@@YAPAHPAH00AAV?$allocator@H@0@U_Undefined_move_tag@0@U_Range_checked_iterator_tag@0@@Z ENDP ; std::_Uninit_move<int *,int *,std::allocator<int>,std::_Undefined_move_tag>
; Function compile flags: /Ogtpy
; File c:\program files (x86)\microsoft visual studio 9.0\vc\include\xutility
_TEXT	ENDS
;	COMDAT ??$_Copy_backward_opt@PAU?$pair@_K_K@std@@PAU12@@std@@YAPAU?$pair@_K_K@0@PAU10@00Urandom_access_iterator_tag@0@U_Nonscalar_ptr_iterator_tag@0@U_Range_checked_iterator_tag@0@@Z
_TEXT	SEGMENT
___formal$ = 8						; size = 1
___formal$ = 12						; size = 1
___formal$ = 16						; size = 1
??$_Copy_backward_opt@PAU?$pair@_K_K@std@@PAU12@@std@@YAPAU?$pair@_K_K@0@PAU10@00Urandom_access_iterator_tag@0@U_Nonscalar_ptr_iterator_tag@0@U_Range_checked_iterator_tag@0@@Z PROC ; std::_Copy_backward_opt<std::pair<unsigned __int64,unsigned __int64> *,std::pair<unsigned __int64,unsigned __int64> *>, COMDAT
; __First$ = esi
; __Last$ = ecx
; __Dest$ = edx

; 2660 : 	// if _OutIt is range checked, this will make sure there is enough space for the copy
; 2661 : 	_OutIt _Result = _Dest - (_Last - _First);

	mov	eax, ecx
	sub	eax, esi
	sar	eax, 4
	shl	eax, 4
	push	edi
	mov	edi, eax
	mov	eax, edx
	sub	eax, edi

; 2662 : 	_Copy_backward_opt(_First, _Last, _CHECKED_BASE(_Dest),
; 2663 : 		forward_iterator_tag(), _Nonscalar_ptr_iterator_tag(), _Range_checked_iterator_tag());

	cmp	esi, ecx
	je	SHORT $LN7@Copy_backw@3
	sub	edx, ecx
$LL8@Copy_backw@3:
	mov	edi, DWORD PTR [ecx-16]
	sub	ecx, 16					; 00000010H
	mov	DWORD PTR [edx+ecx], edi
	mov	edi, DWORD PTR [ecx+4]
	mov	DWORD PTR [edx+ecx+4], edi
	mov	edi, DWORD PTR [ecx+8]
	mov	DWORD PTR [edx+ecx+8], edi
	mov	edi, DWORD PTR [ecx+12]
	mov	DWORD PTR [edx+ecx+12], edi
	cmp	ecx, esi
	jne	SHORT $LL8@Copy_backw@3
$LN7@Copy_backw@3:
	pop	edi

; 2664 : 	return _Result;
; 2665 : 	}

	ret	0
??$_Copy_backward_opt@PAU?$pair@_K_K@std@@PAU12@@std@@YAPAU?$pair@_K_K@0@PAU10@00Urandom_access_iterator_tag@0@U_Nonscalar_ptr_iterator_tag@0@U_Range_checked_iterator_tag@0@@Z ENDP ; std::_Copy_backward_opt<std::pair<unsigned __int64,unsigned __int64> *,std::pair<unsigned __int64,unsigned __int64> *>
; Function compile flags: /Ogtpy
_TEXT	ENDS
;	COMDAT ??$unchecked_fill_n@PAHIH@stdext@@YAXPAHIABH@Z
_TEXT	SEGMENT
__First$ = 8						; size = 4
__Count$ = 12						; size = 4
__Val$ = 16						; size = 4
??$unchecked_fill_n@PAHIH@stdext@@YAXPAHIABH@Z PROC	; stdext::unchecked_fill_n<int *,unsigned int,int>, COMDAT

; 3695 : 		_STD _Fill_n(_First, _Count, _Val, _STD _Iter_cat(_First), _STD _Range_checked_iterator_tag());

	mov	eax, DWORD PTR __Count$[esp-4]
	mov	ecx, DWORD PTR __First$[esp-4]
	test	eax, eax
	jbe	SHORT $LN11@unchecked_@4
	mov	edx, DWORD PTR __Val$[esp-4]
	push	esi
$LL13@unchecked_@4:
	mov	esi, DWORD PTR [edx]
	mov	DWORD PTR [ecx], esi
	dec	eax
	add	ecx, 4
	test	eax, eax
	ja	SHORT $LL13@unchecked_@4
	pop	esi
$LN11@unchecked_@4:

; 3696 : 	}

	ret	0
??$unchecked_fill_n@PAHIH@stdext@@YAXPAHIABH@Z ENDP	; stdext::unchecked_fill_n<int *,unsigned int,int>
; Function compile flags: /Ogtpy
; File c:\program files (x86)\microsoft visual studio 9.0\vc\include\algorithm
_TEXT	ENDS
;	COMDAT ??$_Insertion_sort@PAH@std@@YAXPAH0@Z
_TEXT	SEGMENT
__First$ = 8						; size = 4
__Last$ = 12						; size = 4
??$_Insertion_sort@PAH@std@@YAXPAH0@Z PROC		; std::_Insertion_sort<int *>, COMDAT

; 2991 : 	std::_Insertion_sort1(_First, _Last, _Val_type(_First));

	mov	eax, DWORD PTR __Last$[esp-4]
	mov	ecx, DWORD PTR __First$[esp-4]
	push	0
	push	eax
	push	ecx
	call	??$_Insertion_sort1@PAHH@std@@YAXPAH00@Z ; std::_Insertion_sort1<int *,int>
	add	esp, 12					; 0000000cH

; 2992 : 	}

	ret	0
??$_Insertion_sort@PAH@std@@YAXPAH0@Z ENDP		; std::_Insertion_sort<int *>
; Function compile flags: /Ogtpy
_TEXT	ENDS
;	COMDAT ??$sort_heap@PAH@std@@YAXPAH0@Z
_TEXT	SEGMENT
__First$ = 8						; size = 4
__Last$ = 12						; size = 4
??$sort_heap@PAH@std@@YAXPAH0@Z PROC			; std::sort_heap<int *>, COMDAT

; 2222 : 	_DEBUG_HEAP(_First, _Last);
; 2223 : 	_Sort_heap(_CHECKED_BASE(_First), _CHECKED_BASE(_Last));

	jmp	??$_Sort_heap@PAH@std@@YAXPAH0@Z	; std::_Sort_heap<int *>
??$sort_heap@PAH@std@@YAXPAH0@Z ENDP			; std::sort_heap<int *>
; Function compile flags: /Ogtpy
_TEXT	ENDS
;	COMDAT ??$make_heap@PAH@std@@YAXPAH0@Z
_TEXT	SEGMENT
__First$ = 8						; size = 4
__Last$ = 12						; size = 4
??$make_heap@PAH@std@@YAXPAH0@Z PROC			; std::make_heap<int *>, COMDAT

; 2176 : 	_DEBUG_RANGE(_First, _Last);
; 2177 : 	if (1 < _Last - _First)

	mov	eax, DWORD PTR __Last$[esp-4]
	mov	ecx, DWORD PTR __First$[esp-4]
	mov	edx, eax
	sub	edx, ecx
	and	edx, -4					; fffffffcH
	cmp	edx, 4
	jle	SHORT $LN1@make_heap

; 2178 : 		_Make_heap(_CHECKED_BASE(_First), _CHECKED_BASE(_Last),
; 2179 : 			_Dist_type(_First), _Val_type(_First));

	push	0
	push	0
	push	eax
	push	ecx
	call	??$_Make_heap@PAHHH@std@@YAXPAH000@Z	; std::_Make_heap<int *,int,int>
	add	esp, 16					; 00000010H
$LN1@make_heap:

; 2180 : 	}

	ret	0
??$make_heap@PAH@std@@YAXPAH0@Z ENDP			; std::make_heap<int *>
; Function compile flags: /Ogtpy
_TEXT	ENDS
;	COMDAT ??$_Unguarded_partition@PAH@std@@YA?AU?$pair@PAHPAH@0@PAH0@Z
_TEXT	SEGMENT
__Glast$ = -4						; size = 4
___$ReturnUdt$ = 8					; size = 4
__First$ = 12						; size = 4
__Last$ = 16						; size = 4
??$_Unguarded_partition@PAH@std@@YA?AU?$pair@PAHPAH@0@PAH0@Z PROC ; std::_Unguarded_partition<int *>, COMDAT

; 3022 : 	{	// partition [_First, _Last), using operator<

	push	ecx
	push	ebx
	push	ebp

; 3023 : 	_RanIt _Mid = _First + (_Last - _First) / 2;	// sort median to _Mid

	mov	ebp, DWORD PTR __First$[esp+8]
	push	esi
	push	edi
	mov	edi, DWORD PTR __Last$[esp+16]
	mov	eax, edi
	sub	eax, ebp
	sar	eax, 2
	cdq
	sub	eax, edx
	sar	eax, 1
	lea	esi, DWORD PTR [ebp+eax*4]

; 3024 : 	std::_Median(_First, _Mid, _Last - 1);

	lea	eax, DWORD PTR [edi-4]
	push	eax
	push	esi
	push	ebp
	call	??$_Median@PAH@std@@YAXPAH00@Z		; std::_Median<int *>
	add	esp, 12					; 0000000cH

; 3025 : 	_RanIt _Pfirst = _Mid;

	mov	ecx, esi

; 3026 : 	_RanIt _Plast = _Pfirst + 1;

	lea	ebx, DWORD PTR [esi+4]

; 3027 : 
; 3028 : 	while (_First < _Pfirst
; 3029 : 		&& !_DEBUG_LT(*(_Pfirst - 1), *_Pfirst)
; 3030 : 		&& !(*_Pfirst < *(_Pfirst - 1)))

	cmp	ebp, esi
	jae	SHORT $LN69@Unguarded_
$LL27@Unguarded_:
	mov	eax, DWORD PTR [ecx-4]
	mov	edx, DWORD PTR [ecx]
	cmp	edx, eax
	jg	SHORT $LN69@Unguarded_
	jl	SHORT $LN69@Unguarded_
	add	ecx, -4					; fffffffcH
	cmp	ebp, ecx
	jb	SHORT $LL27@Unguarded_
$LN69@Unguarded_:

; 3031 : 		--_Pfirst;
; 3032 : 	while (_Plast < _Last
; 3033 : 		&& !_DEBUG_LT(*_Plast, *_Pfirst)
; 3034 : 		&& !(*_Pfirst < *_Plast))

	cmp	ebx, edi
	jae	SHORT $LN24@Unguarded_
	mov	edx, DWORD PTR [ecx]
	npad	4
$LL25@Unguarded_:
	mov	eax, DWORD PTR [ebx]
	cmp	edx, eax
	jg	SHORT $LN24@Unguarded_
	jl	SHORT $LN24@Unguarded_

; 3035 : 		++_Plast;

	add	ebx, 4
	cmp	ebx, edi
	jb	SHORT $LL25@Unguarded_
$LN24@Unguarded_:

; 3036 : 
; 3037 : 	_RanIt _Gfirst = _Plast;
; 3038 : 	_RanIt _Glast = _Pfirst;

	mov	ebp, ecx
	mov	eax, ebx
	mov	DWORD PTR __Glast$[esp+20], ebp
$LL23@Unguarded_:

; 3039 : 
; 3040 : 	for (; ; )
; 3041 : 		{	// partition
; 3042 : 		for (; _Gfirst < _Last; ++_Gfirst)

	cmp	eax, edi
	jae	SHORT $LN73@Unguarded_
	npad	5
$LL21@Unguarded_:

; 3043 : 			if (_DEBUG_LT(*_Pfirst, *_Gfirst))

	mov	esi, DWORD PTR [eax]
	mov	edx, DWORD PTR [ecx]
	cmp	esi, edx
	jg	SHORT $LN20@Unguarded_

; 3044 : 				;
; 3045 : 			else if (*_Gfirst < *_Pfirst)

	jl	SHORT $LN73@Unguarded_

; 3046 : 				break;
; 3047 : 			else
; 3048 : 				std::iter_swap(_Plast++, _Gfirst);

	mov	edx, ebx
	add	ebx, 4
	cmp	edx, eax
	je	SHORT $LN20@Unguarded_
	mov	edi, DWORD PTR [edx]
	mov	DWORD PTR [edx], esi
	mov	DWORD PTR [eax], edi
	mov	edi, DWORD PTR __Last$[esp+16]
$LN20@Unguarded_:
	add	eax, 4
	cmp	eax, edi
	jb	SHORT $LL21@Unguarded_
$LN73@Unguarded_:

; 3049 : 		for (; _First < _Glast; --_Glast)

	cmp	ebp, DWORD PTR __First$[esp+16]
	jbe	SHORT $LN85@Unguarded_
	lea	edx, DWORD PTR [ebp-4]
	npad	3
$LL14@Unguarded_:

; 3050 : 			if (_DEBUG_LT(*(_Glast - 1), *_Pfirst))

	mov	esi, DWORD PTR [edx]
	mov	edi, DWORD PTR [ecx]
	cmp	edi, esi
	jg	SHORT $LN13@Unguarded_

; 3051 : 				;
; 3052 : 			else if (*_Pfirst < *(_Glast - 1))

	jl	SHORT $LN84@Unguarded_

; 3053 : 				break;
; 3054 : 			else
; 3055 : 				std::iter_swap(--_Pfirst, _Glast - 1);

	sub	ecx, 4
	cmp	ecx, edx
	je	SHORT $LN13@Unguarded_
	mov	edi, DWORD PTR [edx]
	mov	esi, DWORD PTR [ecx]
	mov	DWORD PTR [ecx], edi
	mov	DWORD PTR [edx], esi
$LN13@Unguarded_:
	sub	ebp, 4
	sub	edx, 4
	cmp	DWORD PTR __First$[esp+16], ebp
	jb	SHORT $LL14@Unguarded_
$LN84@Unguarded_:

; 3049 : 		for (; _First < _Glast; --_Glast)

	mov	edi, DWORD PTR __Last$[esp+16]

; 3056 : 		if (_Glast == _First && _Gfirst == _Last)

	cmp	ebp, DWORD PTR __First$[esp+16]
	mov	DWORD PTR __Glast$[esp+20], ebp
$LN85@Unguarded_:
	jne	SHORT $LN6@Unguarded_
	cmp	eax, edi
	je	$LN75@Unguarded_

; 3058 : 
; 3059 : 		if (_Glast == _First)
; 3060 : 			{	// no room at bottom, rotate pivot upward
; 3061 : 			if (_Plast != _Gfirst)

	cmp	ebx, eax
	je	SHORT $LN44@Unguarded_

; 3062 : 				std::iter_swap(_Pfirst, _Plast);

	cmp	ecx, ebx
	je	SHORT $LN44@Unguarded_
	mov	esi, DWORD PTR [ebx]
	mov	edx, DWORD PTR [ecx]
	mov	DWORD PTR [ecx], esi
	mov	DWORD PTR [ebx], edx
$LN44@Unguarded_:

; 3063 : 			++_Plast;
; 3064 : 			std::iter_swap(_Pfirst++, _Gfirst++);

	mov	edx, eax
	mov	esi, ecx
	add	ebx, 4
	add	ecx, 4
	add	eax, 4
	cmp	esi, edx
	je	$LL23@Unguarded_
	mov	ebp, DWORD PTR [edx]
	mov	edi, DWORD PTR [esi]
	mov	DWORD PTR [esi], ebp
	mov	ebp, DWORD PTR __Glast$[esp+20]
	mov	DWORD PTR [edx], edi
	mov	edi, DWORD PTR __Last$[esp+16]
	jmp	$LL23@Unguarded_
$LN6@Unguarded_:

; 3065 : 			}
; 3066 : 		else if (_Gfirst == _Last)
; 3067 : 			{	// no room at top, rotate pivot downward
; 3068 : 			if (--_Glast != --_Pfirst)

	sub	ebp, 4
	mov	DWORD PTR __Glast$[esp+20], ebp
	cmp	eax, edi
	jne	SHORT $LN3@Unguarded_
	sub	ecx, 4
	cmp	ebp, ecx
	je	SHORT $LN54@Unguarded_

; 3069 : 				std::iter_swap(_Glast, _Pfirst);

	mov	esi, DWORD PTR [ecx]
	mov	edx, DWORD PTR [ebp]
	mov	DWORD PTR [ebp], esi
	mov	DWORD PTR [ecx], edx
$LN54@Unguarded_:

; 3070 : 			std::iter_swap(_Pfirst, --_Plast);

	sub	ebx, 4
	cmp	ecx, ebx
	je	$LL23@Unguarded_
	mov	esi, DWORD PTR [ebx]
	mov	edx, DWORD PTR [ecx]
	mov	DWORD PTR [ecx], esi
	mov	DWORD PTR [ebx], edx

; 3071 : 			}
; 3072 : 		else

	jmp	$LL23@Unguarded_
$LN3@Unguarded_:

; 3073 : 			std::iter_swap(_Gfirst++, --_Glast);

	cmp	eax, ebp
	je	SHORT $LN64@Unguarded_
	mov	esi, DWORD PTR [ebp]
	mov	edx, DWORD PTR [eax]
	mov	DWORD PTR [eax], esi
	mov	DWORD PTR [ebp], edx
$LN64@Unguarded_:
	add	eax, 4

; 3074 : 		}

	jmp	$LL23@Unguarded_
$LN75@Unguarded_:

; 3057 : 			return (pair<_RanIt, _RanIt>(_Pfirst, _Plast));

	mov	eax, DWORD PTR ___$ReturnUdt$[esp+16]
	pop	edi
	pop	esi
	pop	ebp
	mov	DWORD PTR [eax+4], ebx
	mov	DWORD PTR [eax], ecx
	pop	ebx

; 3075 : 	}

	pop	ecx
	ret	0
??$_Unguarded_partition@PAH@std@@YA?AU?$pair@PAHPAH@0@PAH0@Z ENDP ; std::_Unguarded_partition<int *>
; Function compile flags: /Ogtpy
; File c:\program files (x86)\microsoft visual studio 9.0\vc\include\xmemory
_TEXT	ENDS
;	COMDAT ?construct@?$allocator@U?$pair@_K_K@std@@@std@@QAEXPAU?$pair@_K_K@2@ABU32@@Z
_TEXT	SEGMENT
?construct@?$allocator@U?$pair@_K_K@std@@@std@@QAEXPAU?$pair@_K_K@2@ABU32@@Z PROC ; std::allocator<std::pair<unsigned __int64,unsigned __int64> >::construct, COMDAT
; __Ptr$ = eax
; __Val$ = ecx

; 155  : 		_Construct(_Ptr, _Val);

	test	eax, eax
	je	SHORT $LN5@construct
	mov	edx, DWORD PTR [ecx]
	mov	DWORD PTR [eax], edx
	mov	edx, DWORD PTR [ecx+4]
	mov	DWORD PTR [eax+4], edx
	mov	edx, DWORD PTR [ecx+8]
	mov	DWORD PTR [eax+8], edx
	mov	ecx, DWORD PTR [ecx+12]
	mov	DWORD PTR [eax+12], ecx
$LN5@construct:

; 156  : 		}

	ret	0
?construct@?$allocator@U?$pair@_K_K@std@@@std@@QAEXPAU?$pair@_K_K@2@ABU32@@Z ENDP ; std::allocator<std::pair<unsigned __int64,unsigned __int64> >::construct
; Function compile flags: /Ogtpy
; File c:\program files (x86)\microsoft visual studio 9.0\vc\include\xutility
_TEXT	ENDS
;	COMDAT ??$_Move_backward_opt@PAHPAHUrandom_access_iterator_tag@std@@U_Undefined_move_tag@2@@std@@YAPAHPAH00Urandom_access_iterator_tag@0@U_Undefined_move_tag@0@U_Range_checked_iterator_tag@0@@Z
_TEXT	SEGMENT
__First$ = 8						; size = 4
__Last$ = 12						; size = 4
__Dest$ = 16						; size = 4
__First_dest_cat$ = 20					; size = 1
___formal$ = 24						; size = 1
___formal$ = 28						; size = 1
??$_Move_backward_opt@PAHPAHUrandom_access_iterator_tag@std@@U_Undefined_move_tag@2@@std@@YAPAHPAH00Urandom_access_iterator_tag@0@U_Undefined_move_tag@0@U_Range_checked_iterator_tag@0@@Z PROC ; std::_Move_backward_opt<int *,int *,std::random_access_iterator_tag,std::_Undefined_move_tag>, COMDAT

; 2727 : 	return _Copy_backward_opt(_First, _Last, _Dest,
; 2728 : 		_First_dest_cat, _Ptr_cat(_First, _Dest), _Range_checked_iterator_tag());

	mov	eax, DWORD PTR __Last$[esp-4]
	mov	edx, DWORD PTR __First$[esp-4]
	sub	eax, edx
	sar	eax, 2
	push	esi
	mov	esi, DWORD PTR __Dest$[esp]
	lea	ecx, DWORD PTR [eax*4]
	sub	esi, ecx
	test	eax, eax
	jle	SHORT $LN8@Move_backw
	push	ecx
	push	edx
	push	ecx
	push	esi
	call	_memmove_s
	add	esp, 16					; 00000010H
$LN8@Move_backw:
	mov	eax, esi
	pop	esi

; 2729 : 	}

	ret	0
??$_Move_backward_opt@PAHPAHUrandom_access_iterator_tag@std@@U_Undefined_move_tag@2@@std@@YAPAHPAH00Urandom_access_iterator_tag@0@U_Undefined_move_tag@0@U_Range_checked_iterator_tag@0@@Z ENDP ; std::_Move_backward_opt<int *,int *,std::random_access_iterator_tag,std::_Undefined_move_tag>
; Function compile flags: /Ogtpy
; File c:\program files (x86)\microsoft visual studio 9.0\vc\include\memory
_TEXT	ENDS
;	COMDAT ??$_Unchecked_uninitialized_move@PAHPAHV?$allocator@H@std@@@stdext@@YAPAHPAH00AAV?$allocator@H@std@@@Z
_TEXT	SEGMENT
__First$ = 8						; size = 4
__Last$ = 12						; size = 4
__Dest$ = 16						; size = 4
__Al$ = 20						; size = 4
??$_Unchecked_uninitialized_move@PAHPAHV?$allocator@H@std@@@stdext@@YAPAHPAH00AAV?$allocator@H@std@@@Z PROC ; stdext::_Unchecked_uninitialized_move<int *,int *,std::allocator<int> >, COMDAT

; 850  : 		return (_STD _Uninit_move(_CHECKED_BASE(_First), _CHECKED_BASE(_Last), _Dest, _Al,
; 851  : 			_STD _Move_cat(_Dest), _STD _Range_checked_iterator_tag()));

	mov	eax, DWORD PTR __Last$[esp-4]
	mov	edx, DWORD PTR __First$[esp-4]
	sub	eax, edx
	push	esi
	sar	eax, 2
	push	edi
	mov	edi, DWORD PTR __Dest$[esp+4]
	lea	ecx, DWORD PTR [eax*4]
	lea	esi, DWORD PTR [ecx+edi]
	test	eax, eax
	jbe	SHORT $LN30@Unchecked_
	push	ecx
	push	edx
	push	ecx
	push	edi
	call	_memmove_s
	add	esp, 16					; 00000010H
$LN30@Unchecked_:
	pop	edi
	mov	eax, esi
	pop	esi

; 852  : 	}

	ret	0
??$_Unchecked_uninitialized_move@PAHPAHV?$allocator@H@std@@@stdext@@YAPAHPAH00AAV?$allocator@H@std@@@Z ENDP ; stdext::_Unchecked_uninitialized_move<int *,int *,std::allocator<int> >
; Function compile flags: /Ogtpy
; File c:\program files (x86)\microsoft visual studio 9.0\vc\include\xutility
_TEXT	ENDS
;	COMDAT ??$_Move_backward_opt@PAU?$pair@_K_K@std@@PAU12@Urandom_access_iterator_tag@2@U_Undefined_move_tag@2@@std@@YAPAU?$pair@_K_K@0@PAU10@00Urandom_access_iterator_tag@0@U_Undefined_move_tag@0@U_Range_checked_iterator_tag@0@@Z
_TEXT	SEGMENT
__First_dest_cat$ = 8					; size = 1
___formal$ = 12						; size = 1
___formal$ = 16						; size = 1
??$_Move_backward_opt@PAU?$pair@_K_K@std@@PAU12@Urandom_access_iterator_tag@2@U_Undefined_move_tag@2@@std@@YAPAU?$pair@_K_K@0@PAU10@00Urandom_access_iterator_tag@0@U_Undefined_move_tag@0@U_Range_checked_iterator_tag@0@@Z PROC ; std::_Move_backward_opt<std::pair<unsigned __int64,unsigned __int64> *,std::pair<unsigned __int64,unsigned __int64> *,std::random_access_iterator_tag,std::_Undefined_move_tag>, COMDAT
; __First$ = esi
; __Last$ = ecx
; __Dest$ = edx

; 2727 : 	return _Copy_backward_opt(_First, _Last, _Dest,
; 2728 : 		_First_dest_cat, _Ptr_cat(_First, _Dest), _Range_checked_iterator_tag());

	mov	eax, ecx
	sub	eax, esi
	sar	eax, 4
	shl	eax, 4
	push	edi
	mov	edi, eax
	mov	eax, edx
	sub	eax, edi
	cmp	esi, ecx
	je	SHORT $LN11@Move_backw@2
	sub	edx, ecx
$LL12@Move_backw@2:
	mov	edi, DWORD PTR [ecx-16]
	sub	ecx, 16					; 00000010H
	mov	DWORD PTR [edx+ecx], edi
	mov	edi, DWORD PTR [ecx+4]
	mov	DWORD PTR [edx+ecx+4], edi
	mov	edi, DWORD PTR [ecx+8]
	mov	DWORD PTR [edx+ecx+8], edi
	mov	edi, DWORD PTR [ecx+12]
	mov	DWORD PTR [edx+ecx+12], edi
	cmp	ecx, esi
	jne	SHORT $LL12@Move_backw@2
$LN11@Move_backw@2:
	pop	edi

; 2729 : 	}

	ret	0
??$_Move_backward_opt@PAU?$pair@_K_K@std@@PAU12@Urandom_access_iterator_tag@2@U_Undefined_move_tag@2@@std@@YAPAU?$pair@_K_K@0@PAU10@00Urandom_access_iterator_tag@0@U_Undefined_move_tag@0@U_Range_checked_iterator_tag@0@@Z ENDP ; std::_Move_backward_opt<std::pair<unsigned __int64,unsigned __int64> *,std::pair<unsigned __int64,unsigned __int64> *,std::random_access_iterator_tag,std::_Undefined_move_tag>
; Function compile flags: /Ogtpy
; File c:\program files (x86)\microsoft visual studio 9.0\vc\include\memory
_TEXT	ENDS
;	COMDAT ??$_Uninit_fill_n@PAHIHV?$allocator@H@std@@@std@@YAXPAHIABHAAV?$allocator@H@0@U_Scalar_ptr_iterator_tag@0@U_Range_checked_iterator_tag@0@@Z
_TEXT	SEGMENT
__First$ = 8						; size = 4
__Count$ = 12						; size = 4
__Val$ = 16						; size = 4
___formal$ = 20						; size = 4
___formal$ = 24						; size = 1
___formal$ = 28						; size = 1
??$_Uninit_fill_n@PAHIHV?$allocator@H@std@@@std@@YAXPAHIABHAAV?$allocator@H@0@U_Scalar_ptr_iterator_tag@0@U_Range_checked_iterator_tag@0@@Z PROC ; std::_Uninit_fill_n<int *,unsigned int,int,std::allocator<int> >, COMDAT

; 415  : 		_STDEXT unchecked_fill_n(_First, _Count, _Val);

	mov	eax, DWORD PTR __Count$[esp-4]
	mov	ecx, DWORD PTR __First$[esp-4]
	test	eax, eax
	jbe	SHORT $LN13@Uninit_fil
	mov	edx, DWORD PTR __Val$[esp-4]
	push	esi
$LL15@Uninit_fil:
	mov	esi, DWORD PTR [edx]
	mov	DWORD PTR [ecx], esi
	dec	eax
	add	ecx, 4
	test	eax, eax
	ja	SHORT $LL15@Uninit_fil
	pop	esi
$LN13@Uninit_fil:

; 416  : 	}

	ret	0
??$_Uninit_fill_n@PAHIHV?$allocator@H@std@@@std@@YAXPAHIABHAAV?$allocator@H@0@U_Scalar_ptr_iterator_tag@0@U_Range_checked_iterator_tag@0@@Z ENDP ; std::_Uninit_fill_n<int *,unsigned int,int,std::allocator<int> >
; Function compile flags: /Ogtpy
_TEXT	ENDS
;	COMDAT ??$_Uninit_fill_n@PAU?$pair@_K_K@std@@IU12@V?$allocator@U?$pair@_K_K@std@@@2@@std@@YAXPAU?$pair@_K_K@0@IABU10@AAV?$allocator@U?$pair@_K_K@std@@@0@U_Nonscalar_ptr_iterator_tag@0@U_Range_checked_iterator_tag@0@@Z
_TEXT	SEGMENT
__First$ = 8						; size = 4
___formal$ = 12						; size = 1
___formal$ = 16						; size = 1
??$_Uninit_fill_n@PAU?$pair@_K_K@std@@IU12@V?$allocator@U?$pair@_K_K@std@@@2@@std@@YAXPAU?$pair@_K_K@0@IABU10@AAV?$allocator@U?$pair@_K_K@std@@@0@U_Nonscalar_ptr_iterator_tag@0@U_Range_checked_iterator_tag@0@@Z PROC ; std::_Uninit_fill_n<std::pair<unsigned __int64,unsigned __int64> *,unsigned int,std::pair<unsigned __int64,unsigned __int64>,std::allocator<std::pair<unsigned __int64,unsigned __int64> > >, COMDAT
; __Count$ = ecx
; __Val$ = edx

; 389  : 	{	// copy _Count *_Val to raw _First, using _Al, arbitrary type

	mov	eax, DWORD PTR __First$[esp-4]

; 390  : 
; 391  :  #if _HAS_ITERATOR_DEBUGGING
; 392  : //	if (_Count < 0)
; 393  : //		_DEBUG_ERROR("negative count in uninitialized fill");
; 394  :  #endif /* _HAS_ITERATOR_DEBUGGING */
; 395  : 
; 396  : 	_FwdIt _Next = _First;
; 397  : 
; 398  : 	_TRY_BEGIN
; 399  : 	for (; 0 < _Count; --_Count, ++_First)

	test	ecx, ecx
	jbe	SHORT $LN4@Uninit_fil@2
	push	esi
	npad	7
$LL6@Uninit_fil@2:

; 400  : 		_Al.construct(_First, _Val);

	test	eax, eax
	je	SHORT $LN5@Uninit_fil@2
	mov	esi, DWORD PTR [edx]
	mov	DWORD PTR [eax], esi
	mov	esi, DWORD PTR [edx+4]
	mov	DWORD PTR [eax+4], esi
	mov	esi, DWORD PTR [edx+8]
	mov	DWORD PTR [eax+8], esi
	mov	esi, DWORD PTR [edx+12]
	mov	DWORD PTR [eax+12], esi
$LN5@Uninit_fil@2:
	dec	ecx
	add	eax, 16					; 00000010H
	test	ecx, ecx
	ja	SHORT $LL6@Uninit_fil@2
	pop	esi
$LN4@Uninit_fil@2:

; 401  : 	_CATCH_ALL
; 402  : 	for (; _Next != _First; ++_Next)
; 403  : 		_Al.destroy(_Next);
; 404  : 	_RERAISE;
; 405  : 	_CATCH_END
; 406  : 	}

	ret	0
??$_Uninit_fill_n@PAU?$pair@_K_K@std@@IU12@V?$allocator@U?$pair@_K_K@std@@@2@@std@@YAXPAU?$pair@_K_K@0@IABU10@AAV?$allocator@U?$pair@_K_K@std@@@0@U_Nonscalar_ptr_iterator_tag@0@U_Range_checked_iterator_tag@0@@Z ENDP ; std::_Uninit_fill_n<std::pair<unsigned __int64,unsigned __int64> *,unsigned int,std::pair<unsigned __int64,unsigned __int64>,std::allocator<std::pair<unsigned __int64,unsigned __int64> > >
; Function compile flags: /Ogtpy
; File c:\program files (x86)\microsoft visual studio 9.0\vc\include\xutility
_TEXT	ENDS
;	COMDAT ??$_Copy_opt@PAU?$pair@_K_K@std@@PAU12@@std@@YAPAU?$pair@_K_K@0@PAU10@00Urandom_access_iterator_tag@0@U_Nonscalar_ptr_iterator_tag@0@U_Range_checked_iterator_tag@0@@Z
_TEXT	SEGMENT
___formal$ = 8						; size = 1
___formal$ = 12						; size = 1
___formal$ = 16						; size = 1
??$_Copy_opt@PAU?$pair@_K_K@std@@PAU12@@std@@YAPAU?$pair@_K_K@0@PAU10@00Urandom_access_iterator_tag@0@U_Nonscalar_ptr_iterator_tag@0@U_Range_checked_iterator_tag@0@@Z PROC ; std::_Copy_opt<std::pair<unsigned __int64,unsigned __int64> *,std::pair<unsigned __int64,unsigned __int64> *>, COMDAT
; __First$ = ecx
; __Last$ = esi
; __Dest$ = edx

; 2456 : 	// if _OutIt is range checked, this will make sure there is enough space for the copy
; 2457 : 	_OutIt _Result = _Dest + (_Last - _First);

	mov	eax, esi
	sub	eax, ecx
	sar	eax, 4
	shl	eax, 4
	add	eax, edx

; 2458 : 	_Copy_opt(_First, _Last, _CHECKED_BASE(_Dest), 
; 2459 : 		forward_iterator_tag(), _Nonscalar_ptr_iterator_tag(), _Range_checked_iterator_tag());

	cmp	ecx, esi
	je	SHORT $LN7@Copy_opt@3
	sub	edx, ecx
	push	edi
$LL9@Copy_opt@3:
	mov	edi, DWORD PTR [ecx]
	mov	DWORD PTR [edx+ecx], edi
	mov	edi, DWORD PTR [ecx+4]
	mov	DWORD PTR [edx+ecx+4], edi
	mov	edi, DWORD PTR [ecx+8]
	mov	DWORD PTR [edx+ecx+8], edi
	mov	edi, DWORD PTR [ecx+12]
	mov	DWORD PTR [edx+ecx+12], edi
	add	ecx, 16					; 00000010H
	cmp	ecx, esi
	jne	SHORT $LL9@Copy_opt@3
	pop	edi
$LN7@Copy_opt@3:

; 2460 : 	return _Result;
; 2461 : 	}

	ret	0
??$_Copy_opt@PAU?$pair@_K_K@std@@PAU12@@std@@YAPAU?$pair@_K_K@0@PAU10@00Urandom_access_iterator_tag@0@U_Nonscalar_ptr_iterator_tag@0@U_Range_checked_iterator_tag@0@@Z ENDP ; std::_Copy_opt<std::pair<unsigned __int64,unsigned __int64> *,std::pair<unsigned __int64,unsigned __int64> *>
; Function compile flags: /Ogtpy
; File c:\program files (x86)\microsoft visual studio 9.0\vc\include\algorithm
_TEXT	ENDS
;	COMDAT ??$_Sort@PAHH@std@@YAXPAH0H@Z
_TEXT	SEGMENT
__Mid$133922 = -8					; size = 8
__First$ = 8						; size = 4
__Last$ = 12						; size = 4
__Ideal$ = 16						; size = 4
??$_Sort@PAHH@std@@YAXPAH0H@Z PROC			; std::_Sort<int *,int>, COMDAT

; 3080 : 	{	// order [_First, _Last), using operator<

	push	ebp
	mov	ebp, esp
	and	esp, -8					; fffffff8H
	sub	esp, 12					; 0000000cH
	push	ebx

; 3081 : 	_Diff _Count;
; 3082 : 	for (; _ISORT_MAX < (_Count = _Last - _First) && 0 < _Ideal; )

	mov	ebx, DWORD PTR __First$[ebp]
	push	esi
	push	edi
	mov	edi, DWORD PTR __Last$[ebp]
	mov	eax, edi
	sub	eax, ebx
	sar	eax, 2
	cmp	eax, 32					; 00000020H
	jle	SHORT $LN3@Sort
	mov	esi, DWORD PTR __Ideal$[ebp]
$LN7@Sort:
	test	esi, esi
	jle	SHORT $LN6@Sort

; 3083 : 		{	// divide and conquer by quicksort
; 3084 : 		pair<_RanIt, _RanIt> _Mid =
; 3085 : 			std::_Unguarded_partition(_First, _Last);

	push	edi
	lea	eax, DWORD PTR __Mid$133922[esp+28]
	push	ebx
	push	eax
	call	??$_Unguarded_partition@PAH@std@@YA?AU?$pair@PAHPAH@0@PAH0@Z ; std::_Unguarded_partition<int *>

; 3086 : 		_Ideal /= 2, _Ideal += _Ideal / 2;	// allow 1.5 log2(N) divisions

	mov	eax, esi
	cdq
	sub	eax, edx
	sar	eax, 1
	mov	esi, eax
	cdq
	sub	eax, edx

; 3087 : 
; 3088 : 		if (_Mid.first - _First < _Last - _Mid.second)

	mov	edx, DWORD PTR __Mid$133922[esp+36]
	sar	eax, 1
	add	esi, eax
	mov	eax, DWORD PTR __Mid$133922[esp+40]
	mov	ecx, edi
	sub	ecx, eax
	sub	edx, ebx
	add	esp, 12					; 0000000cH
	and	ecx, -4					; fffffffcH
	and	edx, -4					; fffffffcH
	cmp	edx, ecx

; 3089 : 			{	// loop on second half
; 3090 : 			std::_Sort(_First, _Mid.first, _Ideal);

	push	esi
	jge	SHORT $LN5@Sort
	mov	eax, DWORD PTR __Mid$133922[esp+28]
	push	eax
	push	ebx
	call	??$_Sort@PAHH@std@@YAXPAH0H@Z		; std::_Sort<int *,int>

; 3091 : 			_First = _Mid.second;

	mov	ebx, DWORD PTR __Mid$133922[esp+40]

; 3092 : 			}
; 3093 : 		else

	jmp	SHORT $LN42@Sort
$LN5@Sort:

; 3094 : 			{	// loop on first half
; 3095 : 			std::_Sort(_Mid.second, _Last, _Ideal);

	push	edi
	push	eax
	call	??$_Sort@PAHH@std@@YAXPAH0H@Z		; std::_Sort<int *,int>

; 3096 : 			_Last = _Mid.first;

	mov	edi, DWORD PTR __Mid$133922[esp+36]
$LN42@Sort:
	mov	eax, edi
	sub	eax, ebx
	sar	eax, 2
	add	esp, 12					; 0000000cH
	cmp	eax, 32					; 00000020H
	jg	SHORT $LN7@Sort
$LN3@Sort:

; 3104 : 		}
; 3105 : 	else if (1 < _Count)

	cmp	eax, 1
	jle	SHORT $LN35@Sort

; 3106 : 		std::_Insertion_sort(_First, _Last);	// small

	push	0
	push	edi
	push	ebx
	call	??$_Insertion_sort1@PAHH@std@@YAXPAH00@Z ; std::_Insertion_sort1<int *,int>
	add	esp, 12					; 0000000cH
$LN35@Sort:

; 3107 : 	}

	pop	edi
	pop	esi
	pop	ebx
	mov	esp, ebp
	pop	ebp
	ret	0
$LN6@Sort:

; 3097 : 			}
; 3098 : 		}
; 3099 : 
; 3100 : 	if (_ISORT_MAX < _Count)

	cmp	eax, 32					; 00000020H
	jle	SHORT $LN3@Sort

; 3101 : 		{	// heap sort if too many divisions
; 3102 : 		std::make_heap(_First, _Last);

	mov	ecx, edi
	sub	ecx, ebx
	and	ecx, -4					; fffffffcH
	cmp	ecx, 4
	jle	SHORT $LN10@Sort
	push	0
	push	0
	push	edi
	push	ebx
	call	??$_Make_heap@PAHHH@std@@YAXPAH000@Z	; std::_Make_heap<int *,int,int>
	add	esp, 16					; 00000010H
$LN10@Sort:

; 3103 : 		std::sort_heap(_First, _Last);

	push	edi
	push	ebx
	call	??$_Sort_heap@PAH@std@@YAXPAH0@Z	; std::_Sort_heap<int *>
	add	esp, 8

; 3107 : 	}

	pop	edi
	pop	esi
	pop	ebx
	mov	esp, ebp
	pop	ebp
	ret	0
??$_Sort@PAHH@std@@YAXPAH0H@Z ENDP			; std::_Sort<int *,int>
; Function compile flags: /Ogtpy
; File c:\program files (x86)\microsoft visual studio 9.0\vc\include\xmemory
_TEXT	ENDS
;	COMDAT ??$_Allocate@H@std@@YAPAHIPAH@Z
_TEXT	SEGMENT
$T235603 = -12						; size = 12
$T235607 = 8						; size = 4
__Count$ = 8						; size = 4
___formal$ = 12						; size = 4
??$_Allocate@H@std@@YAPAHIPAH@Z PROC			; std::_Allocate<int>, COMDAT

; 37   : 	if (_Count <= 0)

	mov	ecx, DWORD PTR __Count$[esp-4]
	sub	esp, 12					; 0000000cH
	test	ecx, ecx
	ja	SHORT $LN3@Allocate

; 38   : 		_Count = 0;

	xor	ecx, ecx
$LN1@Allocate:

; 41   : 
; 42   : 		// allocate storage for _Count elements of type _Ty
; 43   : 	return ((_Ty _FARQ *)::operator new(_Count * sizeof (_Ty)));

	lea	edx, DWORD PTR [ecx*4]
	push	edx
	call	??2@YAPAXI@Z				; operator new
	add	esp, 4

; 44   : 	}

	add	esp, 12					; 0000000cH
	ret	0
$LN3@Allocate:

; 39   : 	else if (((_SIZT)(-1) / _Count) < sizeof (_Ty))

	or	eax, -1
	xor	edx, edx
	div	ecx
	cmp	eax, 4
	jae	SHORT $LN1@Allocate

; 40   : 		_THROW_NCEE(std::bad_alloc, NULL);

	lea	eax, DWORD PTR $T235607[esp+8]
	push	eax
	lea	ecx, DWORD PTR $T235603[esp+16]
	mov	DWORD PTR $T235607[esp+12], 0
	call	??0exception@std@@QAE@ABQBD@Z		; std::exception::exception
	push	OFFSET __TI2?AVbad_alloc@std@@
	lea	ecx, DWORD PTR $T235603[esp+16]
	push	ecx
	mov	DWORD PTR $T235603[esp+20], OFFSET ??_7bad_alloc@std@@6B@
	call	__CxxThrowException@8
$LN9@Allocate:
$LN8@Allocate:
	int	3
??$_Allocate@H@std@@YAPAHIPAH@Z ENDP			; std::_Allocate<int>
; Function compile flags: /Ogtpy
; File c:\program files (x86)\microsoft visual studio 9.0\vc\include\xutility
_TEXT	ENDS
;	COMDAT ??$_Unchecked_move_backward@PAHPAH@stdext@@YAPAHPAH00@Z
_TEXT	SEGMENT
__First$ = 8						; size = 4
__Last$ = 12						; size = 4
__Dest$ = 16						; size = 4
??$_Unchecked_move_backward@PAHPAH@stdext@@YAPAHPAH00@Z PROC ; stdext::_Unchecked_move_backward<int *,int *>, COMDAT

; 3669 : 		return (_STD _Move_backward_opt(_CHECKED_BASE(_First), _CHECKED_BASE(_Last), _Dest,
; 3670 : 			_STD _Iter_random(_First, _Dest), _STD _Move_cat(_Dest), _STD _Range_checked_iterator_tag()));

	mov	eax, DWORD PTR __Last$[esp-4]
	mov	edx, DWORD PTR __First$[esp-4]
	sub	eax, edx
	sar	eax, 2
	push	esi
	mov	esi, DWORD PTR __Dest$[esp]
	lea	ecx, DWORD PTR [eax*4]
	sub	esi, ecx
	test	eax, eax
	jle	SHORT $LN22@Unchecked_@2
	push	ecx
	push	edx
	push	ecx
	push	esi
	call	_memmove_s
	add	esp, 16					; 00000010H
$LN22@Unchecked_@2:
	mov	eax, esi
	pop	esi

; 3671 : 	}

	ret	0
??$_Unchecked_move_backward@PAHPAH@stdext@@YAPAHPAH00@Z ENDP ; stdext::_Unchecked_move_backward<int *,int *>
; Function compile flags: /Ogtpy
; File c:\program files (x86)\microsoft visual studio 9.0\vc\include\vector
_TEXT	ENDS
;	COMDAT ??$_Umove@PAH@?$vector@HV?$allocator@H@std@@@std@@IAEPAHPAH00@Z
_TEXT	SEGMENT
__First$ = 8						; size = 4
__Last$ = 12						; size = 4
__Ptr$ = 16						; size = 4
??$_Umove@PAH@?$vector@HV?$allocator@H@std@@@std@@IAEPAHPAH00@Z PROC ; std::vector<int,std::allocator<int> >::_Umove<int *>, COMDAT
; _this$ = ecx

; 1151 : 		{	// move initializing [_First, _Last), using allocator
; 1152 : 		return (_STDEXT _Unchecked_uninitialized_move(_First, _Last,
; 1153 : 			_Ptr, this->_Alval));

	mov	eax, DWORD PTR __Last$[esp-4]
	mov	edx, DWORD PTR __First$[esp-4]
	sub	eax, edx
	push	esi
	sar	eax, 2
	push	edi
	mov	edi, DWORD PTR __Ptr$[esp+4]
	lea	ecx, DWORD PTR [eax*4]
	lea	esi, DWORD PTR [ecx+edi]
	test	eax, eax
	jbe	SHORT $LN32@Umove
	push	ecx
	push	edx
	push	ecx
	push	edi
	call	_memmove_s
	add	esp, 16					; 00000010H
$LN32@Umove:
	pop	edi
	mov	eax, esi
	pop	esi

; 1154 : 		}

	ret	12					; 0000000cH
??$_Umove@PAH@?$vector@HV?$allocator@H@std@@@std@@IAEPAHPAH00@Z ENDP ; std::vector<int,std::allocator<int> >::_Umove<int *>
; Function compile flags: /Ogtpy
; File c:\program files (x86)\microsoft visual studio 9.0\vc\include\xutility
_TEXT	ENDS
;	COMDAT ??$_Unchecked_move_backward@PAU?$pair@_K_K@std@@PAU12@@stdext@@YAPAU?$pair@_K_K@std@@PAU12@00@Z
_TEXT	SEGMENT
??$_Unchecked_move_backward@PAU?$pair@_K_K@std@@PAU12@@stdext@@YAPAU?$pair@_K_K@std@@PAU12@00@Z PROC ; stdext::_Unchecked_move_backward<std::pair<unsigned __int64,unsigned __int64> *,std::pair<unsigned __int64,unsigned __int64> *>, COMDAT
; __First$ = esi
; __Last$ = ecx
; __Dest$ = edx

; 3669 : 		return (_STD _Move_backward_opt(_CHECKED_BASE(_First), _CHECKED_BASE(_Last), _Dest,
; 3670 : 			_STD _Iter_random(_First, _Dest), _STD _Move_cat(_Dest), _STD _Range_checked_iterator_tag()));

	mov	eax, ecx
	sub	eax, esi
	sar	eax, 4
	shl	eax, 4
	push	edi
	mov	edi, eax
	mov	eax, edx
	sub	eax, edi
	cmp	esi, ecx
	je	SHORT $LN25@Unchecked_@3
	sub	edx, ecx
$LL26@Unchecked_@3:
	mov	edi, DWORD PTR [ecx-16]
	sub	ecx, 16					; 00000010H
	mov	DWORD PTR [edx+ecx], edi
	mov	edi, DWORD PTR [ecx+4]
	mov	DWORD PTR [edx+ecx+4], edi
	mov	edi, DWORD PTR [ecx+8]
	mov	DWORD PTR [edx+ecx+8], edi
	mov	edi, DWORD PTR [ecx+12]
	mov	DWORD PTR [edx+ecx+12], edi
	cmp	ecx, esi
	jne	SHORT $LL26@Unchecked_@3
$LN25@Unchecked_@3:
	pop	edi

; 3671 : 	}

	ret	0
??$_Unchecked_move_backward@PAU?$pair@_K_K@std@@PAU12@@stdext@@YAPAU?$pair@_K_K@std@@PAU12@00@Z ENDP ; stdext::_Unchecked_move_backward<std::pair<unsigned __int64,unsigned __int64> *,std::pair<unsigned __int64,unsigned __int64> *>
; Function compile flags: /Ogtpy
; File c:\program files (x86)\microsoft visual studio 9.0\vc\include\memory
_TEXT	ENDS
;	COMDAT ??$unchecked_uninitialized_fill_n@PAHIHV?$allocator@H@std@@@stdext@@YAXPAHIABHAAV?$allocator@H@std@@@Z
_TEXT	SEGMENT
__First$ = 8						; size = 4
__Count$ = 12						; size = 4
__Val$ = 16						; size = 4
__Al$ = 20						; size = 4
??$unchecked_uninitialized_fill_n@PAHIHV?$allocator@H@std@@@stdext@@YAXPAHIABHAAV?$allocator@H@std@@@Z PROC ; stdext::unchecked_uninitialized_fill_n<int *,unsigned int,int,std::allocator<int> >, COMDAT

; 921  : 		_STD _Uninit_fill_n(_First, _Count, _Val, _Al,
; 922  : 			_STD _Ptr_cat(_First, _First), _STD _Range_checked_iterator_tag());

	mov	eax, DWORD PTR __Count$[esp-4]
	mov	ecx, DWORD PTR __First$[esp-4]
	test	eax, eax
	jbe	SHORT $LN17@unchecked_@5
	mov	edx, DWORD PTR __Val$[esp-4]
	push	esi
$LL19@unchecked_@5:
	mov	esi, DWORD PTR [edx]
	mov	DWORD PTR [ecx], esi
	dec	eax
	add	ecx, 4
	test	eax, eax
	ja	SHORT $LL19@unchecked_@5
	pop	esi
$LN17@unchecked_@5:

; 923  : 	}

	ret	0
??$unchecked_uninitialized_fill_n@PAHIHV?$allocator@H@std@@@stdext@@YAXPAHIABHAAV?$allocator@H@std@@@Z ENDP ; stdext::unchecked_uninitialized_fill_n<int *,unsigned int,int,std::allocator<int> >
; Function compile flags: /Ogtpy
; File c:\program files (x86)\microsoft visual studio 9.0\vc\include\xmemory
_TEXT	ENDS
;	COMDAT ??$_Allocate@U?$pair@_K_K@std@@@std@@YAPAU?$pair@_K_K@0@IPAU10@@Z
_TEXT	SEGMENT
$T236063 = -16						; size = 4
$T236055 = -12						; size = 12
??$_Allocate@U?$pair@_K_K@std@@@std@@YAPAU?$pair@_K_K@0@IPAU10@@Z PROC ; std::_Allocate<std::pair<unsigned __int64,unsigned __int64> >, COMDAT
; __Count$ = ecx

; 37   : 	if (_Count <= 0)
; 38   : 		_Count = 0;
; 39   : 	else if (((_SIZT)(-1) / _Count) < sizeof (_Ty))

	or	eax, -1
	xor	edx, edx
	div	ecx
	sub	esp, 16					; 00000010H
	cmp	eax, 16					; 00000010H
	jae	SHORT $LN1@Allocate@2

; 40   : 		_THROW_NCEE(std::bad_alloc, NULL);

	lea	eax, DWORD PTR $T236063[esp+16]
	push	eax
	lea	ecx, DWORD PTR $T236055[esp+20]
	mov	DWORD PTR $T236063[esp+20], 0
	call	??0exception@std@@QAE@ABQBD@Z		; std::exception::exception
	push	OFFSET __TI2?AVbad_alloc@std@@
	lea	ecx, DWORD PTR $T236055[esp+20]
	push	ecx
	mov	DWORD PTR $T236055[esp+24], OFFSET ??_7bad_alloc@std@@6B@
	call	__CxxThrowException@8
$LN13@Allocate@2:
$LN1@Allocate@2:

; 41   : 
; 42   : 		// allocate storage for _Count elements of type _Ty
; 43   : 	return ((_Ty _FARQ *)::operator new(_Count * sizeof (_Ty)));

	shl	ecx, 4
	push	ecx
	call	??2@YAPAXI@Z				; operator new
	add	esp, 4

; 44   : 	}

	add	esp, 16					; 00000010H
	ret	0
$LN12@Allocate@2:
??$_Allocate@U?$pair@_K_K@std@@@std@@YAPAU?$pair@_K_K@0@IPAU10@@Z ENDP ; std::_Allocate<std::pair<unsigned __int64,unsigned __int64> >
; Function compile flags: /Ogtpy
; File c:\program files (x86)\microsoft visual studio 9.0\vc\include\memory
_TEXT	ENDS
;	COMDAT ??$unchecked_uninitialized_fill_n@PAU?$pair@_K_K@std@@IU12@V?$allocator@U?$pair@_K_K@std@@@2@@stdext@@YAXPAU?$pair@_K_K@std@@IABU12@AAV?$allocator@U?$pair@_K_K@std@@@2@@Z
_TEXT	SEGMENT
$T236069 = -4						; size = 1
__Cat$236073 = -4					; size = 1
__Count$ = 8						; size = 4
__Val$ = 12						; size = 4
??$unchecked_uninitialized_fill_n@PAU?$pair@_K_K@std@@IU12@V?$allocator@U?$pair@_K_K@std@@@2@@stdext@@YAXPAU?$pair@_K_K@std@@IABU12@AAV?$allocator@U?$pair@_K_K@std@@@2@@Z PROC ; stdext::unchecked_uninitialized_fill_n<std::pair<unsigned __int64,unsigned __int64> *,unsigned int,std::pair<unsigned __int64,unsigned __int64>,std::allocator<std::pair<unsigned __int64,unsigned __int64> > >, COMDAT
; __First$ = edx

; 920  : 	{	// copy _Count *_Val to raw _First, using _Al

	push	ecx

; 921  : 		_STD _Uninit_fill_n(_First, _Count, _Val, _Al,
; 922  : 			_STD _Ptr_cat(_First, _First), _STD _Range_checked_iterator_tag());

	mov	BYTE PTR $T236069[esp+4], 0
	mov	eax, DWORD PTR $T236069[esp+4]
	mov	ecx, DWORD PTR __Cat$236073[esp+4]
	push	eax
	push	ecx
	mov	ecx, DWORD PTR __Count$[esp+8]
	push	edx
	mov	edx, DWORD PTR __Val$[esp+12]
	call	??$_Uninit_fill_n@PAU?$pair@_K_K@std@@IU12@V?$allocator@U?$pair@_K_K@std@@@2@@std@@YAXPAU?$pair@_K_K@0@IABU10@AAV?$allocator@U?$pair@_K_K@std@@@0@U_Nonscalar_ptr_iterator_tag@0@U_Range_checked_iterator_tag@0@@Z ; std::_Uninit_fill_n<std::pair<unsigned __int64,unsigned __int64> *,unsigned int,std::pair<unsigned __int64,unsigned __int64>,std::allocator<std::pair<unsigned __int64,unsigned __int64> > >

; 923  : 	}

	add	esp, 16					; 00000010H
	ret	0
??$unchecked_uninitialized_fill_n@PAU?$pair@_K_K@std@@IU12@V?$allocator@U?$pair@_K_K@std@@@2@@stdext@@YAXPAU?$pair@_K_K@std@@IABU12@AAV?$allocator@U?$pair@_K_K@std@@@2@@Z ENDP ; stdext::unchecked_uninitialized_fill_n<std::pair<unsigned __int64,unsigned __int64> *,unsigned int,std::pair<unsigned __int64,unsigned __int64>,std::allocator<std::pair<unsigned __int64,unsigned __int64> > >
; Function compile flags: /Ogtpy
; File c:\program files (x86)\microsoft visual studio 9.0\vc\include\xutility
_TEXT	ENDS
;	COMDAT ??$unchecked_copy@PAU?$pair@_K_K@std@@PAU12@@stdext@@YAPAU?$pair@_K_K@std@@PAU12@00@Z
_TEXT	SEGMENT
??$unchecked_copy@PAU?$pair@_K_K@std@@PAU12@@stdext@@YAPAU?$pair@_K_K@std@@PAU12@00@Z PROC ; stdext::unchecked_copy<std::pair<unsigned __int64,unsigned __int64> *,std::pair<unsigned __int64,unsigned __int64> *>, COMDAT
; __First$ = ecx
; __Last$ = esi
; __Dest$ = edx

; 3579 : 		return (_STD _Copy_opt(_CHECKED_BASE(_First), _CHECKED_BASE(_Last), _Dest,
; 3580 : 			_STD _Iter_random(_First, _Dest), _STD _Ptr_cat(_First, _Dest), _STD _Range_checked_iterator_tag()));

	mov	eax, esi
	sub	eax, ecx
	sar	eax, 4
	shl	eax, 4
	add	eax, edx
	cmp	ecx, esi
	je	SHORT $LN21@unchecked_@6
	sub	edx, ecx
	push	edi
$LL23@unchecked_@6:
	mov	edi, DWORD PTR [ecx]
	mov	DWORD PTR [edx+ecx], edi
	mov	edi, DWORD PTR [ecx+4]
	mov	DWORD PTR [edx+ecx+4], edi
	mov	edi, DWORD PTR [ecx+8]
	mov	DWORD PTR [edx+ecx+8], edi
	mov	edi, DWORD PTR [ecx+12]
	mov	DWORD PTR [edx+ecx+12], edi
	add	ecx, 16					; 00000010H
	cmp	ecx, esi
	jne	SHORT $LL23@unchecked_@6
	pop	edi
$LN21@unchecked_@6:

; 3581 : 	}

	ret	0
??$unchecked_copy@PAU?$pair@_K_K@std@@PAU12@@stdext@@YAPAU?$pair@_K_K@std@@PAU12@00@Z ENDP ; stdext::unchecked_copy<std::pair<unsigned __int64,unsigned __int64> *,std::pair<unsigned __int64,unsigned __int64> *>
; Function compile flags: /Ogtpy
_TEXT	ENDS
;	COMDAT ??0?$_Iterator_with_base@Urandom_access_iterator_tag@std@@U?$pair@_K_K@2@HPBU32@ABU32@V_Iterator_base_aux@2@@std@@QAE@XZ
_TEXT	SEGMENT
??0?$_Iterator_with_base@Urandom_access_iterator_tag@std@@U?$pair@_K_K@2@HPBU32@ABU32@V_Iterator_base_aux@2@@std@@QAE@XZ PROC ; std::_Iterator_with_base<std::random_access_iterator_tag,std::pair<unsigned __int64,unsigned __int64>,int,std::pair<unsigned __int64,unsigned __int64> const *,std::pair<unsigned __int64,unsigned __int64> const &,std::_Iterator_base_aux>::_Iterator_with_base<std::random_access_iterator_tag,std::pair<unsigned __int64,unsigned __int64>,int,std::pair<unsigned __int64,unsigned __int64> const *,std::pair<unsigned __int64,unsigned __int64> const &,std::_Iterator_base_aux>, COMDAT
; _this$ = eax
	mov	DWORD PTR [eax], 0
	ret	0
??0?$_Iterator_with_base@Urandom_access_iterator_tag@std@@U?$pair@_K_K@2@HPBU32@ABU32@V_Iterator_base_aux@2@@std@@QAE@XZ ENDP ; std::_Iterator_with_base<std::random_access_iterator_tag,std::pair<unsigned __int64,unsigned __int64>,int,std::pair<unsigned __int64,unsigned __int64> const *,std::pair<unsigned __int64,unsigned __int64> const &,std::_Iterator_base_aux>::_Iterator_with_base<std::random_access_iterator_tag,std::pair<unsigned __int64,unsigned __int64>,int,std::pair<unsigned __int64,unsigned __int64> const *,std::pair<unsigned __int64,unsigned __int64> const &,std::_Iterator_base_aux>
; Function compile flags: /Ogtpy
_TEXT	ENDS
;	COMDAT ??0?$_Iterator_with_base@Urandom_access_iterator_tag@std@@HHPBHABHV_Iterator_base_aux@2@@std@@QAE@XZ
_TEXT	SEGMENT
??0?$_Iterator_with_base@Urandom_access_iterator_tag@std@@HHPBHABHV_Iterator_base_aux@2@@std@@QAE@XZ PROC ; std::_Iterator_with_base<std::random_access_iterator_tag,int,int,int const *,int const &,std::_Iterator_base_aux>::_Iterator_with_base<std::random_access_iterator_tag,int,int,int const *,int const &,std::_Iterator_base_aux>, COMDAT
; _this$ = ecx
	mov	eax, ecx
	mov	DWORD PTR [eax], 0
	ret	0
??0?$_Iterator_with_base@Urandom_access_iterator_tag@std@@HHPBHABHV_Iterator_base_aux@2@@std@@QAE@XZ ENDP ; std::_Iterator_with_base<std::random_access_iterator_tag,int,int,int const *,int const &,std::_Iterator_base_aux>::_Iterator_with_base<std::random_access_iterator_tag,int,int,int const *,int const &,std::_Iterator_base_aux>
; Function compile flags: /Ogtpy
_TEXT	ENDS
;	COMDAT ??0?$_Ranit@U?$pair@_K_K@std@@HPBU12@ABU12@@std@@QAE@XZ
_TEXT	SEGMENT
??0?$_Ranit@U?$pair@_K_K@std@@HPBU12@ABU12@@std@@QAE@XZ PROC ; std::_Ranit<std::pair<unsigned __int64,unsigned __int64>,int,std::pair<unsigned __int64,unsigned __int64> const *,std::pair<unsigned __int64,unsigned __int64> const &>::_Ranit<std::pair<unsigned __int64,unsigned __int64>,int,std::pair<unsigned __int64,unsigned __int64> const *,std::pair<unsigned __int64,unsigned __int64> const &>, COMDAT
; _this$ = eax
	mov	DWORD PTR [eax], 0
	ret	0
??0?$_Ranit@U?$pair@_K_K@std@@HPBU12@ABU12@@std@@QAE@XZ ENDP ; std::_Ranit<std::pair<unsigned __int64,unsigned __int64>,int,std::pair<unsigned __int64,unsigned __int64> const *,std::pair<unsigned __int64,unsigned __int64> const &>::_Ranit<std::pair<unsigned __int64,unsigned __int64>,int,std::pair<unsigned __int64,unsigned __int64> const *,std::pair<unsigned __int64,unsigned __int64> const &>
; Function compile flags: /Ogtpy
_TEXT	ENDS
;	COMDAT ??0?$_Ranit@HHPBHABH@std@@QAE@XZ
_TEXT	SEGMENT
??0?$_Ranit@HHPBHABH@std@@QAE@XZ PROC			; std::_Ranit<int,int,int const *,int const &>::_Ranit<int,int,int const *,int const &>, COMDAT
; _this$ = ecx
	mov	eax, ecx
	mov	DWORD PTR [eax], 0
	ret	0
??0?$_Ranit@HHPBHABH@std@@QAE@XZ ENDP			; std::_Ranit<int,int,int const *,int const &>::_Ranit<int,int,int const *,int const &>
; Function compile flags: /Ogtpy
; File c:\program files (x86)\microsoft visual studio 9.0\vc\include\vector
_TEXT	ENDS
;	COMDAT ??G?$_Vector_const_iterator@U?$pair@_K_K@std@@V?$allocator@U?$pair@_K_K@std@@@2@@std@@QBEHABV01@@Z
_TEXT	SEGMENT
??G?$_Vector_const_iterator@U?$pair@_K_K@std@@V?$allocator@U?$pair@_K_K@std@@@2@@std@@QBEHABV01@@Z PROC ; std::_Vector_const_iterator<std::pair<unsigned __int64,unsigned __int64>,std::allocator<std::pair<unsigned __int64,unsigned __int64> > >::operator-, COMDAT
; _this$ = edi
; __Right$ = esi

; 187  : 
; 188  :  #if _HAS_ITERATOR_DEBUGGING
; 189  : 		_Compat(_Right);
; 190  :  #else
; 191  : 		_SCL_SECURE_VALIDATE(this->_Has_container() && this->_Same_container(_Right));

	mov	eax, DWORD PTR [edi]
	test	eax, eax
	je	SHORT $LN4@operator@2
	cmp	eax, DWORD PTR [esi]
	je	SHORT $LN3@operator@2
$LN4@operator@2:
	call	__invalid_parameter_noinfo
$LN3@operator@2:

; 192  :  #endif /* _HAS_ITERATOR_DEBUGGING */
; 193  : 
; 194  : 		return (_Myptr - _Right._Myptr);

	mov	eax, DWORD PTR [edi+4]
	sub	eax, DWORD PTR [esi+4]
	sar	eax, 4

; 195  : 		}

	ret	0
??G?$_Vector_const_iterator@U?$pair@_K_K@std@@V?$allocator@U?$pair@_K_K@std@@@2@@std@@QBEHABV01@@Z ENDP ; std::_Vector_const_iterator<std::pair<unsigned __int64,unsigned __int64>,std::allocator<std::pair<unsigned __int64,unsigned __int64> > >::operator-
; Function compile flags: /Ogtpy
_TEXT	ENDS
;	COMDAT ??0?$_Vector_const_iterator@U?$pair@_K_K@std@@V?$allocator@U?$pair@_K_K@std@@@2@@std@@QAE@PAU?$pair@_K_K@1@PBV_Container_base_aux@1@@Z
_TEXT	SEGMENT
__Ptr$ = 8						; size = 4
??0?$_Vector_const_iterator@U?$pair@_K_K@std@@V?$allocator@U?$pair@_K_K@std@@@2@@std@@QAE@PAU?$pair@_K_K@1@PBV_Container_base_aux@1@@Z PROC ; std::_Vector_const_iterator<std::pair<unsigned __int64,unsigned __int64>,std::allocator<std::pair<unsigned __int64,unsigned __int64> > >::_Vector_const_iterator<std::pair<unsigned __int64,unsigned __int64>,std::allocator<std::pair<unsigned __int64,unsigned __int64> > >, COMDAT
; _this$ = edi
; __Pvector$ = esi

; 76   : 	_Vector_const_iterator(_Tptr _Ptr, const _Container_base *_Pvector)

	push	ebx
	mov	ebx, DWORD PTR __Ptr$[esp]
	mov	DWORD PTR [edi], 0

; 77   : 		{	// construct with pointer _Ptr
; 78   : 		_SCL_SECURE_VALIDATE(_Pvector != NULL && ((_Myvec *)_Pvector)->_Myfirst <= _Ptr && _Ptr <= ((_Myvec *)_Pvector)->_Mylast);

	test	esi, esi
	je	SHORT $LN4@Vector_con
	cmp	DWORD PTR [esi+12], ebx
	ja	SHORT $LN4@Vector_con
	cmp	ebx, DWORD PTR [esi+16]
	jbe	SHORT $LN3@Vector_con
$LN4@Vector_con:
	call	__invalid_parameter_noinfo
$LN3@Vector_con:

; 79   : 		this->_Set_container(_Pvector);

	mov	eax, DWORD PTR [esi]
	mov	DWORD PTR [edi], eax

; 80   : 		_Myptr = _Ptr;

	mov	DWORD PTR [edi+4], ebx

; 81   : 		}

	mov	eax, edi
	pop	ebx
	ret	4
??0?$_Vector_const_iterator@U?$pair@_K_K@std@@V?$allocator@U?$pair@_K_K@std@@@2@@std@@QAE@PAU?$pair@_K_K@1@PBV_Container_base_aux@1@@Z ENDP ; std::_Vector_const_iterator<std::pair<unsigned __int64,unsigned __int64>,std::allocator<std::pair<unsigned __int64,unsigned __int64> > >::_Vector_const_iterator<std::pair<unsigned __int64,unsigned __int64>,std::allocator<std::pair<unsigned __int64,unsigned __int64> > >
; Function compile flags: /Ogtpy
_TEXT	ENDS
;	COMDAT ??G?$_Vector_const_iterator@HV?$allocator@H@std@@@std@@QBEHABV01@@Z
_TEXT	SEGMENT
__Right$ = 8						; size = 4
??G?$_Vector_const_iterator@HV?$allocator@H@std@@@std@@QBEHABV01@@Z PROC ; std::_Vector_const_iterator<int,std::allocator<int> >::operator-, COMDAT
; _this$ = ecx

; 186  : 		{	// return difference of iterators

	push	esi
	mov	esi, ecx

; 187  : 
; 188  :  #if _HAS_ITERATOR_DEBUGGING
; 189  : 		_Compat(_Right);
; 190  :  #else
; 191  : 		_SCL_SECURE_VALIDATE(this->_Has_container() && this->_Same_container(_Right));

	mov	eax, DWORD PTR [esi]
	push	edi
	mov	edi, DWORD PTR __Right$[esp+4]
	test	eax, eax
	je	SHORT $LN4@operator@3
	cmp	eax, DWORD PTR [edi]
	je	SHORT $LN3@operator@3
$LN4@operator@3:
	call	__invalid_parameter_noinfo
$LN3@operator@3:

; 192  :  #endif /* _HAS_ITERATOR_DEBUGGING */
; 193  : 
; 194  : 		return (_Myptr - _Right._Myptr);

	mov	eax, DWORD PTR [esi+4]
	sub	eax, DWORD PTR [edi+4]
	pop	edi
	sar	eax, 2
	pop	esi

; 195  : 		}

	ret	4
??G?$_Vector_const_iterator@HV?$allocator@H@std@@@std@@QBEHABV01@@Z ENDP ; std::_Vector_const_iterator<int,std::allocator<int> >::operator-
; Function compile flags: /Ogtpy
_TEXT	ENDS
;	COMDAT ??0?$_Vector_const_iterator@HV?$allocator@H@std@@@std@@QAE@PAHPBV_Container_base_aux@1@@Z
_TEXT	SEGMENT
__Ptr$ = 8						; size = 4
__Pvector$ = 12						; size = 4
??0?$_Vector_const_iterator@HV?$allocator@H@std@@@std@@QAE@PAHPBV_Container_base_aux@1@@Z PROC ; std::_Vector_const_iterator<int,std::allocator<int> >::_Vector_const_iterator<int,std::allocator<int> >, COMDAT
; _this$ = ecx

; 76   : 	_Vector_const_iterator(_Tptr _Ptr, const _Container_base *_Pvector)

	push	ebx

; 77   : 		{	// construct with pointer _Ptr
; 78   : 		_SCL_SECURE_VALIDATE(_Pvector != NULL && ((_Myvec *)_Pvector)->_Myfirst <= _Ptr && _Ptr <= ((_Myvec *)_Pvector)->_Mylast);

	mov	ebx, DWORD PTR __Ptr$[esp]
	push	esi
	push	edi
	mov	edi, DWORD PTR __Pvector$[esp+8]
	mov	esi, ecx
	mov	DWORD PTR [esi], 0
	test	edi, edi
	je	SHORT $LN4@Vector_con@2
	cmp	DWORD PTR [edi+12], ebx
	ja	SHORT $LN4@Vector_con@2
	cmp	ebx, DWORD PTR [edi+16]
	jbe	SHORT $LN3@Vector_con@2
$LN4@Vector_con@2:
	call	__invalid_parameter_noinfo
$LN3@Vector_con@2:

; 79   : 		this->_Set_container(_Pvector);

	mov	eax, DWORD PTR [edi]
	mov	DWORD PTR [esi], eax
	pop	edi

; 80   : 		_Myptr = _Ptr;

	mov	DWORD PTR [esi+4], ebx

; 81   : 		}

	mov	eax, esi
	pop	esi
	pop	ebx
	ret	8
??0?$_Vector_const_iterator@HV?$allocator@H@std@@@std@@QAE@PAHPBV_Container_base_aux@1@@Z ENDP ; std::_Vector_const_iterator<int,std::allocator<int> >::_Vector_const_iterator<int,std::allocator<int> >
; Function compile flags: /Ogtpy
; File c:\program files (x86)\microsoft visual studio 9.0\vc\include\xmemory
_TEXT	ENDS
;	COMDAT ?allocate@?$allocator@H@std@@QAEPAHI@Z
_TEXT	SEGMENT
__Count$ = 8						; size = 4
?allocate@?$allocator@H@std@@QAEPAHI@Z PROC		; std::allocator<int>::allocate, COMDAT
; _this$ = ecx

; 145  : 		return (_Allocate(_Count, (pointer)0));

	mov	eax, DWORD PTR __Count$[esp-4]
	push	0
	push	eax
	call	??$_Allocate@H@std@@YAPAHIPAH@Z		; std::_Allocate<int>
	add	esp, 8

; 146  : 		}

	ret	4
?allocate@?$allocator@H@std@@QAEPAHI@Z ENDP		; std::allocator<int>::allocate
; Function compile flags: /Ogtpy
; File c:\program files (x86)\microsoft visual studio 9.0\vc\include\vector
_TEXT	ENDS
;	COMDAT ?end@?$vector@U?$pair@_K_K@std@@V?$allocator@U?$pair@_K_K@std@@@2@@std@@QBE?AV?$_Vector_const_iterator@U?$pair@_K_K@std@@V?$allocator@U?$pair@_K_K@std@@@2@@2@XZ
_TEXT	SEGMENT
?end@?$vector@U?$pair@_K_K@std@@V?$allocator@U?$pair@_K_K@std@@@2@@std@@QBE?AV?$_Vector_const_iterator@U?$pair@_K_K@std@@V?$allocator@U?$pair@_K_K@std@@@2@@2@XZ PROC ; std::vector<std::pair<unsigned __int64,unsigned __int64>,std::allocator<std::pair<unsigned __int64,unsigned __int64> > >::end, COMDAT
; _this$ = edi
; ___$ReturnUdt$ = esi

; 655  : 		{	// return iterator for end of nonmutable sequence

	push	ebx

; 656  : 		return (const_iterator(_Mylast, this));

	mov	ebx, DWORD PTR [edi+16]
	mov	DWORD PTR [esi], 0
	cmp	DWORD PTR [edi+12], ebx
	jbe	SHORT $LN5@end
	call	__invalid_parameter_noinfo
$LN5@end:
	mov	eax, DWORD PTR [edi]
	mov	DWORD PTR [esi], eax
	mov	DWORD PTR [esi+4], ebx
	mov	eax, esi
	pop	ebx

; 657  : 		}

	ret	0
?end@?$vector@U?$pair@_K_K@std@@V?$allocator@U?$pair@_K_K@std@@@2@@std@@QBE?AV?$_Vector_const_iterator@U?$pair@_K_K@std@@V?$allocator@U?$pair@_K_K@std@@@2@@2@XZ ENDP ; std::vector<std::pair<unsigned __int64,unsigned __int64>,std::allocator<std::pair<unsigned __int64,unsigned __int64> > >::end
; Function compile flags: /Ogtpy
_TEXT	ENDS
;	COMDAT ?begin@?$vector@U?$pair@_K_K@std@@V?$allocator@U?$pair@_K_K@std@@@2@@std@@QBE?AV?$_Vector_const_iterator@U?$pair@_K_K@std@@V?$allocator@U?$pair@_K_K@std@@@2@@2@XZ
_TEXT	SEGMENT
?begin@?$vector@U?$pair@_K_K@std@@V?$allocator@U?$pair@_K_K@std@@@2@@std@@QBE?AV?$_Vector_const_iterator@U?$pair@_K_K@std@@V?$allocator@U?$pair@_K_K@std@@@2@@2@XZ PROC ; std::vector<std::pair<unsigned __int64,unsigned __int64>,std::allocator<std::pair<unsigned __int64,unsigned __int64> > >::begin, COMDAT
; _this$ = edi
; ___$ReturnUdt$ = esi

; 645  : 		{	// return iterator for beginning of nonmutable sequence

	push	ebx

; 646  : 		return (const_iterator(_Myfirst, this));

	mov	ebx, DWORD PTR [edi+12]
	mov	DWORD PTR [esi], 0
	cmp	ebx, DWORD PTR [edi+16]
	jbe	SHORT $LN5@begin
	call	__invalid_parameter_noinfo
$LN5@begin:
	mov	eax, DWORD PTR [edi]
	mov	DWORD PTR [esi], eax
	mov	DWORD PTR [esi+4], ebx
	mov	eax, esi
	pop	ebx

; 647  : 		}

	ret	0
?begin@?$vector@U?$pair@_K_K@std@@V?$allocator@U?$pair@_K_K@std@@@2@@std@@QBE?AV?$_Vector_const_iterator@U?$pair@_K_K@std@@V?$allocator@U?$pair@_K_K@std@@@2@@2@XZ ENDP ; std::vector<std::pair<unsigned __int64,unsigned __int64>,std::allocator<std::pair<unsigned __int64,unsigned __int64> > >::begin
; Function compile flags: /Ogtpy
_TEXT	ENDS
;	COMDAT ??0?$_Vector_iterator@U?$pair@_K_K@std@@V?$allocator@U?$pair@_K_K@std@@@2@@std@@QAE@PAU?$pair@_K_K@1@PBV_Container_base_aux@1@@Z
_TEXT	SEGMENT
__Ptr$ = 8						; size = 4
??0?$_Vector_iterator@U?$pair@_K_K@std@@V?$allocator@U?$pair@_K_K@std@@@2@@std@@QAE@PAU?$pair@_K_K@1@PBV_Container_base_aux@1@@Z PROC ; std::_Vector_iterator<std::pair<unsigned __int64,unsigned __int64>,std::allocator<std::pair<unsigned __int64,unsigned __int64> > >::_Vector_iterator<std::pair<unsigned __int64,unsigned __int64>,std::allocator<std::pair<unsigned __int64,unsigned __int64> > >, COMDAT
; _this$ = edi
; __Pvector$ = esi

; 327  : 		{	// construct with pointer _Ptr

	push	ebx
	mov	ebx, DWORD PTR __Ptr$[esp]
	mov	DWORD PTR [edi], 0
	test	esi, esi
	je	SHORT $LN6@Vector_ite
	cmp	DWORD PTR [esi+12], ebx
	ja	SHORT $LN6@Vector_ite
	cmp	ebx, DWORD PTR [esi+16]
	jbe	SHORT $LN5@Vector_ite
$LN6@Vector_ite:
	call	__invalid_parameter_noinfo
$LN5@Vector_ite:
	mov	eax, DWORD PTR [esi]
	mov	DWORD PTR [edi], eax
	mov	DWORD PTR [edi+4], ebx

; 328  : 		}

	mov	eax, edi
	pop	ebx
	ret	4
??0?$_Vector_iterator@U?$pair@_K_K@std@@V?$allocator@U?$pair@_K_K@std@@@2@@std@@QAE@PAU?$pair@_K_K@1@PBV_Container_base_aux@1@@Z ENDP ; std::_Vector_iterator<std::pair<unsigned __int64,unsigned __int64>,std::allocator<std::pair<unsigned __int64,unsigned __int64> > >::_Vector_iterator<std::pair<unsigned __int64,unsigned __int64>,std::allocator<std::pair<unsigned __int64,unsigned __int64> > >
; Function compile flags: /Ogtpy
_TEXT	ENDS
;	COMDAT ??8?$_Vector_const_iterator@HV?$allocator@H@std@@@std@@QBE_NABV01@@Z
_TEXT	SEGMENT
__Right$ = 8						; size = 4
??8?$_Vector_const_iterator@HV?$allocator@H@std@@@std@@QBE_NABV01@@Z PROC ; std::_Vector_const_iterator<int,std::allocator<int> >::operator==, COMDAT
; _this$ = ecx

; 203  : 		{	// test for iterator equality

	push	esi
	mov	esi, ecx

; 204  : 
; 205  :  #if _HAS_ITERATOR_DEBUGGING
; 206  : 		_Compat(_Right);
; 207  :  #else
; 208  : 		_SCL_SECURE_VALIDATE(this->_Has_container() && this->_Same_container(_Right));

	mov	eax, DWORD PTR [esi]
	push	edi
	mov	edi, DWORD PTR __Right$[esp+4]
	test	eax, eax
	je	SHORT $LN4@operator@4
	cmp	eax, DWORD PTR [edi]
	je	SHORT $LN3@operator@4
$LN4@operator@4:
	call	__invalid_parameter_noinfo
$LN3@operator@4:

; 209  :  #endif /* _HAS_ITERATOR_DEBUGGING */
; 210  : 
; 211  : 		return (_Myptr == _Right._Myptr);

	mov	eax, DWORD PTR [esi+4]
	xor	ecx, ecx
	cmp	eax, DWORD PTR [edi+4]
	pop	edi
	sete	cl
	mov	al, cl
	pop	esi

; 212  : 		}

	ret	4
??8?$_Vector_const_iterator@HV?$allocator@H@std@@@std@@QBE_NABV01@@Z ENDP ; std::_Vector_const_iterator<int,std::allocator<int> >::operator==
; Function compile flags: /Ogtpy
_TEXT	ENDS
;	COMDAT ??0?$_Vector_iterator@HV?$allocator@H@std@@@std@@QAE@PAHPBV_Container_base_aux@1@@Z
_TEXT	SEGMENT
__Ptr$ = 8						; size = 4
__Pvector$ = 12						; size = 4
??0?$_Vector_iterator@HV?$allocator@H@std@@@std@@QAE@PAHPBV_Container_base_aux@1@@Z PROC ; std::_Vector_iterator<int,std::allocator<int> >::_Vector_iterator<int,std::allocator<int> >, COMDAT
; _this$ = ecx

; 327  : 		{	// construct with pointer _Ptr

	push	ebx
	mov	ebx, DWORD PTR __Ptr$[esp]
	push	esi
	push	edi
	mov	edi, DWORD PTR __Pvector$[esp+8]
	mov	esi, ecx
	mov	DWORD PTR [esi], 0
	test	edi, edi
	je	SHORT $LN6@Vector_ite@2
	cmp	DWORD PTR [edi+12], ebx
	ja	SHORT $LN6@Vector_ite@2
	cmp	ebx, DWORD PTR [edi+16]
	jbe	SHORT $LN5@Vector_ite@2
$LN6@Vector_ite@2:
	call	__invalid_parameter_noinfo
$LN5@Vector_ite@2:
	mov	eax, DWORD PTR [edi]
	mov	DWORD PTR [esi], eax
	pop	edi
	mov	DWORD PTR [esi+4], ebx

; 328  : 		}

	mov	eax, esi
	pop	esi
	pop	ebx
	ret	8
??0?$_Vector_iterator@HV?$allocator@H@std@@@std@@QAE@PAHPBV_Container_base_aux@1@@Z ENDP ; std::_Vector_iterator<int,std::allocator<int> >::_Vector_iterator<int,std::allocator<int> >
; Function compile flags: /Ogtpy
; File c:\program files (x86)\microsoft visual studio 9.0\vc\include\xutility
_TEXT	ENDS
;	COMDAT ??1?$_Container_base_aux_alloc_real@V?$allocator@H@std@@@std@@IAE@XZ
_TEXT	SEGMENT
??1?$_Container_base_aux_alloc_real@V?$allocator@H@std@@@std@@IAE@XZ PROC ; std::_Container_base_aux_alloc_real<std::allocator<int> >::~_Container_base_aux_alloc_real<std::allocator<int> >, COMDAT
; _this$ = ecx

; 437  : 		_Myownedaux->~_Aux_cont();
; 438  : 
; 439  : 		_Alaux.deallocate(_Myownedaux, 1);

	mov	eax, DWORD PTR [ecx]
	push	eax
	call	??3@YAXPAX@Z				; operator delete
	pop	ecx

; 440  : 		}

	ret	0
??1?$_Container_base_aux_alloc_real@V?$allocator@H@std@@@std@@IAE@XZ ENDP ; std::_Container_base_aux_alloc_real<std::allocator<int> >::~_Container_base_aux_alloc_real<std::allocator<int> >
; Function compile flags: /Ogtpy
; File c:\program files (x86)\microsoft visual studio 9.0\vc\include\vector
_TEXT	ENDS
;	COMDAT ?_Ufill@?$vector@HV?$allocator@H@std@@@std@@IAEPAHPAHIABH@Z
_TEXT	SEGMENT
__Ptr$ = 8						; size = 4
__Count$ = 12						; size = 4
__Val$ = 16						; size = 4
?_Ufill@?$vector@HV?$allocator@H@std@@@std@@IAEPAHPAHIABH@Z PROC ; std::vector<int,std::allocator<int> >::_Ufill, COMDAT
; _this$ = ecx

; 1251 : 		{	// copy initializing _Count * _Val, using allocator

	push	esi

; 1252 : 		_STDEXT unchecked_uninitialized_fill_n(_Ptr, _Count, _Val, this->_Alval);

	mov	esi, DWORD PTR __Count$[esp]
	push	edi
	mov	edi, DWORD PTR __Ptr$[esp+4]
	mov	eax, esi
	mov	ecx, edi
	test	esi, esi
	jbe	SHORT $LN26@Ufill
	mov	edx, DWORD PTR __Val$[esp+4]
	push	ebx
$LL21@Ufill:
	mov	ebx, DWORD PTR [edx]
	mov	DWORD PTR [ecx], ebx
	dec	eax
	add	ecx, 4
	test	eax, eax
	ja	SHORT $LL21@Ufill
	pop	ebx
$LN26@Ufill:

; 1253 : 		return (_Ptr + _Count);

	lea	eax, DWORD PTR [edi+esi*4]
	pop	edi
	pop	esi

; 1254 : 		}

	ret	12					; 0000000cH
?_Ufill@?$vector@HV?$allocator@H@std@@@std@@IAEPAHPAHIABH@Z ENDP ; std::vector<int,std::allocator<int> >::_Ufill
; Function compile flags: /Ogtpy
; File c:\program files (x86)\microsoft visual studio 9.0\vc\include\xmemory
_TEXT	ENDS
;	COMDAT ?allocate@?$allocator@U?$pair@_K_K@std@@@std@@QAEPAU?$pair@_K_K@2@I@Z
_TEXT	SEGMENT
$T236564 = -16						; size = 4
$T236566 = -12						; size = 12
?allocate@?$allocator@U?$pair@_K_K@std@@@std@@QAEPAU?$pair@_K_K@2@I@Z PROC ; std::allocator<std::pair<unsigned __int64,unsigned __int64> >::allocate, COMDAT
; __Count$ = ecx

; 144  : 		{	// allocate array of _Count elements

	sub	esp, 16					; 00000010H

; 145  : 		return (_Allocate(_Count, (pointer)0));

	test	ecx, ecx
	ja	SHORT $LN5@allocate
	xor	ecx, ecx
$LN3@allocate:
	shl	ecx, 4
	push	ecx
	call	??2@YAPAXI@Z				; operator new
	add	esp, 4

; 146  : 		}

	add	esp, 16					; 00000010H
	ret	0

; 145  : 		return (_Allocate(_Count, (pointer)0));

$LN5@allocate:
	or	eax, -1
	xor	edx, edx
	div	ecx
	cmp	eax, 16					; 00000010H
	jae	SHORT $LN3@allocate
	lea	eax, DWORD PTR $T236564[esp+16]
	push	eax
	lea	ecx, DWORD PTR $T236566[esp+20]
	mov	DWORD PTR $T236564[esp+20], 0
	call	??0exception@std@@QAE@ABQBD@Z		; std::exception::exception
	push	OFFSET __TI2?AVbad_alloc@std@@
	lea	ecx, DWORD PTR $T236566[esp+20]
	push	ecx
	mov	DWORD PTR $T236566[esp+24], OFFSET ??_7bad_alloc@std@@6B@
	call	__CxxThrowException@8
$LN12@allocate:
$LN11@allocate:
	int	3
?allocate@?$allocator@U?$pair@_K_K@std@@@std@@QAEPAU?$pair@_K_K@2@I@Z ENDP ; std::allocator<std::pair<unsigned __int64,unsigned __int64> >::allocate
; Function compile flags: /Ogtpy
; File c:\program files (x86)\microsoft visual studio 9.0\vc\include\xutility
_TEXT	ENDS
;	COMDAT ??1?$_Container_base_aux_alloc_real@V?$allocator@U?$pair@_K_K@std@@@std@@@std@@IAE@XZ
_TEXT	SEGMENT
??1?$_Container_base_aux_alloc_real@V?$allocator@U?$pair@_K_K@std@@@std@@@std@@IAE@XZ PROC ; std::_Container_base_aux_alloc_real<std::allocator<std::pair<unsigned __int64,unsigned __int64> > >::~_Container_base_aux_alloc_real<std::allocator<std::pair<unsigned __int64,unsigned __int64> > >, COMDAT
; _this$ = eax

; 437  : 		_Myownedaux->~_Aux_cont();
; 438  : 
; 439  : 		_Alaux.deallocate(_Myownedaux, 1);

	mov	ecx, DWORD PTR [eax]
	push	ecx
	call	??3@YAXPAX@Z				; operator delete
	pop	ecx

; 440  : 		}

	ret	0
??1?$_Container_base_aux_alloc_real@V?$allocator@U?$pair@_K_K@std@@@std@@@std@@IAE@XZ ENDP ; std::_Container_base_aux_alloc_real<std::allocator<std::pair<unsigned __int64,unsigned __int64> > >::~_Container_base_aux_alloc_real<std::allocator<std::pair<unsigned __int64,unsigned __int64> > >
; Function compile flags: /Ogtpy
; File c:\program files (x86)\microsoft visual studio 9.0\vc\include\vector
_TEXT	ENDS
;	COMDAT ?_Ufill@?$vector@U?$pair@_K_K@std@@V?$allocator@U?$pair@_K_K@std@@@2@@std@@IAEPAU?$pair@_K_K@2@PAU32@IABU32@@Z
_TEXT	SEGMENT
$T236599 = -4						; size = 1
__Cat$236603 = -4					; size = 1
?_Ufill@?$vector@U?$pair@_K_K@std@@V?$allocator@U?$pair@_K_K@std@@@2@@std@@IAEPAU?$pair@_K_K@2@PAU32@IABU32@@Z PROC ; std::vector<std::pair<unsigned __int64,unsigned __int64>,std::allocator<std::pair<unsigned __int64,unsigned __int64> > >::_Ufill, COMDAT
; __Ptr$ = edi
; __Count$ = esi
; __Val$ = edx

; 1251 : 		{	// copy initializing _Count * _Val, using allocator

	push	ecx

; 1252 : 		_STDEXT unchecked_uninitialized_fill_n(_Ptr, _Count, _Val, this->_Alval);

	mov	BYTE PTR $T236599[esp+4], 0
	mov	eax, DWORD PTR $T236599[esp+4]
	mov	ecx, DWORD PTR __Cat$236603[esp+4]
	push	eax
	push	ecx
	push	edi
	mov	ecx, esi
	call	??$_Uninit_fill_n@PAU?$pair@_K_K@std@@IU12@V?$allocator@U?$pair@_K_K@std@@@2@@std@@YAXPAU?$pair@_K_K@0@IABU10@AAV?$allocator@U?$pair@_K_K@std@@@0@U_Nonscalar_ptr_iterator_tag@0@U_Range_checked_iterator_tag@0@@Z ; std::_Uninit_fill_n<std::pair<unsigned __int64,unsigned __int64> *,unsigned int,std::pair<unsigned __int64,unsigned __int64>,std::allocator<std::pair<unsigned __int64,unsigned __int64> > >

; 1253 : 		return (_Ptr + _Count);

	mov	eax, esi
	shl	eax, 4
	add	eax, edi

; 1254 : 		}

	add	esp, 16					; 00000010H
	ret	0
?_Ufill@?$vector@U?$pair@_K_K@std@@V?$allocator@U?$pair@_K_K@std@@@2@@std@@IAEPAU?$pair@_K_K@2@PAU32@IABU32@@Z ENDP ; std::vector<std::pair<unsigned __int64,unsigned __int64>,std::allocator<std::pair<unsigned __int64,unsigned __int64> > >::_Ufill
; Function compile flags: /Ogtpy
_TEXT	ENDS
;	COMDAT ?_Tidy@?$vector@U?$pair@_K_K@std@@V?$allocator@U?$pair@_K_K@std@@@2@@std@@IAEXXZ
_TEXT	SEGMENT
?_Tidy@?$vector@U?$pair@_K_K@std@@V?$allocator@U?$pair@_K_K@std@@@2@@std@@IAEXXZ PROC ; std::vector<std::pair<unsigned __int64,unsigned __int64>,std::allocator<std::pair<unsigned __int64,unsigned __int64> > >::_Tidy, COMDAT
; _this$ = esi

; 1129 : 		if (_Myfirst != 0)

	mov	eax, DWORD PTR [esi+12]
	test	eax, eax
	je	SHORT $LN4@Tidy@2

; 1130 : 			{	// something to free, destroy and deallocate it
; 1131 : 
; 1132 :  #if _HAS_ITERATOR_DEBUGGING
; 1133 : 			this->_Orphan_all();
; 1134 :  #endif /* _HAS_ITERATOR_DEBUGGING */
; 1135 : 
; 1136 : 			_Destroy(_Myfirst, _Mylast);
; 1137 : 			this->_Alval.deallocate(_Myfirst, _Myend - _Myfirst);

	push	eax
	call	??3@YAXPAX@Z				; operator delete
	add	esp, 4
$LN4@Tidy@2:

; 1138 : 			}
; 1139 : 		_Myfirst = 0, _Mylast = 0, _Myend = 0;

	mov	DWORD PTR [esi+12], 0
	mov	DWORD PTR [esi+16], 0
	mov	DWORD PTR [esi+20], 0

; 1140 : 		}

	ret	0
?_Tidy@?$vector@U?$pair@_K_K@std@@V?$allocator@U?$pair@_K_K@std@@@2@@std@@IAEXXZ ENDP ; std::vector<std::pair<unsigned __int64,unsigned __int64>,std::allocator<std::pair<unsigned __int64,unsigned __int64> > >::_Tidy
; Function compile flags: /Ogtpy
_TEXT	ENDS
;	COMDAT ??1?$_Vector_val@HV?$allocator@H@std@@@std@@QAE@XZ
_TEXT	SEGMENT
??1?$_Vector_val@HV?$allocator@H@std@@@std@@QAE@XZ PROC	; std::_Vector_val<int,std::allocator<int> >::~_Vector_val<int,std::allocator<int> >, COMDAT
; _this$ = ecx
	mov	eax, DWORD PTR [ecx]
	push	eax
	call	??3@YAXPAX@Z				; operator delete
	pop	ecx
	ret	0
??1?$_Vector_val@HV?$allocator@H@std@@@std@@QAE@XZ ENDP	; std::_Vector_val<int,std::allocator<int> >::~_Vector_val<int,std::allocator<int> >
; Function compile flags: /Ogtpy
_TEXT	ENDS
;	COMDAT ??1?$_Vector_val@U?$pair@_K_K@std@@V?$allocator@U?$pair@_K_K@std@@@2@@std@@QAE@XZ
_TEXT	SEGMENT
??1?$_Vector_val@U?$pair@_K_K@std@@V?$allocator@U?$pair@_K_K@std@@@2@@std@@QAE@XZ PROC ; std::_Vector_val<std::pair<unsigned __int64,unsigned __int64>,std::allocator<std::pair<unsigned __int64,unsigned __int64> > >::~_Vector_val<std::pair<unsigned __int64,unsigned __int64>,std::allocator<std::pair<unsigned __int64,unsigned __int64> > >, COMDAT
; _this$ = eax
	mov	ecx, DWORD PTR [eax]
	push	ecx
	call	??3@YAXPAX@Z				; operator delete
	pop	ecx
	ret	0
??1?$_Vector_val@U?$pair@_K_K@std@@V?$allocator@U?$pair@_K_K@std@@@2@@std@@QAE@XZ ENDP ; std::_Vector_val<std::pair<unsigned __int64,unsigned __int64>,std::allocator<std::pair<unsigned __int64,unsigned __int64> > >::~_Vector_val<std::pair<unsigned __int64,unsigned __int64>,std::allocator<std::pair<unsigned __int64,unsigned __int64> > >
; Function compile flags: /Ogtpy
_TEXT	ENDS
;	COMDAT ??8?$_Vector_const_iterator@U?$pair@_K_K@std@@V?$allocator@U?$pair@_K_K@std@@@2@@std@@QBE_NABV01@@Z
_TEXT	SEGMENT
??8?$_Vector_const_iterator@U?$pair@_K_K@std@@V?$allocator@U?$pair@_K_K@std@@@2@@std@@QBE_NABV01@@Z PROC ; std::_Vector_const_iterator<std::pair<unsigned __int64,unsigned __int64>,std::allocator<std::pair<unsigned __int64,unsigned __int64> > >::operator==, COMDAT
; _this$ = edi
; __Right$ = esi

; 204  : 
; 205  :  #if _HAS_ITERATOR_DEBUGGING
; 206  : 		_Compat(_Right);
; 207  :  #else
; 208  : 		_SCL_SECURE_VALIDATE(this->_Has_container() && this->_Same_container(_Right));

	mov	eax, DWORD PTR [edi]
	test	eax, eax
	je	SHORT $LN4@operator@5
	cmp	eax, DWORD PTR [esi]
	je	SHORT $LN3@operator@5
$LN4@operator@5:
	call	__invalid_parameter_noinfo
$LN3@operator@5:

; 209  :  #endif /* _HAS_ITERATOR_DEBUGGING */
; 210  : 
; 211  : 		return (_Myptr == _Right._Myptr);

	mov	eax, DWORD PTR [edi+4]
	xor	ecx, ecx
	cmp	eax, DWORD PTR [esi+4]
	sete	cl
	mov	al, cl

; 212  : 		}

	ret	0
??8?$_Vector_const_iterator@U?$pair@_K_K@std@@V?$allocator@U?$pair@_K_K@std@@@2@@std@@QBE_NABV01@@Z ENDP ; std::_Vector_const_iterator<std::pair<unsigned __int64,unsigned __int64>,std::allocator<std::pair<unsigned __int64,unsigned __int64> > >::operator==
; Function compile flags: /Ogtpy
_TEXT	ENDS
;	COMDAT ??9?$_Vector_const_iterator@HV?$allocator@H@std@@@std@@QBE_NABV01@@Z
_TEXT	SEGMENT
__Right$ = 8						; size = 4
??9?$_Vector_const_iterator@HV?$allocator@H@std@@@std@@QBE_NABV01@@Z PROC ; std::_Vector_const_iterator<int,std::allocator<int> >::operator!=, COMDAT
; _this$ = ecx

; 215  : 		{	// test for iterator inequality

	push	esi
	mov	esi, ecx

; 216  : 		return (!(*this == _Right));

	mov	eax, DWORD PTR [esi]
	push	edi
	mov	edi, DWORD PTR __Right$[esp+4]
	test	eax, eax
	je	SHORT $LN6@operator@6
	cmp	eax, DWORD PTR [edi]
	je	SHORT $LN5@operator@6
$LN6@operator@6:
	call	__invalid_parameter_noinfo
$LN5@operator@6:
	mov	eax, DWORD PTR [esi+4]
	xor	ecx, ecx
	cmp	eax, DWORD PTR [edi+4]
	pop	edi
	setne	cl
	mov	al, cl
	pop	esi

; 217  : 		}

	ret	4
??9?$_Vector_const_iterator@HV?$allocator@H@std@@@std@@QBE_NABV01@@Z ENDP ; std::_Vector_const_iterator<int,std::allocator<int> >::operator!=
; Function compile flags: /Ogtpy
_TEXT	ENDS
;	COMDAT ?end@?$vector@HV?$allocator@H@std@@@std@@QAE?AV?$_Vector_iterator@HV?$allocator@H@std@@@2@XZ
_TEXT	SEGMENT
___$ReturnUdt$ = 8					; size = 4
?end@?$vector@HV?$allocator@H@std@@@std@@QAE?AV?$_Vector_iterator@HV?$allocator@H@std@@@2@XZ PROC ; std::vector<int,std::allocator<int> >::end, COMDAT
; _this$ = ecx

; 650  : 		{	// return iterator for end of mutable sequence

	push	ebx
	push	esi
	mov	esi, ecx

; 651  : 		return (iterator(_Mylast, this));

	mov	ebx, DWORD PTR [esi+16]
	push	edi
	mov	edi, DWORD PTR ___$ReturnUdt$[esp+8]
	mov	DWORD PTR [edi], 0
	cmp	DWORD PTR [esi+12], ebx
	jbe	SHORT $LN7@end@2
	call	__invalid_parameter_noinfo
$LN7@end@2:
	mov	eax, DWORD PTR [esi]
	mov	DWORD PTR [edi], eax
	mov	DWORD PTR [edi+4], ebx
	mov	eax, edi
	pop	edi
	pop	esi
	pop	ebx

; 652  : 		}

	ret	4
?end@?$vector@HV?$allocator@H@std@@@std@@QAE?AV?$_Vector_iterator@HV?$allocator@H@std@@@2@XZ ENDP ; std::vector<int,std::allocator<int> >::end
; Function compile flags: /Ogtpy
_TEXT	ENDS
;	COMDAT ?begin@?$vector@HV?$allocator@H@std@@@std@@QAE?AV?$_Vector_iterator@HV?$allocator@H@std@@@2@XZ
_TEXT	SEGMENT
___$ReturnUdt$ = 8					; size = 4
?begin@?$vector@HV?$allocator@H@std@@@std@@QAE?AV?$_Vector_iterator@HV?$allocator@H@std@@@2@XZ PROC ; std::vector<int,std::allocator<int> >::begin, COMDAT
; _this$ = ecx

; 640  : 		{	// return iterator for beginning of mutable sequence

	push	ebx
	push	esi
	mov	esi, ecx

; 641  : 		return (iterator(_Myfirst, this));

	mov	ebx, DWORD PTR [esi+12]
	push	edi
	mov	edi, DWORD PTR ___$ReturnUdt$[esp+8]
	mov	DWORD PTR [edi], 0
	cmp	ebx, DWORD PTR [esi+16]
	jbe	SHORT $LN7@begin@2
	call	__invalid_parameter_noinfo
$LN7@begin@2:
	mov	eax, DWORD PTR [esi]
	mov	DWORD PTR [edi], eax
	mov	DWORD PTR [edi+4], ebx
	mov	eax, edi
	pop	edi
	pop	esi
	pop	ebx

; 642  : 		}

	ret	4
?begin@?$vector@HV?$allocator@H@std@@@std@@QAE?AV?$_Vector_iterator@HV?$allocator@H@std@@@2@XZ ENDP ; std::vector<int,std::allocator<int> >::begin
_TEXT	ENDS
;	COMDAT xdata$x
; File c:\program files (x86)\microsoft visual studio 9.0\vc\include\xutility
xdata$x	SEGMENT
__unwindtable$??1?$vector@HV?$allocator@H@std@@@std@@QAE@XZ DD 0ffffffffH
	DD	FLAT:__unwindfunclet$??1?$vector@HV?$allocator@H@std@@@std@@QAE@XZ$0
__ehfuncinfo$??1?$vector@HV?$allocator@H@std@@@std@@QAE@XZ DD 019930522H
	DD	01H
	DD	FLAT:__unwindtable$??1?$vector@HV?$allocator@H@std@@@std@@QAE@XZ
	DD	2 DUP(00H)
	DD	2 DUP(00H)
	DD	00H
	DD	01H
; Function compile flags: /Ogtpy
; File c:\program files (x86)\microsoft visual studio 9.0\vc\include\vector
xdata$x	ENDS
;	COMDAT ??1?$vector@HV?$allocator@H@std@@@std@@QAE@XZ
_TEXT	SEGMENT
_this$ = -16						; size = 4
__$EHRec$ = -12						; size = 12
??1?$vector@HV?$allocator@H@std@@@std@@QAE@XZ PROC	; std::vector<int,std::allocator<int> >::~vector<int,std::allocator<int> >, COMDAT
; _this$ = ecx

; 558  : 		{	// destroy the object

	push	-1
	push	__ehhandler$??1?$vector@HV?$allocator@H@std@@@std@@QAE@XZ
	mov	eax, DWORD PTR fs:0
	push	eax
	mov	DWORD PTR fs:0, esp
	push	ecx
	push	esi
	mov	esi, ecx
	push	edi
	mov	DWORD PTR _this$[esp+24], esi
	xor	edi, edi
	mov	DWORD PTR __$EHRec$[esp+32], edi

; 559  : 		_Tidy();

	mov	eax, DWORD PTR [esi+12]
	cmp	eax, edi
	je	SHORT $LN7@vector
	push	eax
	call	??3@YAXPAX@Z				; operator delete
	add	esp, 4
$LN7@vector:

; 560  : 		}

	mov	DWORD PTR __$EHRec$[esp+32], -1
	mov	eax, DWORD PTR [esi]
	push	eax
	mov	DWORD PTR [esi+12], edi
	mov	DWORD PTR [esi+16], edi
	mov	DWORD PTR [esi+20], edi
	call	??3@YAXPAX@Z				; operator delete
	mov	ecx, DWORD PTR __$EHRec$[esp+28]
	add	esp, 4
	pop	edi
	pop	esi
	mov	DWORD PTR fs:0, ecx
	add	esp, 16					; 00000010H
	ret	0
_TEXT	ENDS
;	COMDAT text$x
text$x	SEGMENT
__unwindfunclet$??1?$vector@HV?$allocator@H@std@@@std@@QAE@XZ$0:
	mov	ecx, DWORD PTR _this$[ebp]
	jmp	??1?$_Vector_val@HV?$allocator@H@std@@@std@@QAE@XZ
__ehhandler$??1?$vector@HV?$allocator@H@std@@@std@@QAE@XZ:
	mov	eax, OFFSET __ehfuncinfo$??1?$vector@HV?$allocator@H@std@@@std@@QAE@XZ
	jmp	___CxxFrameHandler3
text$x	ENDS
??1?$vector@HV?$allocator@H@std@@@std@@QAE@XZ ENDP	; std::vector<int,std::allocator<int> >::~vector<int,std::allocator<int> >
; Function compile flags: /Ogtpy
;	COMDAT ?empty@?$vector@U?$pair@_K_K@std@@V?$allocator@U?$pair@_K_K@std@@@2@@std@@QBE_NXZ
_TEXT	SEGMENT
?empty@?$vector@U?$pair@_K_K@std@@V?$allocator@U?$pair@_K_K@std@@@2@@std@@QBE_NXZ PROC ; std::vector<std::pair<unsigned __int64,unsigned __int64>,std::allocator<std::pair<unsigned __int64,unsigned __int64> > >::empty, COMDAT
; _this$ = ecx

; 736  : 		return (size() == 0);

	mov	eax, DWORD PTR [ecx+16]
	sub	eax, DWORD PTR [ecx+12]
	and	eax, -16				; fffffff0H
	neg	eax
	sbb	eax, eax
	inc	eax

; 737  : 		}

	ret	0
?empty@?$vector@U?$pair@_K_K@std@@V?$allocator@U?$pair@_K_K@std@@@2@@std@@QBE_NXZ ENDP ; std::vector<std::pair<unsigned __int64,unsigned __int64>,std::allocator<std::pair<unsigned __int64,unsigned __int64> > >::empty
; Function compile flags: /Ogtpy
_TEXT	ENDS
;	COMDAT ?end@?$vector@U?$pair@_K_K@std@@V?$allocator@U?$pair@_K_K@std@@@2@@std@@QAE?AV?$_Vector_iterator@U?$pair@_K_K@std@@V?$allocator@U?$pair@_K_K@std@@@2@@2@XZ
_TEXT	SEGMENT
?end@?$vector@U?$pair@_K_K@std@@V?$allocator@U?$pair@_K_K@std@@@2@@std@@QAE?AV?$_Vector_iterator@U?$pair@_K_K@std@@V?$allocator@U?$pair@_K_K@std@@@2@@2@XZ PROC ; std::vector<std::pair<unsigned __int64,unsigned __int64>,std::allocator<std::pair<unsigned __int64,unsigned __int64> > >::end, COMDAT
; _this$ = edi
; ___$ReturnUdt$ = esi

; 650  : 		{	// return iterator for end of mutable sequence

	push	ebx

; 651  : 		return (iterator(_Mylast, this));

	mov	ebx, DWORD PTR [edi+16]
	mov	DWORD PTR [esi], 0
	cmp	DWORD PTR [edi+12], ebx
	jbe	SHORT $LN7@end@3
	call	__invalid_parameter_noinfo
$LN7@end@3:
	mov	eax, DWORD PTR [edi]
	mov	DWORD PTR [esi], eax
	mov	DWORD PTR [esi+4], ebx
	mov	eax, esi
	pop	ebx

; 652  : 		}

	ret	0
?end@?$vector@U?$pair@_K_K@std@@V?$allocator@U?$pair@_K_K@std@@@2@@std@@QAE?AV?$_Vector_iterator@U?$pair@_K_K@std@@V?$allocator@U?$pair@_K_K@std@@@2@@2@XZ ENDP ; std::vector<std::pair<unsigned __int64,unsigned __int64>,std::allocator<std::pair<unsigned __int64,unsigned __int64> > >::end
; Function compile flags: /Ogtpy
_TEXT	ENDS
;	COMDAT ?begin@?$vector@U?$pair@_K_K@std@@V?$allocator@U?$pair@_K_K@std@@@2@@std@@QAE?AV?$_Vector_iterator@U?$pair@_K_K@std@@V?$allocator@U?$pair@_K_K@std@@@2@@2@XZ
_TEXT	SEGMENT
?begin@?$vector@U?$pair@_K_K@std@@V?$allocator@U?$pair@_K_K@std@@@2@@std@@QAE?AV?$_Vector_iterator@U?$pair@_K_K@std@@V?$allocator@U?$pair@_K_K@std@@@2@@2@XZ PROC ; std::vector<std::pair<unsigned __int64,unsigned __int64>,std::allocator<std::pair<unsigned __int64,unsigned __int64> > >::begin, COMDAT
; _this$ = edi
; ___$ReturnUdt$ = esi

; 640  : 		{	// return iterator for beginning of mutable sequence

	push	ebx

; 641  : 		return (iterator(_Myfirst, this));

	mov	ebx, DWORD PTR [edi+12]
	mov	DWORD PTR [esi], 0
	cmp	ebx, DWORD PTR [edi+16]
	jbe	SHORT $LN7@begin@3
	call	__invalid_parameter_noinfo
$LN7@begin@3:
	mov	eax, DWORD PTR [edi]
	mov	DWORD PTR [esi], eax
	mov	DWORD PTR [esi+4], ebx
	mov	eax, esi
	pop	ebx

; 642  : 		}

	ret	0
?begin@?$vector@U?$pair@_K_K@std@@V?$allocator@U?$pair@_K_K@std@@@2@@std@@QAE?AV?$_Vector_iterator@U?$pair@_K_K@std@@V?$allocator@U?$pair@_K_K@std@@@2@@2@XZ ENDP ; std::vector<std::pair<unsigned __int64,unsigned __int64>,std::allocator<std::pair<unsigned __int64,unsigned __int64> > >::begin
_TEXT	ENDS
;	COMDAT xdata$x
; File c:\program files (x86)\microsoft visual studio 9.0\vc\include\xutility
xdata$x	SEGMENT
__unwindtable$??1?$vector@U?$pair@_K_K@std@@V?$allocator@U?$pair@_K_K@std@@@2@@std@@QAE@XZ DD 0ffffffffH
	DD	FLAT:__unwindfunclet$??1?$vector@U?$pair@_K_K@std@@V?$allocator@U?$pair@_K_K@std@@@2@@std@@QAE@XZ$0
__ehfuncinfo$??1?$vector@U?$pair@_K_K@std@@V?$allocator@U?$pair@_K_K@std@@@2@@std@@QAE@XZ DD 019930522H
	DD	01H
	DD	FLAT:__unwindtable$??1?$vector@U?$pair@_K_K@std@@V?$allocator@U?$pair@_K_K@std@@@2@@std@@QAE@XZ
	DD	2 DUP(00H)
	DD	2 DUP(00H)
	DD	00H
	DD	01H
; Function compile flags: /Ogtpy
; File c:\program files (x86)\microsoft visual studio 9.0\vc\include\vector
xdata$x	ENDS
;	COMDAT ??1?$vector@U?$pair@_K_K@std@@V?$allocator@U?$pair@_K_K@std@@@2@@std@@QAE@XZ
_TEXT	SEGMENT
__$EHRec$ = -12						; size = 12
_this$ = 8						; size = 4
??1?$vector@U?$pair@_K_K@std@@V?$allocator@U?$pair@_K_K@std@@@2@@std@@QAE@XZ PROC ; std::vector<std::pair<unsigned __int64,unsigned __int64>,std::allocator<std::pair<unsigned __int64,unsigned __int64> > >::~vector<std::pair<unsigned __int64,unsigned __int64>,std::allocator<std::pair<unsigned __int64,unsigned __int64> > >, COMDAT

; 558  : 		{	// destroy the object

	mov	eax, DWORD PTR fs:0
	push	-1
	push	__ehhandler$??1?$vector@U?$pair@_K_K@std@@V?$allocator@U?$pair@_K_K@std@@@2@@std@@QAE@XZ
	push	eax
	mov	DWORD PTR fs:0, esp
	push	esi
	mov	esi, DWORD PTR _this$[esp+12]
	push	edi
	xor	edi, edi
	mov	DWORD PTR __$EHRec$[esp+28], edi

; 559  : 		_Tidy();

	mov	eax, DWORD PTR [esi+12]
	cmp	eax, edi
	je	SHORT $LN7@vector@2
	push	eax
	call	??3@YAXPAX@Z				; operator delete
	add	esp, 4
$LN7@vector@2:

; 560  : 		}

	mov	DWORD PTR __$EHRec$[esp+28], -1
	mov	eax, DWORD PTR [esi]
	push	eax
	mov	DWORD PTR [esi+12], edi
	mov	DWORD PTR [esi+16], edi
	mov	DWORD PTR [esi+20], edi
	call	??3@YAXPAX@Z				; operator delete
	mov	ecx, DWORD PTR __$EHRec$[esp+24]
	add	esp, 4
	pop	edi
	mov	DWORD PTR fs:0, ecx
	pop	esi
	add	esp, 12					; 0000000cH
	ret	4
_TEXT	ENDS
;	COMDAT text$x
text$x	SEGMENT
__unwindfunclet$??1?$vector@U?$pair@_K_K@std@@V?$allocator@U?$pair@_K_K@std@@@2@@std@@QAE@XZ$0:
	mov	eax, DWORD PTR _this$[ebp-4]
	jmp	??1?$_Vector_val@U?$pair@_K_K@std@@V?$allocator@U?$pair@_K_K@std@@@2@@std@@QAE@XZ
__ehhandler$??1?$vector@U?$pair@_K_K@std@@V?$allocator@U?$pair@_K_K@std@@@2@@std@@QAE@XZ:
	mov	eax, OFFSET __ehfuncinfo$??1?$vector@U?$pair@_K_K@std@@V?$allocator@U?$pair@_K_K@std@@@2@@std@@QAE@XZ
	jmp	___CxxFrameHandler3
text$x	ENDS
??1?$vector@U?$pair@_K_K@std@@V?$allocator@U?$pair@_K_K@std@@@2@@std@@QAE@XZ ENDP ; std::vector<std::pair<unsigned __int64,unsigned __int64>,std::allocator<std::pair<unsigned __int64,unsigned __int64> > >::~vector<std::pair<unsigned __int64,unsigned __int64>,std::allocator<std::pair<unsigned __int64,unsigned __int64> > >
PUBLIC	?Draw@Rasterizer@@QAE?AVCRect@@AAUSubPicDesc@@AAV2@PAEHHPBJ_N4@Z ; Rasterizer::Draw
; Function compile flags: /Ogtpy
; File d:\-=svn=-\svplayer\src\subtitles\rasterizer.cpp
;	COMDAT ?Draw@Rasterizer@@QAE?AVCRect@@AAUSubPicDesc@@AAV2@PAEHHPBJ_N4@Z
_TEXT	SEGMENT
_fSSE2$ = -93						; size = 1
_src$ = -92						; size = 4
tv4428 = -88						; size = 4
tv2030 = -88						; size = 4
tv1917 = -88						; size = 4
_xo$ = -84						; size = 4
tv3714 = -80						; size = 4
tv3483 = -80						; size = 4
tv2369 = -80						; size = 4
tv1927 = -80						; size = 4
tv1870 = -80						; size = 4
_s$ = -76						; size = 4
_w$ = -72						; size = 4
_am$ = -68						; size = 4
_h$ = -64						; size = 4
tv1933 = -60						; size = 4
_sw$131265 = -60					; size = 4
_sw$131201 = -60					; size = 4
tv4580 = -56						; size = 4
tv3837 = -56						; size = 4
_ia$237273 = -56					; size = 4
_ia$237218 = -56					; size = 4
_ia$237107 = -56					; size = 4
_ia$237054 = -56					; size = 4
_wt$131296 = -56					; size = 4
_wt$131287 = -56					; size = 4
_wt$131268 = -56					; size = 4
_wt$131223 = -56					; size = 4
_wt$131213 = -56					; size = 4
_y$ = -56						; size = 4
tv4757 = -52						; size = 4
tv4601 = -52						; size = 4
tv3570 = -52						; size = 4
tv3396 = -52						; size = 4
tv3138 = -52						; size = 4
_wt$131277 = -52					; size = 4
_wt$131260 = -52					; size = 4
_wt$131249 = -52					; size = 4
_wt$131232 = -52					; size = 4
_wt$131196 = -52					; size = 4
_wt$131180 = -52					; size = 4
_yo$ = -52						; size = 4
tv4909 = -48						; size = 4
tv4355 = -48						; size = 4
tv4334 = -48						; size = 4
tv4051 = -48						; size = 4
tv3589 = -48						; size = 4
tv3377 = -48						; size = 4
_ia$237304 = -48					; size = 4
_ia$237188 = -48					; size = 4
_ia$237135 = -48					; size = 4
_wt$131255 = -48					; size = 4
_wt$131244 = -48					; size = 4
_wt$131204 = -48					; size = 4
_wt$131191 = -48					; size = 4
_wt$131185 = -48					; size = 4
tv5012 = -44						; size = 4
tv4469 = -44						; size = 4
_ia$237358 = -44					; size = 4
tv5010 = -40						; size = 4
_r$237316 = -40						; size = 4
_r$237230 = -40						; size = 4
_a$237134 = -40						; size = 4
_a$237357 = -36						; size = 4
_r$ = -32						; size = 16
$T237003 = -16						; size = 16
_this$ = 8						; size = 4
___$ReturnUdt$ = 12					; size = 4
_spd$ = 16						; size = 4
_clipRect$ = 20						; size = 4
_pAlphaMask$ = 24					; size = 4
_xsub$ = 28						; size = 4
_ysub$ = 32						; size = 4
_switchpts$ = 36					; size = 4
_fBody$ = 40						; size = 1
_fBorder$ = 44						; size = 1
?Draw@Rasterizer@@QAE?AVCRect@@AAUSubPicDesc@@AAV2@PAEHHPBJ_N4@Z PROC ; Rasterizer::Draw, COMDAT

; 928  : {

	push	ebp
	mov	ebp, esp
	and	esp, -16				; fffffff0H
	mov	eax, DWORD PTR ___$ReturnUdt$[ebp]
	mov	ecx, DWORD PTR _spd$[ebp]
	sub	esp, 100				; 00000064H

; 929  : 	CRect bbox(0, 0, 0, 0);

	xor	edx, edx
	push	ebx
	push	esi
	push	edi
	mov	edi, DWORD PTR _this$[ebp]
	mov	DWORD PTR [eax], edx
	mov	DWORD PTR [eax+4], edx
	mov	DWORD PTR [eax+8], edx
	mov	DWORD PTR [eax+12], edx

; 930  : 
; 931  : 	if(!switchpts || !fBody && !fBorder) return(bbox);

	cmp	DWORD PTR _switchpts$[ebp], edx
	je	$LN113@Draw
	cmp	BYTE PTR _fBody$[ebp], dl
	jne	SHORT $LN112@Draw
	cmp	BYTE PTR _fBorder$[ebp], dl
	je	$LN113@Draw
$LN112@Draw:

; 932  : 
; 933  : 	// clip
; 934  : 
; 935  : 	// Limit drawn area to intersection of rendering surface and rectangular clip area
; 936  : 	CRect r(0, 0, spd.w, spd.h);
; 937  : 	r &= clipRect;

	mov	edx, DWORD PTR _clipRect$[ebp]
	xor	eax, eax
	mov	DWORD PTR _r$[esp+112], eax
	mov	DWORD PTR _r$[esp+116], eax
	mov	eax, DWORD PTR [ecx+4]
	mov	ecx, DWORD PTR [ecx+8]
	mov	DWORD PTR _r$[esp+120], eax
	push	edx
	lea	eax, DWORD PTR _r$[esp+116]
	mov	DWORD PTR _r$[esp+128], ecx
	push	eax
	mov	ecx, eax
	push	ecx
	call	DWORD PTR __imp__IntersectRect@12

; 938  : 
; 939  : 	// Remember that all subtitle coordinates are specified in 1/8 pixels
; 940  : 	// (x+4)>>3 rounds to nearest whole pixel.
; 941  : 	// ??? What is xsub, ysub, mOffsetX and mOffsetY ?
; 942  : 	int x = (xsub + mOffsetX + 4)>>3;

	mov	edx, DWORD PTR [edi+132]
	mov	eax, DWORD PTR _xsub$[ebp]

; 943  : 	int y = (ysub + mOffsetY + 4)>>3;

	mov	ecx, DWORD PTR [edi+136]

; 944  : 	int w = mOverlayWidth;

	mov	esi, DWORD PTR [edi+116]
	lea	ebx, DWORD PTR [edx+eax+4]
	mov	edx, DWORD PTR _ysub$[ebp]
	lea	eax, DWORD PTR [ecx+edx+4]

; 945  : 	int h = mOverlayHeight;

	mov	ecx, DWORD PTR [edi+120]
	mov	DWORD PTR _h$[esp+112], ecx

; 946  : 	int xo = 0, yo = 0;

	xor	ecx, ecx
	mov	DWORD PTR _xo$[esp+112], ecx
	mov	DWORD PTR _yo$[esp+112], ecx

; 947  : 
; 948  : 	// Again, limiting?
; 949  : 	if(x < r.left) {xo = r.left-x; w -= r.left-x; x = r.left;}

	mov	ecx, DWORD PTR _r$[esp+112]
	sar	ebx, 3
	sar	eax, 3
	cmp	ebx, ecx
	mov	DWORD PTR _y$[esp+112], eax
	mov	DWORD PTR _w$[esp+112], esi
	jge	SHORT $LN110@Draw
	mov	edx, ecx
	sub	edx, ebx
	sub	ebx, ecx
	add	esi, ebx
	mov	DWORD PTR _xo$[esp+112], edx
	mov	DWORD PTR _w$[esp+112], esi
	mov	ebx, ecx
$LN110@Draw:

; 950  : 	if(y < r.top) {yo = r.top-y; h -= r.top-y; y = r.top;}

	mov	ecx, DWORD PTR _r$[esp+116]
	cmp	eax, ecx
	jge	SHORT $LN109@Draw
	mov	edx, ecx
	sub	edx, eax
	sub	eax, ecx
	add	DWORD PTR _h$[esp+112], eax
	mov	DWORD PTR _yo$[esp+112], edx
	mov	eax, ecx
	mov	DWORD PTR _y$[esp+112], ecx
$LN109@Draw:

; 951  : 	if(x+w > r.right) w = r.right-x;

	mov	ecx, DWORD PTR _r$[esp+120]
	lea	edx, DWORD PTR [esi+ebx]
	cmp	edx, ecx
	jle	SHORT $LN108@Draw
	sub	ecx, ebx
	mov	esi, ecx
	mov	DWORD PTR _w$[esp+112], esi
$LN108@Draw:

; 952  : 	if(y+h > r.bottom) h = r.bottom-y;

	mov	ecx, DWORD PTR _h$[esp+112]
	lea	edx, DWORD PTR [ecx+eax]
	mov	ecx, DWORD PTR _r$[esp+124]
	cmp	edx, ecx
	jle	SHORT $LN107@Draw
	sub	ecx, eax
	mov	DWORD PTR _h$[esp+112], ecx
$LN107@Draw:

; 953  : 
; 954  : 	// Check if there's actually anything to render
; 955  : 	if(w <= 0 || h <= 0) return(bbox);

	test	esi, esi
	jle	$LN105@Draw
	cmp	DWORD PTR _h$[esp+112], 0
	jle	$LN105@Draw

; 956  : 
; 957  : 	bbox.SetRect(x, y, x+w, y+h);

	mov	eax, DWORD PTR _y$[esp+112]
	mov	ecx, DWORD PTR _h$[esp+112]
	add	ecx, eax
	push	ecx
	lea	edx, DWORD PTR [esi+ebx]
	push	edx
	push	eax
	mov	eax, DWORD PTR ___$ReturnUdt$[ebp]
	push	ebx
	push	eax
	call	DWORD PTR __imp__SetRect@20

; 958  : 	bbox &= CRect(0, 0, spd.w, spd.h);

	xor	eax, eax
	mov	DWORD PTR $T237003[esp+112], eax
	mov	DWORD PTR $T237003[esp+116], eax
	mov	eax, DWORD PTR _spd$[ebp]
	mov	ecx, DWORD PTR [eax+4]
	mov	edx, DWORD PTR [eax+8]
	lea	eax, DWORD PTR $T237003[esp+112]
	push	eax
	mov	eax, DWORD PTR ___$ReturnUdt$[ebp]
	push	eax
	push	eax
	mov	DWORD PTR $T237003[esp+132], ecx
	mov	DWORD PTR $T237003[esp+136], edx
	call	DWORD PTR __imp__IntersectRect@12

; 959  : 
; 960  : 	// draw
; 961  : 
; 962  : 	// The alpha bitmap of the subtitles?
; 963  : 	const byte* src = mpOverlayBuffer + 2*(mOverlayWidth * yo + xo);

	mov	ecx, DWORD PTR [edi+116]
	imul	ecx, DWORD PTR _yo$[esp+112]
	add	ecx, DWORD PTR _xo$[esp+112]

; 964  : 	// s points to what the "body" to use is
; 965  : 	// If we're rendering body fill and border, src+1 points to the array of
; 966  : 	// widened regions which contain both border and fill in one.
; 967  : 	const byte* s = fBorder ? (src+1) : src;

	cmp	BYTE PTR _fBorder$[ebp], 0
	mov	edx, DWORD PTR [edi+112]
	lea	edi, DWORD PTR [edx+ecx*2]
	mov	DWORD PTR _src$[esp+112], edi
	je	SHORT $LN115@Draw
	lea	eax, DWORD PTR [edi+1]
	mov	DWORD PTR _s$[esp+112], eax
	jmp	SHORT $LN116@Draw
$LN115@Draw:
	mov	DWORD PTR _s$[esp+112], edi
$LN116@Draw:

; 968  : 	// The complex "vector clip mask" I think.
; 969  : 	const byte* am = pAlphaMask + spd.w * y + x;

	mov	ecx, DWORD PTR _spd$[ebp]
	mov	eax, DWORD PTR [ecx+4]
	mov	edx, DWORD PTR _y$[esp+112]
	imul	eax, edx
	add	eax, ebx
	add	eax, DWORD PTR _pAlphaMask$[ebp]
	mov	DWORD PTR _am$[esp+112], eax

; 970  : 	// How would this differ from src?
; 971  : 	unsigned long* dst = (unsigned long *)((char *)spd.bits + spd.pitch * y) + x;

	mov	eax, DWORD PTR [ecx+16]
	imul	eax, edx
	lea	eax, DWORD PTR [eax+ebx*4]

; 972  : 
; 973  : 	// Grab the first colour
; 974  : 	unsigned long color = switchpts[0];
; 975  : 
; 976  : 	// CPUID from VDub
; 977  : 	bool fSSE2 = !!(g_cpuid.m_flags & CCpuID::sse2);

	mov	ebx, DWORD PTR ?g_cpuid@@3VCCpuID@@A	; g_cpuid
	add	eax, DWORD PTR [ecx+24]
	mov	ecx, DWORD PTR _switchpts$[ebp]
	mov	ecx, DWORD PTR [ecx]
	shr	ebx, 3
	and	bl, 1
	mov	BYTE PTR _fSSE2$[esp+112], bl
	jmp	SHORT $LN104@Draw
	npad	8
$LL244@Draw:
	mov	bl, BYTE PTR _fSSE2$[esp+112]
$LN104@Draw:

; 978  : 
; 979  : 	// Every remaining line in the bitmap to be rendered...
; 980  : 	while(h--)
; 981  : 	{
; 982  : 		// Basic case of no complex clipping mask
; 983  : 		if(!pAlphaMask)
; 984  : 		{
; 985  : 			// If the first colour switching coordinate is at "infinite" we're
; 986  : 			// never switching and can use some simpler code.
; 987  : 			// ??? Is this optimisation really worth the extra readability issues it adds?
; 988  : 			if(switchpts[1] == 0xffffffff)

	mov	edx, DWORD PTR _switchpts$[ebp]
	dec	DWORD PTR _h$[esp+112]
	add	edx, 4
	cmp	DWORD PTR _pAlphaMask$[ebp], 0
	mov	DWORD PTR tv1870[esp+112], edx
	jne	$LN102@Draw
	cmp	DWORD PTR [edx], -1
	jne	$LN101@Draw

; 989  : 			{
; 990  : 				// fBody is true if we're rendering a fill or a shadow.
; 991  : 				if(fBody)

	cmp	BYTE PTR _fBody$[ebp], 0
	je	$LN100@Draw

; 992  : 				{
; 993  : 					// Run over every pixel, overlaying the subtitles with the fill colour
; 994  : 					if(fSSE2)

	test	bl, bl
	je	$LN99@Draw

; 995  : 						for(int wt=0; wt<w; ++wt)

	xor	ebx, ebx
	mov	DWORD PTR _wt$131180[esp+112], ebx
	test	esi, esi
	jle	$LN4@Draw
	mov	edi, ecx
	shr	edi, 24					; 00000018H
	mov	edx, ecx
	and	edx, 16777215				; 00ffffffH
	pxor	xmm0, xmm0

; 996  : 							// The <<6 is due to pixmix expecting the alpha parameter to be
; 997  : 							// the multiplication of two 6-bit unsigned numbers but we
; 998  : 							// only have one here. (No alpha mask.)
; 999  : 							pixmix_sse2(&dst[wt], color, s[wt*2]);

	movdqa	xmm2, xmm0
	movd	xmm1, edx
	mov	DWORD PTR tv1917[esp+112], edi
	punpcklbw xmm1, xmm2
	jmp	SHORT $LN98@Draw
	npad	8
$LL236@Draw:
	mov	edi, DWORD PTR tv1917[esp+112]
$LN98@Draw:
	mov	edx, DWORD PTR _s$[esp+112]
	movzx	edx, BYTE PTR [edx+ebx*2]
	imul	edx, edi
	mov	edi, DWORD PTR [eax+ebx*4]
	shr	edx, 6
	and	edx, 255				; 000000ffH
	movd	xmm0, edi
	lea	edi, DWORD PTR [edx+1]
	mov	ebx, 256				; 00000100H
	sub	ebx, edx
	shl	edi, 16					; 00000010H
	or	edi, ebx
	mov	ebx, DWORD PTR _wt$131180[esp+112]
	punpcklbw xmm0, xmm2
	punpcklwd xmm0, xmm1
	movd	xmm3, edi
	pshufd	xmm3, xmm3, 0
	pmaddwd	xmm0, xmm3
	psrld	xmm0, 8
	packssdw xmm0, xmm0
	packuswb xmm0, xmm0
	movd	edx, xmm0
	mov	DWORD PTR [eax+ebx*4], edx
	inc	ebx
	cmp	ebx, esi
	mov	DWORD PTR _wt$131180[esp+112], ebx
	jl	SHORT $LL236@Draw
	jmp	$LN246@Draw
$LN99@Draw:

; 1000 : 					else
; 1001 : 						for(int wt=0; wt<w; ++wt)

	xor	ebx, ebx
	mov	DWORD PTR _wt$131185[esp+112], ebx
	test	esi, esi
	jle	$LN4@Draw
	mov	edx, ecx
	and	edx, 16711935				; 00ff00ffH

; 1138 : 					}
; 1139 : 				}
; 1140 : 			}
; 1141 : 		}
; 1142 : 
; 1143 : 		// Step to next scanline
; 1144 : 		src += 2*mOverlayWidth;

	mov	DWORD PTR tv1927[esp+112], edx
	mov	esi, ecx
