; Listing generated by Microsoft (R) Optimizing Compiler Version 15.00.21022.08 

	TITLE	d:\-=SVN=-\svplayer\src\subtitles\libssf\Renderer.cpp
	.686P
	.XMM
	include listing.inc
	.model	flat

INCLUDELIB OLDNAMES

PUBLIC	??_R4Renderer@ssf@@6B@				; ssf::Renderer::`RTTI Complete Object Locator'
PUBLIC	??_R3Renderer@ssf@@8				; ssf::Renderer::`RTTI Class Hierarchy Descriptor'
PUBLIC	??_R2Renderer@ssf@@8				; ssf::Renderer::`RTTI Base Class Array'
PUBLIC	??_R1A@?0A@EA@Renderer@ssf@@8			; ssf::Renderer::`RTTI Base Class Descriptor at (0,-1,0,64)'
PUBLIC	??_R0?AVRenderer@ssf@@@8			; ssf::Renderer `RTTI Type Descriptor'
PUBLIC	??_R4?$Cache@PAVRenderedSubtitle@ssf@@@ssf@@6B@	; ssf::Cache<ssf::RenderedSubtitle *>::`RTTI Complete Object Locator'
PUBLIC	??_R4RenderedSubtitleCache@ssf@@6B@		; ssf::RenderedSubtitleCache::`RTTI Complete Object Locator'
PUBLIC	??_R3RenderedSubtitleCache@ssf@@8		; ssf::RenderedSubtitleCache::`RTTI Class Hierarchy Descriptor'
PUBLIC	??_R2RenderedSubtitleCache@ssf@@8		; ssf::RenderedSubtitleCache::`RTTI Base Class Array'
PUBLIC	??_R1A@?0A@EA@?$Cache@PAVRenderedSubtitle@ssf@@@ssf@@8 ; ssf::Cache<ssf::RenderedSubtitle *>::`RTTI Base Class Descriptor at (0,-1,0,64)'
PUBLIC	??_R3?$Cache@PAVRenderedSubtitle@ssf@@@ssf@@8	; ssf::Cache<ssf::RenderedSubtitle *>::`RTTI Class Hierarchy Descriptor'
PUBLIC	??_R2?$Cache@PAVRenderedSubtitle@ssf@@@ssf@@8	; ssf::Cache<ssf::RenderedSubtitle *>::`RTTI Base Class Array'
PUBLIC	??_R0?AV?$Cache@PAVRenderedSubtitle@ssf@@@ssf@@@8 ; ssf::Cache<ssf::RenderedSubtitle *> `RTTI Type Descriptor'
PUBLIC	??_R1A@?0A@EA@RenderedSubtitleCache@ssf@@8	; ssf::RenderedSubtitleCache::`RTTI Base Class Descriptor at (0,-1,0,64)'
PUBLIC	??_R0?AVRenderedSubtitleCache@ssf@@@8		; ssf::RenderedSubtitleCache `RTTI Type Descriptor'
PUBLIC	??_R4RenderedSubtitle@ssf@@6B@			; ssf::RenderedSubtitle::`RTTI Complete Object Locator'
PUBLIC	??_R3RenderedSubtitle@ssf@@8			; ssf::RenderedSubtitle::`RTTI Class Hierarchy Descriptor'
PUBLIC	??_R2RenderedSubtitle@ssf@@8			; ssf::RenderedSubtitle::`RTTI Base Class Array'
PUBLIC	??_R1A@?0A@EA@RenderedSubtitle@ssf@@8		; ssf::RenderedSubtitle::`RTTI Base Class Descriptor at (0,-1,0,64)'
PUBLIC	??_R0?AVRenderedSubtitle@ssf@@@8		; ssf::RenderedSubtitle `RTTI Type Descriptor'
PUBLIC	??_R4?$Cache@PAVGlyphPath@ssf@@@ssf@@6B@	; ssf::Cache<ssf::GlyphPath *>::`RTTI Complete Object Locator'
PUBLIC	??_R4GlyphPathCache@ssf@@6B@			; ssf::GlyphPathCache::`RTTI Complete Object Locator'
PUBLIC	??_R3GlyphPathCache@ssf@@8			; ssf::GlyphPathCache::`RTTI Class Hierarchy Descriptor'
PUBLIC	??_R2GlyphPathCache@ssf@@8			; ssf::GlyphPathCache::`RTTI Base Class Array'
PUBLIC	??_R1A@?0A@EA@?$Cache@PAVGlyphPath@ssf@@@ssf@@8	; ssf::Cache<ssf::GlyphPath *>::`RTTI Base Class Descriptor at (0,-1,0,64)'
PUBLIC	??_R3?$Cache@PAVGlyphPath@ssf@@@ssf@@8		; ssf::Cache<ssf::GlyphPath *>::`RTTI Class Hierarchy Descriptor'
PUBLIC	??_R2?$Cache@PAVGlyphPath@ssf@@@ssf@@8		; ssf::Cache<ssf::GlyphPath *>::`RTTI Base Class Array'
PUBLIC	??_R0?AV?$Cache@PAVGlyphPath@ssf@@@ssf@@@8	; ssf::Cache<ssf::GlyphPath *> `RTTI Type Descriptor'
PUBLIC	??_R1A@?0A@EA@GlyphPathCache@ssf@@8		; ssf::GlyphPathCache::`RTTI Base Class Descriptor at (0,-1,0,64)'
PUBLIC	??_R0?AVGlyphPathCache@ssf@@@8			; ssf::GlyphPathCache `RTTI Type Descriptor'
PUBLIC	??_R4?$Cache@PAVFontWrapper@ssf@@@ssf@@6B@	; ssf::Cache<ssf::FontWrapper *>::`RTTI Complete Object Locator'
PUBLIC	??_R4FontCache@ssf@@6B@				; ssf::FontCache::`RTTI Complete Object Locator'
PUBLIC	??_R3FontCache@ssf@@8				; ssf::FontCache::`RTTI Class Hierarchy Descriptor'
PUBLIC	??_R2FontCache@ssf@@8				; ssf::FontCache::`RTTI Base Class Array'
PUBLIC	??_R1A@?0A@EA@?$Cache@PAVFontWrapper@ssf@@@ssf@@8 ; ssf::Cache<ssf::FontWrapper *>::`RTTI Base Class Descriptor at (0,-1,0,64)'
PUBLIC	??_R3?$Cache@PAVFontWrapper@ssf@@@ssf@@8	; ssf::Cache<ssf::FontWrapper *>::`RTTI Class Hierarchy Descriptor'
PUBLIC	??_R2?$Cache@PAVFontWrapper@ssf@@@ssf@@8	; ssf::Cache<ssf::FontWrapper *>::`RTTI Base Class Array'
PUBLIC	??_R0?AV?$Cache@PAVFontWrapper@ssf@@@ssf@@@8	; ssf::Cache<ssf::FontWrapper *> `RTTI Type Descriptor'
PUBLIC	??_R1A@?0A@EA@FontCache@ssf@@8			; ssf::FontCache::`RTTI Base Class Descriptor at (0,-1,0,64)'
PUBLIC	??_R0?AVFontCache@ssf@@@8			; ssf::FontCache `RTTI Type Descriptor'
PUBLIC	??_R4GlyphPath@ssf@@6B@				; ssf::GlyphPath::`RTTI Complete Object Locator'
PUBLIC	??_R3GlyphPath@ssf@@8				; ssf::GlyphPath::`RTTI Class Hierarchy Descriptor'
PUBLIC	??_R2GlyphPath@ssf@@8				; ssf::GlyphPath::`RTTI Base Class Array'
PUBLIC	??_R1A@?0A@EA@GlyphPath@ssf@@8			; ssf::GlyphPath::`RTTI Base Class Descriptor at (0,-1,0,64)'
PUBLIC	??_R0?AVGlyphPath@ssf@@@8			; ssf::GlyphPath `RTTI Type Descriptor'
PUBLIC	?SetOptimalLoad@?$CAtlMap@V?$CStringT@_WV?$StrTraitMFC@_WV?$ChTraitsCRT@_W@ATL@@@@@ATL@@PAVFontWrapper@ssf@@V?$CStringElementTraits@V?$CStringT@_WV?$StrTraitMFC@_WV?$ChTraitsCRT@_W@ATL@@@@@ATL@@@2@V?$CElementTraits@PAVFontWrapper@ssf@@@2@@ATL@@QAEXMMM_N@Z ; ATL::CAtlMap<ATL::CStringT<wchar_t,StrTraitMFC<wchar_t,ATL::ChTraitsCRT<wchar_t> > >,ssf::FontWrapper *,ATL::CStringElementTraits<ATL::CStringT<wchar_t,StrTraitMFC<wchar_t,ATL::ChTraitsCRT<wchar_t> > > >,ATL::CElementTraits<ssf::FontWrapper *> >::SetOptimalLoad
PUBLIC	??0?$CAtlMap@V?$CStringT@_WV?$StrTraitMFC@_WV?$ChTraitsCRT@_W@ATL@@@@@ATL@@PAVFontWrapper@ssf@@V?$CStringElementTraits@V?$CStringT@_WV?$StrTraitMFC@_WV?$ChTraitsCRT@_W@ATL@@@@@ATL@@@2@V?$CElementTraits@PAVFontWrapper@ssf@@@2@@ATL@@QAE@IMMMI@Z ; ATL::CAtlMap<ATL::CStringT<wchar_t,StrTraitMFC<wchar_t,ATL::ChTraitsCRT<wchar_t> > >,ssf::FontWrapper *,ATL::CStringElementTraits<ATL::CStringT<wchar_t,StrTraitMFC<wchar_t,ATL::ChTraitsCRT<wchar_t> > > >,ATL::CElementTraits<ssf::FontWrapper *> >::CAtlMap<ATL::CStringT<wchar_t,StrTraitMFC<wchar_t,ATL::ChTraitsCRT<wchar_t> > >,ssf::FontWrapper *,ATL::CStringElementTraits<ATL::CStringT<wchar_t,StrTraitMFC<wchar_t,ATL::ChTraitsCRT<wchar_t> > > >,ATL::CElementTraits<ssf::FontWrapper *> >
PUBLIC	??0?$StringMap@PAVFontWrapper@ssf@@V?$CStringT@_WV?$StrTraitMFC@_WV?$ChTraitsCRT@_W@ATL@@@@@ATL@@@ssf@@QAE@XZ ; ssf::StringMap<ssf::FontWrapper *,ATL::CStringT<wchar_t,StrTraitMFC<wchar_t,ATL::ChTraitsCRT<wchar_t> > > >::StringMap<ssf::FontWrapper *,ATL::CStringT<wchar_t,StrTraitMFC<wchar_t,ATL::ChTraitsCRT<wchar_t> > > >
PUBLIC	??0?$StringMapW@PAVFontWrapper@ssf@@V?$CStringT@_WV?$StrTraitMFC@_WV?$ChTraitsCRT@_W@ATL@@@@@ATL@@@ssf@@QAE@XZ ; ssf::StringMapW<ssf::FontWrapper *,ATL::CStringT<wchar_t,StrTraitMFC<wchar_t,ATL::ChTraitsCRT<wchar_t> > > >::StringMapW<ssf::FontWrapper *,ATL::CStringT<wchar_t,StrTraitMFC<wchar_t,ATL::ChTraitsCRT<wchar_t> > > >
PUBLIC	??0?$Cache@PAVFontWrapper@ssf@@@ssf@@QAE@I@Z	; ssf::Cache<ssf::FontWrapper *>::Cache<ssf::FontWrapper *>
PUBLIC	??_GFontCache@ssf@@UAEPAXI@Z			; ssf::FontCache::`scalar deleting destructor'
PUBLIC	??0FontCache@ssf@@QAE@XZ			; ssf::FontCache::FontCache
PUBLIC	?SetOptimalLoad@?$CAtlMap@V?$CStringT@_WV?$StrTraitMFC@_WV?$ChTraitsCRT@_W@ATL@@@@@ATL@@PAVGlyphPath@ssf@@V?$CStringElementTraits@V?$CStringT@_WV?$StrTraitMFC@_WV?$ChTraitsCRT@_W@ATL@@@@@ATL@@@2@V?$CElementTraits@PAVGlyphPath@ssf@@@2@@ATL@@QAEXMMM_N@Z ; ATL::CAtlMap<ATL::CStringT<wchar_t,StrTraitMFC<wchar_t,ATL::ChTraitsCRT<wchar_t> > >,ssf::GlyphPath *,ATL::CStringElementTraits<ATL::CStringT<wchar_t,StrTraitMFC<wchar_t,ATL::ChTraitsCRT<wchar_t> > > >,ATL::CElementTraits<ssf::GlyphPath *> >::SetOptimalLoad
PUBLIC	??0?$CAtlMap@V?$CStringT@_WV?$StrTraitMFC@_WV?$ChTraitsCRT@_W@ATL@@@@@ATL@@PAVGlyphPath@ssf@@V?$CStringElementTraits@V?$CStringT@_WV?$StrTraitMFC@_WV?$ChTraitsCRT@_W@ATL@@@@@ATL@@@2@V?$CElementTraits@PAVGlyphPath@ssf@@@2@@ATL@@QAE@IMMMI@Z ; ATL::CAtlMap<ATL::CStringT<wchar_t,StrTraitMFC<wchar_t,ATL::ChTraitsCRT<wchar_t> > >,ssf::GlyphPath *,ATL::CStringElementTraits<ATL::CStringT<wchar_t,StrTraitMFC<wchar_t,ATL::ChTraitsCRT<wchar_t> > > >,ATL::CElementTraits<ssf::GlyphPath *> >::CAtlMap<ATL::CStringT<wchar_t,StrTraitMFC<wchar_t,ATL::ChTraitsCRT<wchar_t> > >,ssf::GlyphPath *,ATL::CStringElementTraits<ATL::CStringT<wchar_t,StrTraitMFC<wchar_t,ATL::ChTraitsCRT<wchar_t> > > >,ATL::CElementTraits<ssf::GlyphPath *> >
PUBLIC	??0?$StringMap@PAVGlyphPath@ssf@@V?$CStringT@_WV?$StrTraitMFC@_WV?$ChTraitsCRT@_W@ATL@@@@@ATL@@@ssf@@QAE@XZ ; ssf::StringMap<ssf::GlyphPath *,ATL::CStringT<wchar_t,StrTraitMFC<wchar_t,ATL::ChTraitsCRT<wchar_t> > > >::StringMap<ssf::GlyphPath *,ATL::CStringT<wchar_t,StrTraitMFC<wchar_t,ATL::ChTraitsCRT<wchar_t> > > >
PUBLIC	??0?$StringMapW@PAVGlyphPath@ssf@@V?$CStringT@_WV?$StrTraitMFC@_WV?$ChTraitsCRT@_W@ATL@@@@@ATL@@@ssf@@QAE@XZ ; ssf::StringMapW<ssf::GlyphPath *,ATL::CStringT<wchar_t,StrTraitMFC<wchar_t,ATL::ChTraitsCRT<wchar_t> > > >::StringMapW<ssf::GlyphPath *,ATL::CStringT<wchar_t,StrTraitMFC<wchar_t,ATL::ChTraitsCRT<wchar_t> > > >
PUBLIC	??0?$Cache@PAVGlyphPath@ssf@@@ssf@@QAE@I@Z	; ssf::Cache<ssf::GlyphPath *>::Cache<ssf::GlyphPath *>
PUBLIC	??_GGlyphPathCache@ssf@@UAEPAXI@Z		; ssf::GlyphPathCache::`scalar deleting destructor'
PUBLIC	??0GlyphPathCache@ssf@@QAE@XZ			; ssf::GlyphPathCache::GlyphPathCache
PUBLIC	?SetOptimalLoad@?$CAtlMap@V?$CStringT@_WV?$StrTraitMFC@_WV?$ChTraitsCRT@_W@ATL@@@@@ATL@@PAVRenderedSubtitle@ssf@@V?$CStringElementTraits@V?$CStringT@_WV?$StrTraitMFC@_WV?$ChTraitsCRT@_W@ATL@@@@@ATL@@@2@V?$CElementTraits@PAVRenderedSubtitle@ssf@@@2@@ATL@@QAEXMMM_N@Z ; ATL::CAtlMap<ATL::CStringT<wchar_t,StrTraitMFC<wchar_t,ATL::ChTraitsCRT<wchar_t> > >,ssf::RenderedSubtitle *,ATL::CStringElementTraits<ATL::CStringT<wchar_t,StrTraitMFC<wchar_t,ATL::ChTraitsCRT<wchar_t> > > >,ATL::CElementTraits<ssf::RenderedSubtitle *> >::SetOptimalLoad
PUBLIC	??0?$CAtlMap@V?$CStringT@_WV?$StrTraitMFC@_WV?$ChTraitsCRT@_W@ATL@@@@@ATL@@PAVRenderedSubtitle@ssf@@V?$CStringElementTraits@V?$CStringT@_WV?$StrTraitMFC@_WV?$ChTraitsCRT@_W@ATL@@@@@ATL@@@2@V?$CElementTraits@PAVRenderedSubtitle@ssf@@@2@@ATL@@QAE@IMMMI@Z ; ATL::CAtlMap<ATL::CStringT<wchar_t,StrTraitMFC<wchar_t,ATL::ChTraitsCRT<wchar_t> > >,ssf::RenderedSubtitle *,ATL::CStringElementTraits<ATL::CStringT<wchar_t,StrTraitMFC<wchar_t,ATL::ChTraitsCRT<wchar_t> > > >,ATL::CElementTraits<ssf::RenderedSubtitle *> >::CAtlMap<ATL::CStringT<wchar_t,StrTraitMFC<wchar_t,ATL::ChTraitsCRT<wchar_t> > >,ssf::RenderedSubtitle *,ATL::CStringElementTraits<ATL::CStringT<wchar_t,StrTraitMFC<wchar_t,ATL::ChTraitsCRT<wchar_t> > > >,ATL::CElementTraits<ssf::RenderedSubtitle *> >
PUBLIC	??0?$StringMap@PAVRenderedSubtitle@ssf@@V?$CStringT@_WV?$StrTraitMFC@_WV?$ChTraitsCRT@_W@ATL@@@@@ATL@@@ssf@@QAE@XZ ; ssf::StringMap<ssf::RenderedSubtitle *,ATL::CStringT<wchar_t,StrTraitMFC<wchar_t,ATL::ChTraitsCRT<wchar_t> > > >::StringMap<ssf::RenderedSubtitle *,ATL::CStringT<wchar_t,StrTraitMFC<wchar_t,ATL::ChTraitsCRT<wchar_t> > > >
PUBLIC	??0?$StringMapW@PAVRenderedSubtitle@ssf@@V?$CStringT@_WV?$StrTraitMFC@_WV?$ChTraitsCRT@_W@ATL@@@@@ATL@@@ssf@@QAE@XZ ; ssf::StringMapW<ssf::RenderedSubtitle *,ATL::CStringT<wchar_t,StrTraitMFC<wchar_t,ATL::ChTraitsCRT<wchar_t> > > >::StringMapW<ssf::RenderedSubtitle *,ATL::CStringT<wchar_t,StrTraitMFC<wchar_t,ATL::ChTraitsCRT<wchar_t> > > >
PUBLIC	??0?$Cache@PAVRenderedSubtitle@ssf@@@ssf@@QAE@I@Z ; ssf::Cache<ssf::RenderedSubtitle *>::Cache<ssf::RenderedSubtitle *>
PUBLIC	??_GRenderedSubtitleCache@ssf@@UAEPAXI@Z	; ssf::RenderedSubtitleCache::`scalar deleting destructor'
PUBLIC	??0RenderedSubtitleCache@ssf@@QAE@XZ		; ssf::RenderedSubtitleCache::RenderedSubtitleCache
PUBLIC	?SetOptimalLoad@?$CAtlMap@V?$CStringT@_WV?$StrTraitMFC@_WV?$ChTraitsCRT@_W@ATL@@@@@ATL@@VSubRect@ssf@@V?$CStringElementTraits@V?$CStringT@_WV?$StrTraitMFC@_WV?$ChTraitsCRT@_W@ATL@@@@@ATL@@@2@V?$CElementTraits@VSubRect@ssf@@@2@@ATL@@QAEXMMM_N@Z ; ATL::CAtlMap<ATL::CStringT<wchar_t,StrTraitMFC<wchar_t,ATL::ChTraitsCRT<wchar_t> > >,ssf::SubRect,ATL::CStringElementTraits<ATL::CStringT<wchar_t,StrTraitMFC<wchar_t,ATL::ChTraitsCRT<wchar_t> > > >,ATL::CElementTraits<ssf::SubRect> >::SetOptimalLoad
PUBLIC	??0?$CAtlMap@V?$CStringT@_WV?$StrTraitMFC@_WV?$ChTraitsCRT@_W@ATL@@@@@ATL@@VSubRect@ssf@@V?$CStringElementTraits@V?$CStringT@_WV?$StrTraitMFC@_WV?$ChTraitsCRT@_W@ATL@@@@@ATL@@@2@V?$CElementTraits@VSubRect@ssf@@@2@@ATL@@QAE@IMMMI@Z ; ATL::CAtlMap<ATL::CStringT<wchar_t,StrTraitMFC<wchar_t,ATL::ChTraitsCRT<wchar_t> > >,ssf::SubRect,ATL::CStringElementTraits<ATL::CStringT<wchar_t,StrTraitMFC<wchar_t,ATL::ChTraitsCRT<wchar_t> > > >,ATL::CElementTraits<ssf::SubRect> >::CAtlMap<ATL::CStringT<wchar_t,StrTraitMFC<wchar_t,ATL::ChTraitsCRT<wchar_t> > >,ssf::SubRect,ATL::CStringElementTraits<ATL::CStringT<wchar_t,StrTraitMFC<wchar_t,ATL::ChTraitsCRT<wchar_t> > > >,ATL::CElementTraits<ssf::SubRect> >
PUBLIC	??0?$StringMap@VSubRect@ssf@@V?$CStringT@_WV?$StrTraitMFC@_WV?$ChTraitsCRT@_W@ATL@@@@@ATL@@@ssf@@QAE@XZ ; ssf::StringMap<ssf::SubRect,ATL::CStringT<wchar_t,StrTraitMFC<wchar_t,ATL::ChTraitsCRT<wchar_t> > > >::StringMap<ssf::SubRect,ATL::CStringT<wchar_t,StrTraitMFC<wchar_t,ATL::ChTraitsCRT<wchar_t> > > >
PUBLIC	??0?$StringMapW@VSubRect@ssf@@V?$CStringT@_WV?$StrTraitMFC@_WV?$ChTraitsCRT@_W@ATL@@@@@ATL@@@ssf@@QAE@XZ ; ssf::StringMapW<ssf::SubRect,ATL::CStringT<wchar_t,StrTraitMFC<wchar_t,ATL::ChTraitsCRT<wchar_t> > > >::StringMapW<ssf::SubRect,ATL::CStringT<wchar_t,StrTraitMFC<wchar_t,ATL::ChTraitsCRT<wchar_t> > > >
PUBLIC	??0SubRectAllocator@ssf@@QAE@XZ			; ssf::SubRectAllocator::SubRectAllocator
PUBLIC	??1?$CAtlMap@V?$CStringT@_WV?$StrTraitMFC@_WV?$ChTraitsCRT@_W@ATL@@@@@ATL@@PAVFontWrapper@ssf@@V?$CStringElementTraits@V?$CStringT@_WV?$StrTraitMFC@_WV?$ChTraitsCRT@_W@ATL@@@@@ATL@@@2@V?$CElementTraits@PAVFontWrapper@ssf@@@2@@ATL@@QAE@XZ ; ATL::CAtlMap<ATL::CStringT<wchar_t,StrTraitMFC<wchar_t,ATL::ChTraitsCRT<wchar_t> > >,ssf::FontWrapper *,ATL::CStringElementTraits<ATL::CStringT<wchar_t,StrTraitMFC<wchar_t,ATL::ChTraitsCRT<wchar_t> > > >,ATL::CElementTraits<ssf::FontWrapper *> >::~CAtlMap<ATL::CStringT<wchar_t,StrTraitMFC<wchar_t,ATL::ChTraitsCRT<wchar_t> > >,ssf::FontWrapper *,ATL::CStringElementTraits<ATL::CStringT<wchar_t,StrTraitMFC<wchar_t,ATL::ChTraitsCRT<wchar_t> > > >,ATL::CElementTraits<ssf::FontWrapper *> >
PUBLIC	??1?$StringMap@PAVFontWrapper@ssf@@V?$CStringT@_WV?$StrTraitMFC@_WV?$ChTraitsCRT@_W@ATL@@@@@ATL@@@ssf@@QAE@XZ ; ssf::StringMap<ssf::FontWrapper *,ATL::CStringT<wchar_t,StrTraitMFC<wchar_t,ATL::ChTraitsCRT<wchar_t> > > >::~StringMap<ssf::FontWrapper *,ATL::CStringT<wchar_t,StrTraitMFC<wchar_t,ATL::ChTraitsCRT<wchar_t> > > >
PUBLIC	??1?$StringMapW@PAVFontWrapper@ssf@@V?$CStringT@_WV?$StrTraitMFC@_WV?$ChTraitsCRT@_W@ATL@@@@@ATL@@@ssf@@QAE@XZ ; ssf::StringMapW<ssf::FontWrapper *,ATL::CStringT<wchar_t,StrTraitMFC<wchar_t,ATL::ChTraitsCRT<wchar_t> > > >::~StringMapW<ssf::FontWrapper *,ATL::CStringT<wchar_t,StrTraitMFC<wchar_t,ATL::ChTraitsCRT<wchar_t> > > >
PUBLIC	?EnableAutoRehash@?$CAtlMap@V?$CStringT@_WV?$StrTraitMFC@_WV?$ChTraitsCRT@_W@ATL@@@@@ATL@@PAVFontWrapper@ssf@@V?$CStringElementTraits@V?$CStringT@_WV?$StrTraitMFC@_WV?$ChTraitsCRT@_W@ATL@@@@@ATL@@@2@V?$CElementTraits@PAVFontWrapper@ssf@@@2@@ATL@@QAEXXZ ; ATL::CAtlMap<ATL::CStringT<wchar_t,StrTraitMFC<wchar_t,ATL::ChTraitsCRT<wchar_t> > >,ssf::FontWrapper *,ATL::CStringElementTraits<ATL::CStringT<wchar_t,StrTraitMFC<wchar_t,ATL::ChTraitsCRT<wchar_t> > > >,ATL::CElementTraits<ssf::FontWrapper *> >::EnableAutoRehash
PUBLIC	?DisableAutoRehash@?$CAtlMap@V?$CStringT@_WV?$StrTraitMFC@_WV?$ChTraitsCRT@_W@ATL@@@@@ATL@@PAVFontWrapper@ssf@@V?$CStringElementTraits@V?$CStringT@_WV?$StrTraitMFC@_WV?$ChTraitsCRT@_W@ATL@@@@@ATL@@@2@V?$CElementTraits@PAVFontWrapper@ssf@@@2@@ATL@@QAEXXZ ; ATL::CAtlMap<ATL::CStringT<wchar_t,StrTraitMFC<wchar_t,ATL::ChTraitsCRT<wchar_t> > >,ssf::FontWrapper *,ATL::CStringElementTraits<ATL::CStringT<wchar_t,StrTraitMFC<wchar_t,ATL::ChTraitsCRT<wchar_t> > > >,ATL::CElementTraits<ssf::FontWrapper *> >::DisableAutoRehash
PUBLIC	?RemoveAll@?$CAtlMap@V?$CStringT@_WV?$StrTraitMFC@_WV?$ChTraitsCRT@_W@ATL@@@@@ATL@@PAVFontWrapper@ssf@@V?$CStringElementTraits@V?$CStringT@_WV?$StrTraitMFC@_WV?$ChTraitsCRT@_W@ATL@@@@@ATL@@@2@V?$CElementTraits@PAVFontWrapper@ssf@@@2@@ATL@@QAEXXZ ; ATL::CAtlMap<ATL::CStringT<wchar_t,StrTraitMFC<wchar_t,ATL::ChTraitsCRT<wchar_t> > >,ssf::FontWrapper *,ATL::CStringElementTraits<ATL::CStringT<wchar_t,StrTraitMFC<wchar_t,ATL::ChTraitsCRT<wchar_t> > > >,ATL::CElementTraits<ssf::FontWrapper *> >::RemoveAll
PUBLIC	?IsEmpty@?$CAtlMap@V?$CStringT@_WV?$StrTraitMFC@_WV?$ChTraitsCRT@_W@ATL@@@@@ATL@@PAVFontWrapper@ssf@@V?$CStringElementTraits@V?$CStringT@_WV?$StrTraitMFC@_WV?$ChTraitsCRT@_W@ATL@@@@@ATL@@@2@V?$CElementTraits@PAVFontWrapper@ssf@@@2@@ATL@@QBE_NXZ ; ATL::CAtlMap<ATL::CStringT<wchar_t,StrTraitMFC<wchar_t,ATL::ChTraitsCRT<wchar_t> > >,ssf::FontWrapper *,ATL::CStringElementTraits<ATL::CStringT<wchar_t,StrTraitMFC<wchar_t,ATL::ChTraitsCRT<wchar_t> > > >,ATL::CElementTraits<ssf::FontWrapper *> >::IsEmpty
PUBLIC	?GetStartPosition@?$CAtlMap@V?$CStringT@_WV?$StrTraitMFC@_WV?$ChTraitsCRT@_W@ATL@@@@@ATL@@PAVFontWrapper@ssf@@V?$CStringElementTraits@V?$CStringT@_WV?$StrTraitMFC@_WV?$ChTraitsCRT@_W@ATL@@@@@ATL@@@2@V?$CElementTraits@PAVFontWrapper@ssf@@@2@@ATL@@QBEPAU__POSITION@@XZ ; ATL::CAtlMap<ATL::CStringT<wchar_t,StrTraitMFC<wchar_t,ATL::ChTraitsCRT<wchar_t> > >,ssf::FontWrapper *,ATL::CStringElementTraits<ATL::CStringT<wchar_t,StrTraitMFC<wchar_t,ATL::ChTraitsCRT<wchar_t> > > >,ATL::CElementTraits<ssf::FontWrapper *> >::GetStartPosition
PUBLIC	?FindNextNode@?$CAtlMap@V?$CStringT@_WV?$StrTraitMFC@_WV?$ChTraitsCRT@_W@ATL@@@@@ATL@@PAVFontWrapper@ssf@@V?$CStringElementTraits@V?$CStringT@_WV?$StrTraitMFC@_WV?$ChTraitsCRT@_W@ATL@@@@@ATL@@@2@V?$CElementTraits@PAVFontWrapper@ssf@@@2@@ATL@@ABEPAVCNode@12@PAV312@@Z ; ATL::CAtlMap<ATL::CStringT<wchar_t,StrTraitMFC<wchar_t,ATL::ChTraitsCRT<wchar_t> > >,ssf::FontWrapper *,ATL::CStringElementTraits<ATL::CStringT<wchar_t,StrTraitMFC<wchar_t,ATL::ChTraitsCRT<wchar_t> > > >,ATL::CElementTraits<ssf::FontWrapper *> >::FindNextNode
PUBLIC	?GetNextValue@?$CAtlMap@V?$CStringT@_WV?$StrTraitMFC@_WV?$ChTraitsCRT@_W@ATL@@@@@ATL@@PAVFontWrapper@ssf@@V?$CStringElementTraits@V?$CStringT@_WV?$StrTraitMFC@_WV?$ChTraitsCRT@_W@ATL@@@@@ATL@@@2@V?$CElementTraits@PAVFontWrapper@ssf@@@2@@ATL@@QAEAAPAVFontWrapper@ssf@@AAPAU__POSITION@@@Z ; ATL::CAtlMap<ATL::CStringT<wchar_t,StrTraitMFC<wchar_t,ATL::ChTraitsCRT<wchar_t> > >,ssf::FontWrapper *,ATL::CStringElementTraits<ATL::CStringT<wchar_t,StrTraitMFC<wchar_t,ATL::ChTraitsCRT<wchar_t> > > >,ATL::CElementTraits<ssf::FontWrapper *> >::GetNextValue
PUBLIC	?RemoveAll@?$Cache@PAVFontWrapper@ssf@@@ssf@@QAEXXZ ; ssf::Cache<ssf::FontWrapper *>::RemoveAll
PUBLIC	??_G?$Cache@PAVFontWrapper@ssf@@@ssf@@UAEPAXI@Z	; ssf::Cache<ssf::FontWrapper *>::`scalar deleting destructor'
PUBLIC	??1?$Cache@PAVFontWrapper@ssf@@@ssf@@UAE@XZ	; ssf::Cache<ssf::FontWrapper *>::~Cache<ssf::FontWrapper *>
PUBLIC	??1FontCache@ssf@@UAE@XZ			; ssf::FontCache::~FontCache
PUBLIC	??1?$CAtlMap@V?$CStringT@_WV?$StrTraitMFC@_WV?$ChTraitsCRT@_W@ATL@@@@@ATL@@PAVGlyphPath@ssf@@V?$CStringElementTraits@V?$CStringT@_WV?$StrTraitMFC@_WV?$ChTraitsCRT@_W@ATL@@@@@ATL@@@2@V?$CElementTraits@PAVGlyphPath@ssf@@@2@@ATL@@QAE@XZ ; ATL::CAtlMap<ATL::CStringT<wchar_t,StrTraitMFC<wchar_t,ATL::ChTraitsCRT<wchar_t> > >,ssf::GlyphPath *,ATL::CStringElementTraits<ATL::CStringT<wchar_t,StrTraitMFC<wchar_t,ATL::ChTraitsCRT<wchar_t> > > >,ATL::CElementTraits<ssf::GlyphPath *> >::~CAtlMap<ATL::CStringT<wchar_t,StrTraitMFC<wchar_t,ATL::ChTraitsCRT<wchar_t> > >,ssf::GlyphPath *,ATL::CStringElementTraits<ATL::CStringT<wchar_t,StrTraitMFC<wchar_t,ATL::ChTraitsCRT<wchar_t> > > >,ATL::CElementTraits<ssf::GlyphPath *> >
PUBLIC	??1?$StringMap@PAVGlyphPath@ssf@@V?$CStringT@_WV?$StrTraitMFC@_WV?$ChTraitsCRT@_W@ATL@@@@@ATL@@@ssf@@QAE@XZ ; ssf::StringMap<ssf::GlyphPath *,ATL::CStringT<wchar_t,StrTraitMFC<wchar_t,ATL::ChTraitsCRT<wchar_t> > > >::~StringMap<ssf::GlyphPath *,ATL::CStringT<wchar_t,StrTraitMFC<wchar_t,ATL::ChTraitsCRT<wchar_t> > > >
PUBLIC	??1?$StringMapW@PAVGlyphPath@ssf@@V?$CStringT@_WV?$StrTraitMFC@_WV?$ChTraitsCRT@_W@ATL@@@@@ATL@@@ssf@@QAE@XZ ; ssf::StringMapW<ssf::GlyphPath *,ATL::CStringT<wchar_t,StrTraitMFC<wchar_t,ATL::ChTraitsCRT<wchar_t> > > >::~StringMapW<ssf::GlyphPath *,ATL::CStringT<wchar_t,StrTraitMFC<wchar_t,ATL::ChTraitsCRT<wchar_t> > > >
PUBLIC	?EnableAutoRehash@?$CAtlMap@V?$CStringT@_WV?$StrTraitMFC@_WV?$ChTraitsCRT@_W@ATL@@@@@ATL@@PAVGlyphPath@ssf@@V?$CStringElementTraits@V?$CStringT@_WV?$StrTraitMFC@_WV?$ChTraitsCRT@_W@ATL@@@@@ATL@@@2@V?$CElementTraits@PAVGlyphPath@ssf@@@2@@ATL@@QAEXXZ ; ATL::CAtlMap<ATL::CStringT<wchar_t,StrTraitMFC<wchar_t,ATL::ChTraitsCRT<wchar_t> > >,ssf::GlyphPath *,ATL::CStringElementTraits<ATL::CStringT<wchar_t,StrTraitMFC<wchar_t,ATL::ChTraitsCRT<wchar_t> > > >,ATL::CElementTraits<ssf::GlyphPath *> >::EnableAutoRehash
PUBLIC	?DisableAutoRehash@?$CAtlMap@V?$CStringT@_WV?$StrTraitMFC@_WV?$ChTraitsCRT@_W@ATL@@@@@ATL@@PAVGlyphPath@ssf@@V?$CStringElementTraits@V?$CStringT@_WV?$StrTraitMFC@_WV?$ChTraitsCRT@_W@ATL@@@@@ATL@@@2@V?$CElementTraits@PAVGlyphPath@ssf@@@2@@ATL@@QAEXXZ ; ATL::CAtlMap<ATL::CStringT<wchar_t,StrTraitMFC<wchar_t,ATL::ChTraitsCRT<wchar_t> > >,ssf::GlyphPath *,ATL::CStringElementTraits<ATL::CStringT<wchar_t,StrTraitMFC<wchar_t,ATL::ChTraitsCRT<wchar_t> > > >,ATL::CElementTraits<ssf::GlyphPath *> >::DisableAutoRehash
PUBLIC	?RemoveAll@?$CAtlMap@V?$CStringT@_WV?$StrTraitMFC@_WV?$ChTraitsCRT@_W@ATL@@@@@ATL@@PAVGlyphPath@ssf@@V?$CStringElementTraits@V?$CStringT@_WV?$StrTraitMFC@_WV?$ChTraitsCRT@_W@ATL@@@@@ATL@@@2@V?$CElementTraits@PAVGlyphPath@ssf@@@2@@ATL@@QAEXXZ ; ATL::CAtlMap<ATL::CStringT<wchar_t,StrTraitMFC<wchar_t,ATL::ChTraitsCRT<wchar_t> > >,ssf::GlyphPath *,ATL::CStringElementTraits<ATL::CStringT<wchar_t,StrTraitMFC<wchar_t,ATL::ChTraitsCRT<wchar_t> > > >,ATL::CElementTraits<ssf::GlyphPath *> >::RemoveAll
PUBLIC	?IsEmpty@?$CAtlMap@V?$CStringT@_WV?$StrTraitMFC@_WV?$ChTraitsCRT@_W@ATL@@@@@ATL@@PAVGlyphPath@ssf@@V?$CStringElementTraits@V?$CStringT@_WV?$StrTraitMFC@_WV?$ChTraitsCRT@_W@ATL@@@@@ATL@@@2@V?$CElementTraits@PAVGlyphPath@ssf@@@2@@ATL@@QBE_NXZ ; ATL::CAtlMap<ATL::CStringT<wchar_t,StrTraitMFC<wchar_t,ATL::ChTraitsCRT<wchar_t> > >,ssf::GlyphPath *,ATL::CStringElementTraits<ATL::CStringT<wchar_t,StrTraitMFC<wchar_t,ATL::ChTraitsCRT<wchar_t> > > >,ATL::CElementTraits<ssf::GlyphPath *> >::IsEmpty
PUBLIC	?GetStartPosition@?$CAtlMap@V?$CStringT@_WV?$StrTraitMFC@_WV?$ChTraitsCRT@_W@ATL@@@@@ATL@@PAVGlyphPath@ssf@@V?$CStringElementTraits@V?$CStringT@_WV?$StrTraitMFC@_WV?$ChTraitsCRT@_W@ATL@@@@@ATL@@@2@V?$CElementTraits@PAVGlyphPath@ssf@@@2@@ATL@@QBEPAU__POSITION@@XZ ; ATL::CAtlMap<ATL::CStringT<wchar_t,StrTraitMFC<wchar_t,ATL::ChTraitsCRT<wchar_t> > >,ssf::GlyphPath *,ATL::CStringElementTraits<ATL::CStringT<wchar_t,StrTraitMFC<wchar_t,ATL::ChTraitsCRT<wchar_t> > > >,ATL::CElementTraits<ssf::GlyphPath *> >::GetStartPosition
PUBLIC	?FindNextNode@?$CAtlMap@V?$CStringT@_WV?$StrTraitMFC@_WV?$ChTraitsCRT@_W@ATL@@@@@ATL@@PAVGlyphPath@ssf@@V?$CStringElementTraits@V?$CStringT@_WV?$StrTraitMFC@_WV?$ChTraitsCRT@_W@ATL@@@@@ATL@@@2@V?$CElementTraits@PAVGlyphPath@ssf@@@2@@ATL@@ABEPAVCNode@12@PAV312@@Z ; ATL::CAtlMap<ATL::CStringT<wchar_t,StrTraitMFC<wchar_t,ATL::ChTraitsCRT<wchar_t> > >,ssf::GlyphPath *,ATL::CStringElementTraits<ATL::CStringT<wchar_t,StrTraitMFC<wchar_t,ATL::ChTraitsCRT<wchar_t> > > >,ATL::CElementTraits<ssf::GlyphPath *> >::FindNextNode
PUBLIC	?GetNextValue@?$CAtlMap@V?$CStringT@_WV?$StrTraitMFC@_WV?$ChTraitsCRT@_W@ATL@@@@@ATL@@PAVGlyphPath@ssf@@V?$CStringElementTraits@V?$CStringT@_WV?$StrTraitMFC@_WV?$ChTraitsCRT@_W@ATL@@@@@ATL@@@2@V?$CElementTraits@PAVGlyphPath@ssf@@@2@@ATL@@QAEAAPAVGlyphPath@ssf@@AAPAU__POSITION@@@Z ; ATL::CAtlMap<ATL::CStringT<wchar_t,StrTraitMFC<wchar_t,ATL::ChTraitsCRT<wchar_t> > >,ssf::GlyphPath *,ATL::CStringElementTraits<ATL::CStringT<wchar_t,StrTraitMFC<wchar_t,ATL::ChTraitsCRT<wchar_t> > > >,ATL::CElementTraits<ssf::GlyphPath *> >::GetNextValue
PUBLIC	?RemoveAll@?$Cache@PAVGlyphPath@ssf@@@ssf@@QAEXXZ ; ssf::Cache<ssf::GlyphPath *>::RemoveAll
PUBLIC	??_G?$Cache@PAVGlyphPath@ssf@@@ssf@@UAEPAXI@Z	; ssf::Cache<ssf::GlyphPath *>::`scalar deleting destructor'
PUBLIC	??1?$Cache@PAVGlyphPath@ssf@@@ssf@@UAE@XZ	; ssf::Cache<ssf::GlyphPath *>::~Cache<ssf::GlyphPath *>
PUBLIC	??1GlyphPathCache@ssf@@UAE@XZ			; ssf::GlyphPathCache::~GlyphPathCache
PUBLIC	??1?$CAtlMap@V?$CStringT@_WV?$StrTraitMFC@_WV?$ChTraitsCRT@_W@ATL@@@@@ATL@@PAVRenderedSubtitle@ssf@@V?$CStringElementTraits@V?$CStringT@_WV?$StrTraitMFC@_WV?$ChTraitsCRT@_W@ATL@@@@@ATL@@@2@V?$CElementTraits@PAVRenderedSubtitle@ssf@@@2@@ATL@@QAE@XZ ; ATL::CAtlMap<ATL::CStringT<wchar_t,StrTraitMFC<wchar_t,ATL::ChTraitsCRT<wchar_t> > >,ssf::RenderedSubtitle *,ATL::CStringElementTraits<ATL::CStringT<wchar_t,StrTraitMFC<wchar_t,ATL::ChTraitsCRT<wchar_t> > > >,ATL::CElementTraits<ssf::RenderedSubtitle *> >::~CAtlMap<ATL::CStringT<wchar_t,StrTraitMFC<wchar_t,ATL::ChTraitsCRT<wchar_t> > >,ssf::RenderedSubtitle *,ATL::CStringElementTraits<ATL::CStringT<wchar_t,StrTraitMFC<wchar_t,ATL::ChTraitsCRT<wchar_t> > > >,ATL::CElementTraits<ssf::RenderedSubtitle *> >
PUBLIC	??1?$StringMap@PAVRenderedSubtitle@ssf@@V?$CStringT@_WV?$StrTraitMFC@_WV?$ChTraitsCRT@_W@ATL@@@@@ATL@@@ssf@@QAE@XZ ; ssf::StringMap<ssf::RenderedSubtitle *,ATL::CStringT<wchar_t,StrTraitMFC<wchar_t,ATL::ChTraitsCRT<wchar_t> > > >::~StringMap<ssf::RenderedSubtitle *,ATL::CStringT<wchar_t,StrTraitMFC<wchar_t,ATL::ChTraitsCRT<wchar_t> > > >
PUBLIC	??1?$StringMapW@PAVRenderedSubtitle@ssf@@V?$CStringT@_WV?$StrTraitMFC@_WV?$ChTraitsCRT@_W@ATL@@@@@ATL@@@ssf@@QAE@XZ ; ssf::StringMapW<ssf::RenderedSubtitle *,ATL::CStringT<wchar_t,StrTraitMFC<wchar_t,ATL::ChTraitsCRT<wchar_t> > > >::~StringMapW<ssf::RenderedSubtitle *,ATL::CStringT<wchar_t,StrTraitMFC<wchar_t,ATL::ChTraitsCRT<wchar_t> > > >
PUBLIC	?EnableAutoRehash@?$CAtlMap@V?$CStringT@_WV?$StrTraitMFC@_WV?$ChTraitsCRT@_W@ATL@@@@@ATL@@PAVRenderedSubtitle@ssf@@V?$CStringElementTraits@V?$CStringT@_WV?$StrTraitMFC@_WV?$ChTraitsCRT@_W@ATL@@@@@ATL@@@2@V?$CElementTraits@PAVRenderedSubtitle@ssf@@@2@@ATL@@QAEXXZ ; ATL::CAtlMap<ATL::CStringT<wchar_t,StrTraitMFC<wchar_t,ATL::ChTraitsCRT<wchar_t> > >,ssf::RenderedSubtitle *,ATL::CStringElementTraits<ATL::CStringT<wchar_t,StrTraitMFC<wchar_t,ATL::ChTraitsCRT<wchar_t> > > >,ATL::CElementTraits<ssf::RenderedSubtitle *> >::EnableAutoRehash
PUBLIC	?DisableAutoRehash@?$CAtlMap@V?$CStringT@_WV?$StrTraitMFC@_WV?$ChTraitsCRT@_W@ATL@@@@@ATL@@PAVRenderedSubtitle@ssf@@V?$CStringElementTraits@V?$CStringT@_WV?$StrTraitMFC@_WV?$ChTraitsCRT@_W@ATL@@@@@ATL@@@2@V?$CElementTraits@PAVRenderedSubtitle@ssf@@@2@@ATL@@QAEXXZ ; ATL::CAtlMap<ATL::CStringT<wchar_t,StrTraitMFC<wchar_t,ATL::ChTraitsCRT<wchar_t> > >,ssf::RenderedSubtitle *,ATL::CStringElementTraits<ATL::CStringT<wchar_t,StrTraitMFC<wchar_t,ATL::ChTraitsCRT<wchar_t> > > >,ATL::CElementTraits<ssf::RenderedSubtitle *> >::DisableAutoRehash
PUBLIC	?RemoveAll@?$CAtlMap@V?$CStringT@_WV?$StrTraitMFC@_WV?$ChTraitsCRT@_W@ATL@@@@@ATL@@PAVRenderedSubtitle@ssf@@V?$CStringElementTraits@V?$CStringT@_WV?$StrTraitMFC@_WV?$ChTraitsCRT@_W@ATL@@@@@ATL@@@2@V?$CElementTraits@PAVRenderedSubtitle@ssf@@@2@@ATL@@QAEXXZ ; ATL::CAtlMap<ATL::CStringT<wchar_t,StrTraitMFC<wchar_t,ATL::ChTraitsCRT<wchar_t> > >,ssf::RenderedSubtitle *,ATL::CStringElementTraits<ATL::CStringT<wchar_t,StrTraitMFC<wchar_t,ATL::ChTraitsCRT<wchar_t> > > >,ATL::CElementTraits<ssf::RenderedSubtitle *> >::RemoveAll
PUBLIC	?IsEmpty@?$CAtlMap@V?$CStringT@_WV?$StrTraitMFC@_WV?$ChTraitsCRT@_W@ATL@@@@@ATL@@PAVRenderedSubtitle@ssf@@V?$CStringElementTraits@V?$CStringT@_WV?$StrTraitMFC@_WV?$ChTraitsCRT@_W@ATL@@@@@ATL@@@2@V?$CElementTraits@PAVRenderedSubtitle@ssf@@@2@@ATL@@QBE_NXZ ; ATL::CAtlMap<ATL::CStringT<wchar_t,StrTraitMFC<wchar_t,ATL::ChTraitsCRT<wchar_t> > >,ssf::RenderedSubtitle *,ATL::CStringElementTraits<ATL::CStringT<wchar_t,StrTraitMFC<wchar_t,ATL::ChTraitsCRT<wchar_t> > > >,ATL::CElementTraits<ssf::RenderedSubtitle *> >::IsEmpty
PUBLIC	?GetStartPosition@?$CAtlMap@V?$CStringT@_WV?$StrTraitMFC@_WV?$ChTraitsCRT@_W@ATL@@@@@ATL@@PAVRenderedSubtitle@ssf@@V?$CStringElementTraits@V?$CStringT@_WV?$StrTraitMFC@_WV?$ChTraitsCRT@_W@ATL@@@@@ATL@@@2@V?$CElementTraits@PAVRenderedSubtitle@ssf@@@2@@ATL@@QBEPAU__POSITION@@XZ ; ATL::CAtlMap<ATL::CStringT<wchar_t,StrTraitMFC<wchar_t,ATL::ChTraitsCRT<wchar_t> > >,ssf::RenderedSubtitle *,ATL::CStringElementTraits<ATL::CStringT<wchar_t,StrTraitMFC<wchar_t,ATL::ChTraitsCRT<wchar_t> > > >,ATL::CElementTraits<ssf::RenderedSubtitle *> >::GetStartPosition
PUBLIC	?FindNextNode@?$CAtlMap@V?$CStringT@_WV?$StrTraitMFC@_WV?$ChTraitsCRT@_W@ATL@@@@@ATL@@PAVRenderedSubtitle@ssf@@V?$CStringElementTraits@V?$CStringT@_WV?$StrTraitMFC@_WV?$ChTraitsCRT@_W@ATL@@@@@ATL@@@2@V?$CElementTraits@PAVRenderedSubtitle@ssf@@@2@@ATL@@ABEPAVCNode@12@PAV312@@Z ; ATL::CAtlMap<ATL::CStringT<wchar_t,StrTraitMFC<wchar_t,ATL::ChTraitsCRT<wchar_t> > >,ssf::RenderedSubtitle *,ATL::CStringElementTraits<ATL::CStringT<wchar_t,StrTraitMFC<wchar_t,ATL::ChTraitsCRT<wchar_t> > > >,ATL::CElementTraits<ssf::RenderedSubtitle *> >::FindNextNode
PUBLIC	?GetNextValue@?$CAtlMap@V?$CStringT@_WV?$StrTraitMFC@_WV?$ChTraitsCRT@_W@ATL@@@@@ATL@@PAVRenderedSubtitle@ssf@@V?$CStringElementTraits@V?$CStringT@_WV?$StrTraitMFC@_WV?$ChTraitsCRT@_W@ATL@@@@@ATL@@@2@V?$CElementTraits@PAVRenderedSubtitle@ssf@@@2@@ATL@@QAEAAPAVRenderedSubtitle@ssf@@AAPAU__POSITION@@@Z ; ATL::CAtlMap<ATL::CStringT<wchar_t,StrTraitMFC<wchar_t,ATL::ChTraitsCRT<wchar_t> > >,ssf::RenderedSubtitle *,ATL::CStringElementTraits<ATL::CStringT<wchar_t,StrTraitMFC<wchar_t,ATL::ChTraitsCRT<wchar_t> > > >,ATL::CElementTraits<ssf::RenderedSubtitle *> >::GetNextValue
PUBLIC	?RemoveAll@?$Cache@PAVRenderedSubtitle@ssf@@@ssf@@QAEXXZ ; ssf::Cache<ssf::RenderedSubtitle *>::RemoveAll
PUBLIC	??_G?$Cache@PAVRenderedSubtitle@ssf@@@ssf@@UAEPAXI@Z ; ssf::Cache<ssf::RenderedSubtitle *>::`scalar deleting destructor'
PUBLIC	??1?$Cache@PAVRenderedSubtitle@ssf@@@ssf@@UAE@XZ ; ssf::Cache<ssf::RenderedSubtitle *>::~Cache<ssf::RenderedSubtitle *>
PUBLIC	??1RenderedSubtitleCache@ssf@@UAE@XZ		; ssf::RenderedSubtitleCache::~RenderedSubtitleCache
PUBLIC	??1?$CAtlMap@V?$CStringT@_WV?$StrTraitMFC@_WV?$ChTraitsCRT@_W@ATL@@@@@ATL@@VSubRect@ssf@@V?$CStringElementTraits@V?$CStringT@_WV?$StrTraitMFC@_WV?$ChTraitsCRT@_W@ATL@@@@@ATL@@@2@V?$CElementTraits@VSubRect@ssf@@@2@@ATL@@QAE@XZ ; ATL::CAtlMap<ATL::CStringT<wchar_t,StrTraitMFC<wchar_t,ATL::ChTraitsCRT<wchar_t> > >,ssf::SubRect,ATL::CStringElementTraits<ATL::CStringT<wchar_t,StrTraitMFC<wchar_t,ATL::ChTraitsCRT<wchar_t> > > >,ATL::CElementTraits<ssf::SubRect> >::~CAtlMap<ATL::CStringT<wchar_t,StrTraitMFC<wchar_t,ATL::ChTraitsCRT<wchar_t> > >,ssf::SubRect,ATL::CStringElementTraits<ATL::CStringT<wchar_t,StrTraitMFC<wchar_t,ATL::ChTraitsCRT<wchar_t> > > >,ATL::CElementTraits<ssf::SubRect> >
PUBLIC	??1?$StringMap@VSubRect@ssf@@V?$CStringT@_WV?$StrTraitMFC@_WV?$ChTraitsCRT@_W@ATL@@@@@ATL@@@ssf@@QAE@XZ ; ssf::StringMap<ssf::SubRect,ATL::CStringT<wchar_t,StrTraitMFC<wchar_t,ATL::ChTraitsCRT<wchar_t> > > >::~StringMap<ssf::SubRect,ATL::CStringT<wchar_t,StrTraitMFC<wchar_t,ATL::ChTraitsCRT<wchar_t> > > >
PUBLIC	??1?$StringMapW@VSubRect@ssf@@V?$CStringT@_WV?$StrTraitMFC@_WV?$ChTraitsCRT@_W@ATL@@@@@ATL@@@ssf@@QAE@XZ ; ssf::StringMapW<ssf::SubRect,ATL::CStringT<wchar_t,StrTraitMFC<wchar_t,ATL::ChTraitsCRT<wchar_t> > > >::~StringMapW<ssf::SubRect,ATL::CStringT<wchar_t,StrTraitMFC<wchar_t,ATL::ChTraitsCRT<wchar_t> > > >
PUBLIC	??1SubRectAllocator@ssf@@QAE@XZ			; ssf::SubRectAllocator::~SubRectAllocator
PUBLIC	??_GRenderer@ssf@@UAEPAXI@Z			; ssf::Renderer::`scalar deleting destructor'
PUBLIC	?GetNextKey@?$CAtlMap@V?$CStringT@_WV?$StrTraitMFC@_WV?$ChTraitsCRT@_W@ATL@@@@@ATL@@VSubRect@ssf@@V?$CStringElementTraits@V?$CStringT@_WV?$StrTraitMFC@_WV?$ChTraitsCRT@_W@ATL@@@@@ATL@@@2@V?$CElementTraits@VSubRect@ssf@@@2@@ATL@@QBEABV?$CStringT@_WV?$StrTraitMFC@_WV?$ChTraitsCRT@_W@ATL@@@@@2@AAPAU__POSITION@@@Z ; ATL::CAtlMap<ATL::CStringT<wchar_t,StrTraitMFC<wchar_t,ATL::ChTraitsCRT<wchar_t> > >,ssf::SubRect,ATL::CStringElementTraits<ATL::CStringT<wchar_t,StrTraitMFC<wchar_t,ATL::ChTraitsCRT<wchar_t> > > >,ATL::CElementTraits<ssf::SubRect> >::GetNextKey
PUBLIC	?Lookup@?$CAtlMap@V?$CStringT@_WV?$StrTraitMFC@_WV?$ChTraitsCRT@_W@ATL@@@@@ATL@@_NV?$CStringElementTraits@V?$CStringT@_WV?$StrTraitMFC@_WV?$ChTraitsCRT@_W@ATL@@@@@ATL@@@2@V?$CElementTraits@_N@2@@ATL@@QAEPAVCPair@12@PB_W@Z ; ATL::CAtlMap<ATL::CStringT<wchar_t,StrTraitMFC<wchar_t,ATL::ChTraitsCRT<wchar_t> > >,bool,ATL::CStringElementTraits<ATL::CStringT<wchar_t,StrTraitMFC<wchar_t,ATL::ChTraitsCRT<wchar_t> > > >,ATL::CElementTraits<bool> >::Lookup
PUBLIC	?GetNode@?$CAtlMap@V?$CStringT@_WV?$StrTraitMFC@_WV?$ChTraitsCRT@_W@ATL@@@@@ATL@@_NV?$CStringElementTraits@V?$CStringT@_WV?$StrTraitMFC@_WV?$ChTraitsCRT@_W@ATL@@@@@ATL@@@2@V?$CElementTraits@_N@2@@ATL@@ABEPAVCNode@12@PB_WAAI1AAPAV312@@Z ; ATL::CAtlMap<ATL::CStringT<wchar_t,StrTraitMFC<wchar_t,ATL::ChTraitsCRT<wchar_t> > >,bool,ATL::CStringElementTraits<ATL::CStringT<wchar_t,StrTraitMFC<wchar_t,ATL::ChTraitsCRT<wchar_t> > > >,ATL::CElementTraits<bool> >::GetNode
PUBLIC	??0CPair@?$CAtlMap@V?$CStringT@_WV?$StrTraitMFC@_WV?$ChTraitsCRT@_W@ATL@@@@@ATL@@_NV?$CStringElementTraits@V?$CStringT@_WV?$StrTraitMFC@_WV?$ChTraitsCRT@_W@ATL@@@@@ATL@@@2@V?$CElementTraits@_N@2@@ATL@@IAE@PB_W@Z ; ATL::CAtlMap<ATL::CStringT<wchar_t,StrTraitMFC<wchar_t,ATL::ChTraitsCRT<wchar_t> > >,bool,ATL::CStringElementTraits<ATL::CStringT<wchar_t,StrTraitMFC<wchar_t,ATL::ChTraitsCRT<wchar_t> > > >,ATL::CElementTraits<bool> >::CPair::CPair
PUBLIC	??0CNode@?$CAtlMap@V?$CStringT@_WV?$StrTraitMFC@_WV?$ChTraitsCRT@_W@ATL@@@@@ATL@@_NV?$CStringElementTraits@V?$CStringT@_WV?$StrTraitMFC@_WV?$ChTraitsCRT@_W@ATL@@@@@ATL@@@2@V?$CElementTraits@_N@2@@ATL@@QAE@PB_WI@Z ; ATL::CAtlMap<ATL::CStringT<wchar_t,StrTraitMFC<wchar_t,ATL::ChTraitsCRT<wchar_t> > >,bool,ATL::CStringElementTraits<ATL::CStringT<wchar_t,StrTraitMFC<wchar_t,ATL::ChTraitsCRT<wchar_t> > > >,ATL::CElementTraits<bool> >::CNode::CNode
PUBLIC	?NewNode@?$CAtlMap@V?$CStringT@_WV?$StrTraitMFC@_WV?$ChTraitsCRT@_W@ATL@@@@@ATL@@_NV?$CStringElementTraits@V?$CStringT@_WV?$StrTraitMFC@_WV?$ChTraitsCRT@_W@ATL@@@@@ATL@@@2@V?$CElementTraits@_N@2@@ATL@@AAEPAVCNode@12@PB_WII@Z ; ATL::CAtlMap<ATL::CStringT<wchar_t,StrTraitMFC<wchar_t,ATL::ChTraitsCRT<wchar_t> > >,bool,ATL::CStringElementTraits<ATL::CStringT<wchar_t,StrTraitMFC<wchar_t,ATL::ChTraitsCRT<wchar_t> > > >,ATL::CElementTraits<bool> >::NewNode
PUBLIC	?CreateNode@?$CAtlMap@V?$CStringT@_WV?$StrTraitMFC@_WV?$ChTraitsCRT@_W@ATL@@@@@ATL@@_NV?$CStringElementTraits@V?$CStringT@_WV?$StrTraitMFC@_WV?$ChTraitsCRT@_W@ATL@@@@@ATL@@@2@V?$CElementTraits@_N@2@@ATL@@AAEPAVCNode@12@PB_WII@Z ; ATL::CAtlMap<ATL::CStringT<wchar_t,StrTraitMFC<wchar_t,ATL::ChTraitsCRT<wchar_t> > >,bool,ATL::CStringElementTraits<ATL::CStringT<wchar_t,StrTraitMFC<wchar_t,ATL::ChTraitsCRT<wchar_t> > > >,ATL::CElementTraits<bool> >::CreateNode
PUBLIC	??A?$CAtlMap@V?$CStringT@_WV?$StrTraitMFC@_WV?$ChTraitsCRT@_W@ATL@@@@@ATL@@_NV?$CStringElementTraits@V?$CStringT@_WV?$StrTraitMFC@_WV?$ChTraitsCRT@_W@ATL@@@@@ATL@@@2@V?$CElementTraits@_N@2@@ATL@@QAEAA_NPB_W@Z ; ATL::CAtlMap<ATL::CStringT<wchar_t,StrTraitMFC<wchar_t,ATL::ChTraitsCRT<wchar_t> > >,bool,ATL::CStringElementTraits<ATL::CStringT<wchar_t,StrTraitMFC<wchar_t,ATL::ChTraitsCRT<wchar_t> > > >,ATL::CElementTraits<bool> >::operator[]
PUBLIC	?SetOptimalLoad@?$CAtlMap@V?$CStringT@_WV?$StrTraitMFC@_WV?$ChTraitsCRT@_W@ATL@@@@@ATL@@_NV?$CStringElementTraits@V?$CStringT@_WV?$StrTraitMFC@_WV?$ChTraitsCRT@_W@ATL@@@@@ATL@@@2@V?$CElementTraits@_N@2@@ATL@@QAEXMMM_N@Z ; ATL::CAtlMap<ATL::CStringT<wchar_t,StrTraitMFC<wchar_t,ATL::ChTraitsCRT<wchar_t> > >,bool,ATL::CStringElementTraits<ATL::CStringT<wchar_t,StrTraitMFC<wchar_t,ATL::ChTraitsCRT<wchar_t> > > >,ATL::CElementTraits<bool> >::SetOptimalLoad
PUBLIC	??0?$CAtlMap@V?$CStringT@_WV?$StrTraitMFC@_WV?$ChTraitsCRT@_W@ATL@@@@@ATL@@_NV?$CStringElementTraits@V?$CStringT@_WV?$StrTraitMFC@_WV?$ChTraitsCRT@_W@ATL@@@@@ATL@@@2@V?$CElementTraits@_N@2@@ATL@@QAE@IMMMI@Z ; ATL::CAtlMap<ATL::CStringT<wchar_t,StrTraitMFC<wchar_t,ATL::ChTraitsCRT<wchar_t> > >,bool,ATL::CStringElementTraits<ATL::CStringT<wchar_t,StrTraitMFC<wchar_t,ATL::ChTraitsCRT<wchar_t> > > >,ATL::CElementTraits<bool> >::CAtlMap<ATL::CStringT<wchar_t,StrTraitMFC<wchar_t,ATL::ChTraitsCRT<wchar_t> > >,bool,ATL::CStringElementTraits<ATL::CStringT<wchar_t,StrTraitMFC<wchar_t,ATL::ChTraitsCRT<wchar_t> > > >,ATL::CElementTraits<bool> >
PUBLIC	??0?$StringMap@_NV?$CStringT@_WV?$StrTraitMFC@_WV?$ChTraitsCRT@_W@ATL@@@@@ATL@@@ssf@@QAE@XZ ; ssf::StringMap<bool,ATL::CStringT<wchar_t,StrTraitMFC<wchar_t,ATL::ChTraitsCRT<wchar_t> > > >::StringMap<bool,ATL::CStringT<wchar_t,StrTraitMFC<wchar_t,ATL::ChTraitsCRT<wchar_t> > > >
PUBLIC	??0?$StringMapW@_NV?$CStringT@_WV?$StrTraitMFC@_WV?$ChTraitsCRT@_W@ATL@@@@@ATL@@@ssf@@QAE@XZ ; ssf::StringMapW<bool,ATL::CStringT<wchar_t,StrTraitMFC<wchar_t,ATL::ChTraitsCRT<wchar_t> > > >::StringMapW<bool,ATL::CStringT<wchar_t,StrTraitMFC<wchar_t,ATL::ChTraitsCRT<wchar_t> > > >
PUBLIC	?EnableAutoRehash@?$CAtlMap@V?$CStringT@_WV?$StrTraitMFC@_WV?$ChTraitsCRT@_W@ATL@@@@@ATL@@_NV?$CStringElementTraits@V?$CStringT@_WV?$StrTraitMFC@_WV?$ChTraitsCRT@_W@ATL@@@@@ATL@@@2@V?$CElementTraits@_N@2@@ATL@@QAEXXZ ; ATL::CAtlMap<ATL::CStringT<wchar_t,StrTraitMFC<wchar_t,ATL::ChTraitsCRT<wchar_t> > >,bool,ATL::CStringElementTraits<ATL::CStringT<wchar_t,StrTraitMFC<wchar_t,ATL::ChTraitsCRT<wchar_t> > > >,ATL::CElementTraits<bool> >::EnableAutoRehash
PUBLIC	?DisableAutoRehash@?$CAtlMap@V?$CStringT@_WV?$StrTraitMFC@_WV?$ChTraitsCRT@_W@ATL@@@@@ATL@@_NV?$CStringElementTraits@V?$CStringT@_WV?$StrTraitMFC@_WV?$ChTraitsCRT@_W@ATL@@@@@ATL@@@2@V?$CElementTraits@_N@2@@ATL@@QAEXXZ ; ATL::CAtlMap<ATL::CStringT<wchar_t,StrTraitMFC<wchar_t,ATL::ChTraitsCRT<wchar_t> > >,bool,ATL::CStringElementTraits<ATL::CStringT<wchar_t,StrTraitMFC<wchar_t,ATL::ChTraitsCRT<wchar_t> > > >,ATL::CElementTraits<bool> >::DisableAutoRehash
PUBLIC	?InitHashTable@?$CAtlMap@V?$CStringT@_WV?$StrTraitMFC@_WV?$ChTraitsCRT@_W@ATL@@@@@ATL@@_NV?$CStringElementTraits@V?$CStringT@_WV?$StrTraitMFC@_WV?$ChTraitsCRT@_W@ATL@@@@@ATL@@@2@V?$CElementTraits@_N@2@@ATL@@QAE_NI_N@Z ; ATL::CAtlMap<ATL::CStringT<wchar_t,StrTraitMFC<wchar_t,ATL::ChTraitsCRT<wchar_t> > >,bool,ATL::CStringElementTraits<ATL::CStringT<wchar_t,StrTraitMFC<wchar_t,ATL::ChTraitsCRT<wchar_t> > > >,ATL::CElementTraits<bool> >::InitHashTable
PUBLIC	?UpdateRehashThresholds@?$CAtlMap@V?$CStringT@_WV?$StrTraitMFC@_WV?$ChTraitsCRT@_W@ATL@@@@@ATL@@_NV?$CStringElementTraits@V?$CStringT@_WV?$StrTraitMFC@_WV?$ChTraitsCRT@_W@ATL@@@@@ATL@@@2@V?$CElementTraits@_N@2@@ATL@@AAEXXZ ; ATL::CAtlMap<ATL::CStringT<wchar_t,StrTraitMFC<wchar_t,ATL::ChTraitsCRT<wchar_t> > >,bool,ATL::CStringElementTraits<ATL::CStringT<wchar_t,StrTraitMFC<wchar_t,ATL::ChTraitsCRT<wchar_t> > > >,ATL::CElementTraits<bool> >::UpdateRehashThresholds
PUBLIC	?GetHash@CNode@?$CAtlMap@V?$CStringT@_WV?$StrTraitMFC@_WV?$ChTraitsCRT@_W@ATL@@@@@ATL@@_NV?$CStringElementTraits@V?$CStringT@_WV?$StrTraitMFC@_WV?$ChTraitsCRT@_W@ATL@@@@@ATL@@@2@V?$CElementTraits@_N@2@@ATL@@QBEIXZ ; ATL::CAtlMap<ATL::CStringT<wchar_t,StrTraitMFC<wchar_t,ATL::ChTraitsCRT<wchar_t> > >,bool,ATL::CStringElementTraits<ATL::CStringT<wchar_t,StrTraitMFC<wchar_t,ATL::ChTraitsCRT<wchar_t> > > >,ATL::CElementTraits<bool> >::CNode::GetHash
PUBLIC	?Rehash@?$CAtlMap@V?$CStringT@_WV?$StrTraitMFC@_WV?$ChTraitsCRT@_W@ATL@@@@@ATL@@_NV?$CStringElementTraits@V?$CStringT@_WV?$StrTraitMFC@_WV?$ChTraitsCRT@_W@ATL@@@@@ATL@@@2@V?$CElementTraits@_N@2@@ATL@@QAEXI@Z ; ATL::CAtlMap<ATL::CStringT<wchar_t,StrTraitMFC<wchar_t,ATL::ChTraitsCRT<wchar_t> > >,bool,ATL::CStringElementTraits<ATL::CStringT<wchar_t,StrTraitMFC<wchar_t,ATL::ChTraitsCRT<wchar_t> > > >,ATL::CElementTraits<bool> >::Rehash
PUBLIC	?IsLocked@?$CAtlMap@V?$CStringT@_WV?$StrTraitMFC@_WV?$ChTraitsCRT@_W@ATL@@@@@ATL@@_NV?$CStringElementTraits@V?$CStringT@_WV?$StrTraitMFC@_WV?$ChTraitsCRT@_W@ATL@@@@@ATL@@@2@V?$CElementTraits@_N@2@@ATL@@ABE_NXZ ; ATL::CAtlMap<ATL::CStringT<wchar_t,StrTraitMFC<wchar_t,ATL::ChTraitsCRT<wchar_t> > >,bool,ATL::CStringElementTraits<ATL::CStringT<wchar_t,StrTraitMFC<wchar_t,ATL::ChTraitsCRT<wchar_t> > > >,ATL::CElementTraits<bool> >::IsLocked
PUBLIC	?PickSize@?$CAtlMap@V?$CStringT@_WV?$StrTraitMFC@_WV?$ChTraitsCRT@_W@ATL@@@@@ATL@@_NV?$CStringElementTraits@V?$CStringT@_WV?$StrTraitMFC@_WV?$ChTraitsCRT@_W@ATL@@@@@ATL@@@2@V?$CElementTraits@_N@2@@ATL@@ABEII@Z ; ATL::CAtlMap<ATL::CStringT<wchar_t,StrTraitMFC<wchar_t,ATL::ChTraitsCRT<wchar_t> > >,bool,ATL::CStringElementTraits<ATL::CStringT<wchar_t,StrTraitMFC<wchar_t,ATL::ChTraitsCRT<wchar_t> > > >,ATL::CElementTraits<bool> >::PickSize
PUBLIC	??1CPair@?$CAtlMap@V?$CStringT@_WV?$StrTraitMFC@_WV?$ChTraitsCRT@_W@ATL@@@@@ATL@@_NV?$CStringElementTraits@V?$CStringT@_WV?$StrTraitMFC@_WV?$ChTraitsCRT@_W@ATL@@@@@ATL@@@2@V?$CElementTraits@_N@2@@ATL@@QAE@XZ ; ATL::CAtlMap<ATL::CStringT<wchar_t,StrTraitMFC<wchar_t,ATL::ChTraitsCRT<wchar_t> > >,bool,ATL::CStringElementTraits<ATL::CStringT<wchar_t,StrTraitMFC<wchar_t,ATL::ChTraitsCRT<wchar_t> > > >,ATL::CElementTraits<bool> >::CPair::~CPair
PUBLIC	??1CNode@?$CAtlMap@V?$CStringT@_WV?$StrTraitMFC@_WV?$ChTraitsCRT@_W@ATL@@@@@ATL@@_NV?$CStringElementTraits@V?$CStringT@_WV?$StrTraitMFC@_WV?$ChTraitsCRT@_W@ATL@@@@@ATL@@@2@V?$CElementTraits@_N@2@@ATL@@QAE@XZ ; ATL::CAtlMap<ATL::CStringT<wchar_t,StrTraitMFC<wchar_t,ATL::ChTraitsCRT<wchar_t> > >,bool,ATL::CStringElementTraits<ATL::CStringT<wchar_t,StrTraitMFC<wchar_t,ATL::ChTraitsCRT<wchar_t> > > >,ATL::CElementTraits<bool> >::CNode::~CNode
PUBLIC	??_GCNode@?$CAtlMap@V?$CStringT@_WV?$StrTraitMFC@_WV?$ChTraitsCRT@_W@ATL@@@@@ATL@@_NV?$CStringElementTraits@V?$CStringT@_WV?$StrTraitMFC@_WV?$ChTraitsCRT@_W@ATL@@@@@ATL@@@2@V?$CElementTraits@_N@2@@ATL@@QAEPAXI@Z ; ATL::CAtlMap<ATL::CStringT<wchar_t,StrTraitMFC<wchar_t,ATL::ChTraitsCRT<wchar_t> > >,bool,ATL::CStringElementTraits<ATL::CStringT<wchar_t,StrTraitMFC<wchar_t,ATL::ChTraitsCRT<wchar_t> > > >,ATL::CElementTraits<bool> >::CNode::`scalar deleting destructor'
PUBLIC	?FreeNode@?$CAtlMap@V?$CStringT@_WV?$StrTraitMFC@_WV?$ChTraitsCRT@_W@ATL@@@@@ATL@@_NV?$CStringElementTraits@V?$CStringT@_WV?$StrTraitMFC@_WV?$ChTraitsCRT@_W@ATL@@@@@ATL@@@2@V?$CElementTraits@_N@2@@ATL@@AAEXPAVCNode@12@@Z ; ATL::CAtlMap<ATL::CStringT<wchar_t,StrTraitMFC<wchar_t,ATL::ChTraitsCRT<wchar_t> > >,bool,ATL::CStringElementTraits<ATL::CStringT<wchar_t,StrTraitMFC<wchar_t,ATL::ChTraitsCRT<wchar_t> > > >,ATL::CElementTraits<bool> >::FreeNode
PUBLIC	?FreePlexes@?$CAtlMap@V?$CStringT@_WV?$StrTraitMFC@_WV?$ChTraitsCRT@_W@ATL@@@@@ATL@@_NV?$CStringElementTraits@V?$CStringT@_WV?$StrTraitMFC@_WV?$ChTraitsCRT@_W@ATL@@@@@ATL@@@2@V?$CElementTraits@_N@2@@ATL@@AAEXXZ ; ATL::CAtlMap<ATL::CStringT<wchar_t,StrTraitMFC<wchar_t,ATL::ChTraitsCRT<wchar_t> > >,bool,ATL::CStringElementTraits<ATL::CStringT<wchar_t,StrTraitMFC<wchar_t,ATL::ChTraitsCRT<wchar_t> > > >,ATL::CElementTraits<bool> >::FreePlexes
PUBLIC	?RemoveAll@?$CAtlMap@V?$CStringT@_WV?$StrTraitMFC@_WV?$ChTraitsCRT@_W@ATL@@@@@ATL@@_NV?$CStringElementTraits@V?$CStringT@_WV?$StrTraitMFC@_WV?$ChTraitsCRT@_W@ATL@@@@@ATL@@@2@V?$CElementTraits@_N@2@@ATL@@QAEXXZ ; ATL::CAtlMap<ATL::CStringT<wchar_t,StrTraitMFC<wchar_t,ATL::ChTraitsCRT<wchar_t> > >,bool,ATL::CStringElementTraits<ATL::CStringT<wchar_t,StrTraitMFC<wchar_t,ATL::ChTraitsCRT<wchar_t> > > >,ATL::CElementTraits<bool> >::RemoveAll
PUBLIC	??1?$CAtlMap@V?$CStringT@_WV?$StrTraitMFC@_WV?$ChTraitsCRT@_W@ATL@@@@@ATL@@_NV?$CStringElementTraits@V?$CStringT@_WV?$StrTraitMFC@_WV?$ChTraitsCRT@_W@ATL@@@@@ATL@@@2@V?$CElementTraits@_N@2@@ATL@@QAE@XZ ; ATL::CAtlMap<ATL::CStringT<wchar_t,StrTraitMFC<wchar_t,ATL::ChTraitsCRT<wchar_t> > >,bool,ATL::CStringElementTraits<ATL::CStringT<wchar_t,StrTraitMFC<wchar_t,ATL::ChTraitsCRT<wchar_t> > > >,ATL::CElementTraits<bool> >::~CAtlMap<ATL::CStringT<wchar_t,StrTraitMFC<wchar_t,ATL::ChTraitsCRT<wchar_t> > >,bool,ATL::CStringElementTraits<ATL::CStringT<wchar_t,StrTraitMFC<wchar_t,ATL::ChTraitsCRT<wchar_t> > > >,ATL::CElementTraits<bool> >
PUBLIC	??1?$StringMap@_NV?$CStringT@_WV?$StrTraitMFC@_WV?$ChTraitsCRT@_W@ATL@@@@@ATL@@@ssf@@QAE@XZ ; ssf::StringMap<bool,ATL::CStringT<wchar_t,StrTraitMFC<wchar_t,ATL::ChTraitsCRT<wchar_t> > > >::~StringMap<bool,ATL::CStringT<wchar_t,StrTraitMFC<wchar_t,ATL::ChTraitsCRT<wchar_t> > > >
PUBLIC	??1?$StringMapW@_NV?$CStringT@_WV?$StrTraitMFC@_WV?$ChTraitsCRT@_W@ATL@@@@@ATL@@@ssf@@QAE@XZ ; ssf::StringMapW<bool,ATL::CStringT<wchar_t,StrTraitMFC<wchar_t,ATL::ChTraitsCRT<wchar_t> > > >::~StringMapW<bool,ATL::CStringT<wchar_t,StrTraitMFC<wchar_t,ATL::ChTraitsCRT<wchar_t> > > >
PUBLIC	?GetNext@?$CAtlList@V?$CAutoPtr@VSubtitle@ssf@@@ATL@@V?$CAutoPtrElementTraits@VSubtitle@ssf@@@2@@ATL@@QBEABV?$CAutoPtr@VSubtitle@ssf@@@2@AAPAU__POSITION@@@Z ; ATL::CAtlList<ATL::CAutoPtr<ssf::Subtitle>,ATL::CAutoPtrElementTraits<ssf::Subtitle> >::GetNext
PUBLIC	??C?$CAutoPtr@VSubtitle@ssf@@@ATL@@QBEPAVSubtitle@ssf@@XZ ; ATL::CAutoPtr<ssf::Subtitle>::operator->
PUBLIC	??YCPoint@@QAEXUtagSIZE@@@Z			; CPoint::operator+=
PUBLIC	?Append@?$CAtlArray@EV?$CElementTraits@E@ATL@@@ATL@@QAEIABV12@@Z ; ATL::CAtlArray<unsigned char,ATL::CElementTraits<unsigned char> >::Append
PUBLIC	?CopyElements@?$CElementTraitsBase@UtagPOINT@@@ATL@@SAXPAUtagPOINT@@PBU3@I@Z ; ATL::CElementTraitsBase<tagPOINT>::CopyElements
PUBLIC	?Append@?$CAtlArray@UtagPOINT@@V?$CElementTraits@UtagPOINT@@@ATL@@@ATL@@QAEIABV12@@Z ; ATL::CAtlArray<tagPOINT,ATL::CElementTraits<tagPOINT> >::Append
PUBLIC	??BFontWrapper@ssf@@QBEPAUHFONT__@@XZ		; ssf::FontWrapper::operator HFONT__ *
PUBLIC	?GetTextMetric@FontWrapper@ssf@@QAEABUtagTEXTMETRICW@@XZ ; ssf::FontWrapper::GetTextMetric
PUBLIC	??4Background@ssf@@QAEAAU01@ABU01@@Z		; ssf::Background::operator=
PUBLIC	?CopyElements@?$CElementTraitsBase@UPoint@ssf@@@ATL@@SAXPAUPoint@ssf@@PBU34@I@Z ; ATL::CElementTraitsBase<ssf::Point>::CopyElements
PUBLIC	?RelocateElements@?$CElementTraitsBase@UPoint@ssf@@@ATL@@SAXPAUPoint@ssf@@0I@Z ; ATL::CElementTraitsBase<ssf::Point>::RelocateElements
PUBLIC	?GrowBuffer@?$CAtlArray@UPoint@ssf@@V?$CElementTraits@UPoint@ssf@@@ATL@@@ATL@@AAE_NI@Z ; ATL::CAtlArray<ssf::Point,ATL::CElementTraits<ssf::Point> >::GrowBuffer
PUBLIC	?CallConstructors@?$CAtlArray@UPoint@ssf@@V?$CElementTraits@UPoint@ssf@@@ATL@@@ATL@@CAXPAUPoint@ssf@@I@Z ; ATL::CAtlArray<ssf::Point,ATL::CElementTraits<ssf::Point> >::CallConstructors
PUBLIC	?SetCount@?$CAtlArray@UPoint@ssf@@V?$CElementTraits@UPoint@ssf@@@ATL@@@ATL@@QAE_NIH@Z ; ATL::CAtlArray<ssf::Point,ATL::CElementTraits<ssf::Point> >::SetCount
PUBLIC	?Copy@?$CAtlArray@UPoint@ssf@@V?$CElementTraits@UPoint@ssf@@@ATL@@@ATL@@QAEXABV12@@Z ; ATL::CAtlArray<ssf::Point,ATL::CElementTraits<ssf::Point> >::Copy
PUBLIC	??4Path@ssf@@QAEAAV01@ABV01@@Z			; ssf::Path::operator=
PUBLIC	??4Placement@ssf@@QAEAAU01@ABU01@@Z		; ssf::Placement::operator=
PUBLIC	??4Font@ssf@@QAEAAU01@ABU01@@Z			; ssf::Font::operator=
PUBLIC	??4Style@ssf@@QAEAAU01@ABU01@@Z			; ssf::Style::operator=
PUBLIC	?IsEmpty@?$CAtlList@UText@ssf@@V?$CElementTraits@UText@ssf@@@ATL@@@ATL@@QBE_NXZ ; ATL::CAtlList<ssf::Text,ATL::CElementTraits<ssf::Text> >::IsEmpty
PUBLIC	?GetHead@?$CAtlList@UText@ssf@@V?$CElementTraits@UText@ssf@@@ATL@@@ATL@@QBEABUText@ssf@@XZ ; ATL::CAtlList<ssf::Text,ATL::CElementTraits<ssf::Text> >::GetHead
PUBLIC	?GetHeadPosition@?$CAtlList@UText@ssf@@V?$CElementTraits@UText@ssf@@@ATL@@@ATL@@QBEPAU__POSITION@@XZ ; ATL::CAtlList<ssf::Text,ATL::CElementTraits<ssf::Text> >::GetHeadPosition
PUBLIC	?GetNext@?$CAtlList@UText@ssf@@V?$CElementTraits@UText@ssf@@@ATL@@@ATL@@QBEABUText@ssf@@AAPAU__POSITION@@@Z ; ATL::CAtlList<ssf::Text,ATL::CElementTraits<ssf::Text> >::GetNext
PUBLIC	?GetAt@?$CAtlList@UText@ssf@@V?$CElementTraits@UText@ssf@@@ATL@@@ATL@@QBEABUText@ssf@@PAU__POSITION@@@Z ; ATL::CAtlList<ssf::Text,ATL::CElementTraits<ssf::Text> >::GetAt
PUBLIC	?IsEmpty@?$CAtlList@V?$CAutoPtr@VGlyph@ssf@@@ATL@@V?$CAutoPtrElementTraits@VGlyph@ssf@@@2@@ATL@@QBE_NXZ ; ATL::CAtlList<ATL::CAutoPtr<ssf::Glyph>,ATL::CAutoPtrElementTraits<ssf::Glyph> >::IsEmpty
PUBLIC	?GetHead@?$CAtlList@V?$CAutoPtr@VGlyph@ssf@@@ATL@@V?$CAutoPtrElementTraits@VGlyph@ssf@@@2@@ATL@@QAEAAV?$CAutoPtr@VGlyph@ssf@@@2@XZ ; ATL::CAtlList<ATL::CAutoPtr<ssf::Glyph>,ATL::CAutoPtrElementTraits<ssf::Glyph> >::GetHead
PUBLIC	?GetTail@?$CAtlList@V?$CAutoPtr@VGlyph@ssf@@@ATL@@V?$CAutoPtrElementTraits@VGlyph@ssf@@@2@@ATL@@QAEAAV?$CAutoPtr@VGlyph@ssf@@@2@XZ ; ATL::CAtlList<ATL::CAutoPtr<ssf::Glyph>,ATL::CAutoPtrElementTraits<ssf::Glyph> >::GetTail
PUBLIC	?RemoveHead@?$CAtlList@V?$CAutoPtr@VGlyph@ssf@@@ATL@@V?$CAutoPtrElementTraits@VGlyph@ssf@@@2@@ATL@@QAE?AV?$CAutoPtr@VGlyph@ssf@@@2@XZ ; ATL::CAtlList<ATL::CAutoPtr<ssf::Glyph>,ATL::CAutoPtrElementTraits<ssf::Glyph> >::RemoveHead
PUBLIC	?RemoveTail@?$CAtlList@V?$CAutoPtr@VGlyph@ssf@@@ATL@@V?$CAutoPtrElementTraits@VGlyph@ssf@@@2@@ATL@@QAE?AV?$CAutoPtr@VGlyph@ssf@@@2@XZ ; ATL::CAtlList<ATL::CAutoPtr<ssf::Glyph>,ATL::CAutoPtrElementTraits<ssf::Glyph> >::RemoveTail
PUBLIC	?RemoveHeadNoReturn@?$CAtlList@V?$CAutoPtr@VGlyph@ssf@@@ATL@@V?$CAutoPtrElementTraits@VGlyph@ssf@@@2@@ATL@@QAEXXZ ; ATL::CAtlList<ATL::CAutoPtr<ssf::Glyph>,ATL::CAutoPtrElementTraits<ssf::Glyph> >::RemoveHeadNoReturn
PUBLIC	?AddTail@?$CAtlList@V?$CAutoPtr@VGlyph@ssf@@@ATL@@V?$CAutoPtrElementTraits@VGlyph@ssf@@@2@@ATL@@QAEPAU__POSITION@@AAV?$CAutoPtr@VGlyph@ssf@@@2@@Z ; ATL::CAtlList<ATL::CAutoPtr<ssf::Glyph>,ATL::CAutoPtrElementTraits<ssf::Glyph> >::AddTail
PUBLIC	?GetPrev@?$CAtlList@V?$CAutoPtr@VGlyph@ssf@@@ATL@@V?$CAutoPtrElementTraits@VGlyph@ssf@@@2@@ATL@@QAEAAV?$CAutoPtr@VGlyph@ssf@@@2@AAPAU__POSITION@@@Z ; ATL::CAtlList<ATL::CAutoPtr<ssf::Glyph>,ATL::CAutoPtrElementTraits<ssf::Glyph> >::GetPrev
PUBLIC	??0Row@ssf@@QAE@XZ				; ssf::Row::Row
PUBLIC	??0?$CAtlList@V?$CAutoPtr@VGlyph@ssf@@@ATL@@V?$CAutoPtrElementTraits@VGlyph@ssf@@@2@@ATL@@QAE@I@Z ; ATL::CAtlList<ATL::CAutoPtr<ssf::Glyph>,ATL::CAutoPtrElementTraits<ssf::Glyph> >::CAtlList<ATL::CAutoPtr<ssf::Glyph>,ATL::CAutoPtrElementTraits<ssf::Glyph> >
PUBLIC	??0?$CAutoPtrList@VGlyph@ssf@@@ATL@@QAE@I@Z	; ATL::CAutoPtrList<ssf::Glyph>::CAutoPtrList<ssf::Glyph>
PUBLIC	??1RenderedSubtitle@ssf@@UAE@XZ			; ssf::RenderedSubtitle::~RenderedSubtitle
PUBLIC	??_GRenderedSubtitle@ssf@@UAEPAXI@Z		; ssf::RenderedSubtitle::`scalar deleting destructor'
PUBLIC	??0RenderedSubtitle@ssf@@QAE@ABVCRect@@0@Z	; ssf::RenderedSubtitle::RenderedSubtitle
PUBLIC	?Lookup@?$CAtlMap@V?$CStringT@_WV?$StrTraitMFC@_WV?$ChTraitsCRT@_W@ATL@@@@@ATL@@PAVRenderedSubtitle@ssf@@V?$CStringElementTraits@V?$CStringT@_WV?$StrTraitMFC@_WV?$ChTraitsCRT@_W@ATL@@@@@ATL@@@2@V?$CElementTraits@PAVRenderedSubtitle@ssf@@@2@@ATL@@QAEPAVCPair@12@PB_W@Z ; ATL::CAtlMap<ATL::CStringT<wchar_t,StrTraitMFC<wchar_t,ATL::ChTraitsCRT<wchar_t> > >,ssf::RenderedSubtitle *,ATL::CStringElementTraits<ATL::CStringT<wchar_t,StrTraitMFC<wchar_t,ATL::ChTraitsCRT<wchar_t> > > >,ATL::CElementTraits<ssf::RenderedSubtitle *> >::Lookup
PUBLIC	?FreePlexes@?$CAtlMap@V?$CStringT@_WV?$StrTraitMFC@_WV?$ChTraitsCRT@_W@ATL@@@@@ATL@@PAVRenderedSubtitle@ssf@@V?$CStringElementTraits@V?$CStringT@_WV?$StrTraitMFC@_WV?$ChTraitsCRT@_W@ATL@@@@@ATL@@@2@V?$CElementTraits@PAVRenderedSubtitle@ssf@@@2@@ATL@@AAEXXZ ; ATL::CAtlMap<ATL::CStringT<wchar_t,StrTraitMFC<wchar_t,ATL::ChTraitsCRT<wchar_t> > >,ssf::RenderedSubtitle *,ATL::CStringElementTraits<ATL::CStringT<wchar_t,StrTraitMFC<wchar_t,ATL::ChTraitsCRT<wchar_t> > > >,ATL::CElementTraits<ssf::RenderedSubtitle *> >::FreePlexes
PUBLIC	??1CNode@?$CAtlMap@V?$CStringT@_WV?$StrTraitMFC@_WV?$ChTraitsCRT@_W@ATL@@@@@ATL@@PAVRenderedSubtitle@ssf@@V?$CStringElementTraits@V?$CStringT@_WV?$StrTraitMFC@_WV?$ChTraitsCRT@_W@ATL@@@@@ATL@@@2@V?$CElementTraits@PAVRenderedSubtitle@ssf@@@2@@ATL@@QAE@XZ ; ATL::CAtlMap<ATL::CStringT<wchar_t,StrTraitMFC<wchar_t,ATL::ChTraitsCRT<wchar_t> > >,ssf::RenderedSubtitle *,ATL::CStringElementTraits<ATL::CStringT<wchar_t,StrTraitMFC<wchar_t,ATL::ChTraitsCRT<wchar_t> > > >,ATL::CElementTraits<ssf::RenderedSubtitle *> >::CNode::~CNode
PUBLIC	??_GCNode@?$CAtlMap@V?$CStringT@_WV?$StrTraitMFC@_WV?$ChTraitsCRT@_W@ATL@@@@@ATL@@PAVRenderedSubtitle@ssf@@V?$CStringElementTraits@V?$CStringT@_WV?$StrTraitMFC@_WV?$ChTraitsCRT@_W@ATL@@@@@ATL@@@2@V?$CElementTraits@PAVRenderedSubtitle@ssf@@@2@@ATL@@QAEPAXI@Z ; ATL::CAtlMap<ATL::CStringT<wchar_t,StrTraitMFC<wchar_t,ATL::ChTraitsCRT<wchar_t> > >,ssf::RenderedSubtitle *,ATL::CStringElementTraits<ATL::CStringT<wchar_t,StrTraitMFC<wchar_t,ATL::ChTraitsCRT<wchar_t> > > >,ATL::CElementTraits<ssf::RenderedSubtitle *> >::CNode::`scalar deleting destructor'
PUBLIC	?FreeNode@?$CAtlMap@V?$CStringT@_WV?$StrTraitMFC@_WV?$ChTraitsCRT@_W@ATL@@@@@ATL@@PAVRenderedSubtitle@ssf@@V?$CStringElementTraits@V?$CStringT@_WV?$StrTraitMFC@_WV?$ChTraitsCRT@_W@ATL@@@@@ATL@@@2@V?$CElementTraits@PAVRenderedSubtitle@ssf@@@2@@ATL@@AAEXPAVCNode@12@@Z ; ATL::CAtlMap<ATL::CStringT<wchar_t,StrTraitMFC<wchar_t,ATL::ChTraitsCRT<wchar_t> > >,ssf::RenderedSubtitle *,ATL::CStringElementTraits<ATL::CStringT<wchar_t,StrTraitMFC<wchar_t,ATL::ChTraitsCRT<wchar_t> > > >,ATL::CElementTraits<ssf::RenderedSubtitle *> >::FreeNode
PUBLIC	?RemoveNode@?$CAtlMap@V?$CStringT@_WV?$StrTraitMFC@_WV?$ChTraitsCRT@_W@ATL@@@@@ATL@@PAVRenderedSubtitle@ssf@@V?$CStringElementTraits@V?$CStringT@_WV?$StrTraitMFC@_WV?$ChTraitsCRT@_W@ATL@@@@@ATL@@@2@V?$CElementTraits@PAVRenderedSubtitle@ssf@@@2@@ATL@@AAEXPAVCNode@12@0@Z ; ATL::CAtlMap<ATL::CStringT<wchar_t,StrTraitMFC<wchar_t,ATL::ChTraitsCRT<wchar_t> > >,ssf::RenderedSubtitle *,ATL::CStringElementTraits<ATL::CStringT<wchar_t,StrTraitMFC<wchar_t,ATL::ChTraitsCRT<wchar_t> > > >,ATL::CElementTraits<ssf::RenderedSubtitle *> >::RemoveNode
PUBLIC	?RemoveKey@?$CAtlMap@V?$CStringT@_WV?$StrTraitMFC@_WV?$ChTraitsCRT@_W@ATL@@@@@ATL@@PAVRenderedSubtitle@ssf@@V?$CStringElementTraits@V?$CStringT@_WV?$StrTraitMFC@_WV?$ChTraitsCRT@_W@ATL@@@@@ATL@@@2@V?$CElementTraits@PAVRenderedSubtitle@ssf@@@2@@ATL@@QAE_NPB_W@Z ; ATL::CAtlMap<ATL::CStringT<wchar_t,StrTraitMFC<wchar_t,ATL::ChTraitsCRT<wchar_t> > >,ssf::RenderedSubtitle *,ATL::CStringElementTraits<ATL::CStringT<wchar_t,StrTraitMFC<wchar_t,ATL::ChTraitsCRT<wchar_t> > > >,ATL::CElementTraits<ssf::RenderedSubtitle *> >::RemoveKey
PUBLIC	?Flush@?$Cache@PAVRenderedSubtitle@ssf@@@ssf@@QAEXXZ ; ssf::Cache<ssf::RenderedSubtitle *>::Flush
PUBLIC	?Add@?$Cache@PAVRenderedSubtitle@ssf@@@ssf@@QAEXABV?$CStringT@_WV?$StrTraitMFC@_WV?$ChTraitsCRT@_W@ATL@@@@@ATL@@AAPAVRenderedSubtitle@2@_N@Z ; ssf::Cache<ssf::RenderedSubtitle *>::Add
PUBLIC	?Lookup@?$Cache@PAVRenderedSubtitle@ssf@@@ssf@@QAE_NABV?$CStringT@_WV?$StrTraitMFC@_WV?$ChTraitsCRT@_W@ATL@@@@@ATL@@AAPAVRenderedSubtitle@2@@Z ; ssf::Cache<ssf::RenderedSubtitle *>::Lookup
PUBLIC	?Lookup@?$CAtlMap@V?$CStringT@_WV?$StrTraitMFC@_WV?$ChTraitsCRT@_W@ATL@@@@@ATL@@PAVRenderedSubtitle@ssf@@V?$CStringElementTraits@V?$CStringT@_WV?$StrTraitMFC@_WV?$ChTraitsCRT@_W@ATL@@@@@ATL@@@2@V?$CElementTraits@PAVRenderedSubtitle@ssf@@@2@@ATL@@QBE_NPB_WAAPAVRenderedSubtitle@ssf@@@Z ; ATL::CAtlMap<ATL::CStringT<wchar_t,StrTraitMFC<wchar_t,ATL::ChTraitsCRT<wchar_t> > >,ssf::RenderedSubtitle *,ATL::CStringElementTraits<ATL::CStringT<wchar_t,StrTraitMFC<wchar_t,ATL::ChTraitsCRT<wchar_t> > > >,ATL::CElementTraits<ssf::RenderedSubtitle *> >::Lookup
PUBLIC	?GetNode@?$CAtlMap@V?$CStringT@_WV?$StrTraitMFC@_WV?$ChTraitsCRT@_W@ATL@@@@@ATL@@PAVRenderedSubtitle@ssf@@V?$CStringElementTraits@V?$CStringT@_WV?$StrTraitMFC@_WV?$ChTraitsCRT@_W@ATL@@@@@ATL@@@2@V?$CElementTraits@PAVRenderedSubtitle@ssf@@@2@@ATL@@ABEPAVCNode@12@PB_WAAI1AAPAV312@@Z ; ATL::CAtlMap<ATL::CStringT<wchar_t,StrTraitMFC<wchar_t,ATL::ChTraitsCRT<wchar_t> > >,ssf::RenderedSubtitle *,ATL::CStringElementTraits<ATL::CStringT<wchar_t,StrTraitMFC<wchar_t,ATL::ChTraitsCRT<wchar_t> > > >,ATL::CElementTraits<ssf::RenderedSubtitle *> >::GetNode
PUBLIC	?InitHashTable@?$CAtlMap@V?$CStringT@_WV?$StrTraitMFC@_WV?$ChTraitsCRT@_W@ATL@@@@@ATL@@PAVRenderedSubtitle@ssf@@V?$CStringElementTraits@V?$CStringT@_WV?$StrTraitMFC@_WV?$ChTraitsCRT@_W@ATL@@@@@ATL@@@2@V?$CElementTraits@PAVRenderedSubtitle@ssf@@@2@@ATL@@QAE_NI_N@Z ; ATL::CAtlMap<ATL::CStringT<wchar_t,StrTraitMFC<wchar_t,ATL::ChTraitsCRT<wchar_t> > >,ssf::RenderedSubtitle *,ATL::CStringElementTraits<ATL::CStringT<wchar_t,StrTraitMFC<wchar_t,ATL::ChTraitsCRT<wchar_t> > > >,ATL::CElementTraits<ssf::RenderedSubtitle *> >::InitHashTable
PUBLIC	?UpdateRehashThresholds@?$CAtlMap@V?$CStringT@_WV?$StrTraitMFC@_WV?$ChTraitsCRT@_W@ATL@@@@@ATL@@PAVRenderedSubtitle@ssf@@V?$CStringElementTraits@V?$CStringT@_WV?$StrTraitMFC@_WV?$ChTraitsCRT@_W@ATL@@@@@ATL@@@2@V?$CElementTraits@PAVRenderedSubtitle@ssf@@@2@@ATL@@AAEXXZ ; ATL::CAtlMap<ATL::CStringT<wchar_t,StrTraitMFC<wchar_t,ATL::ChTraitsCRT<wchar_t> > >,ssf::RenderedSubtitle *,ATL::CStringElementTraits<ATL::CStringT<wchar_t,StrTraitMFC<wchar_t,ATL::ChTraitsCRT<wchar_t> > > >,ATL::CElementTraits<ssf::RenderedSubtitle *> >::UpdateRehashThresholds
PUBLIC	?GetHash@CNode@?$CAtlMap@V?$CStringT@_WV?$StrTraitMFC@_WV?$ChTraitsCRT@_W@ATL@@@@@ATL@@PAVRenderedSubtitle@ssf@@V?$CStringElementTraits@V?$CStringT@_WV?$StrTraitMFC@_WV?$ChTraitsCRT@_W@ATL@@@@@ATL@@@2@V?$CElementTraits@PAVRenderedSubtitle@ssf@@@2@@ATL@@QBEIXZ ; ATL::CAtlMap<ATL::CStringT<wchar_t,StrTraitMFC<wchar_t,ATL::ChTraitsCRT<wchar_t> > >,ssf::RenderedSubtitle *,ATL::CStringElementTraits<ATL::CStringT<wchar_t,StrTraitMFC<wchar_t,ATL::ChTraitsCRT<wchar_t> > > >,ATL::CElementTraits<ssf::RenderedSubtitle *> >::CNode::GetHash
PUBLIC	?Rehash@?$CAtlMap@V?$CStringT@_WV?$StrTraitMFC@_WV?$ChTraitsCRT@_W@ATL@@@@@ATL@@PAVRenderedSubtitle@ssf@@V?$CStringElementTraits@V?$CStringT@_WV?$StrTraitMFC@_WV?$ChTraitsCRT@_W@ATL@@@@@ATL@@@2@V?$CElementTraits@PAVRenderedSubtitle@ssf@@@2@@ATL@@QAEXI@Z ; ATL::CAtlMap<ATL::CStringT<wchar_t,StrTraitMFC<wchar_t,ATL::ChTraitsCRT<wchar_t> > >,ssf::RenderedSubtitle *,ATL::CStringElementTraits<ATL::CStringT<wchar_t,StrTraitMFC<wchar_t,ATL::ChTraitsCRT<wchar_t> > > >,ATL::CElementTraits<ssf::RenderedSubtitle *> >::Rehash
PUBLIC	?IsLocked@?$CAtlMap@V?$CStringT@_WV?$StrTraitMFC@_WV?$ChTraitsCRT@_W@ATL@@@@@ATL@@PAVRenderedSubtitle@ssf@@V?$CStringElementTraits@V?$CStringT@_WV?$StrTraitMFC@_WV?$ChTraitsCRT@_W@ATL@@@@@ATL@@@2@V?$CElementTraits@PAVRenderedSubtitle@ssf@@@2@@ATL@@ABE_NXZ ; ATL::CAtlMap<ATL::CStringT<wchar_t,StrTraitMFC<wchar_t,ATL::ChTraitsCRT<wchar_t> > >,ssf::RenderedSubtitle *,ATL::CStringElementTraits<ATL::CStringT<wchar_t,StrTraitMFC<wchar_t,ATL::ChTraitsCRT<wchar_t> > > >,ATL::CElementTraits<ssf::RenderedSubtitle *> >::IsLocked
PUBLIC	?PickSize@?$CAtlMap@V?$CStringT@_WV?$StrTraitMFC@_WV?$ChTraitsCRT@_W@ATL@@@@@ATL@@PAVRenderedSubtitle@ssf@@V?$CStringElementTraits@V?$CStringT@_WV?$StrTraitMFC@_WV?$ChTraitsCRT@_W@ATL@@@@@ATL@@@2@V?$CElementTraits@PAVRenderedSubtitle@ssf@@@2@@ATL@@ABEII@Z ; ATL::CAtlMap<ATL::CStringT<wchar_t,StrTraitMFC<wchar_t,ATL::ChTraitsCRT<wchar_t> > >,ssf::RenderedSubtitle *,ATL::CStringElementTraits<ATL::CStringT<wchar_t,StrTraitMFC<wchar_t,ATL::ChTraitsCRT<wchar_t> > > >,ATL::CElementTraits<ssf::RenderedSubtitle *> >::PickSize
PUBLIC	??0CPair@?$CAtlMap@V?$CStringT@_WV?$StrTraitMFC@_WV?$ChTraitsCRT@_W@ATL@@@@@ATL@@PAVRenderedSubtitle@ssf@@V?$CStringElementTraits@V?$CStringT@_WV?$StrTraitMFC@_WV?$ChTraitsCRT@_W@ATL@@@@@ATL@@@2@V?$CElementTraits@PAVRenderedSubtitle@ssf@@@2@@ATL@@IAE@PB_W@Z ; ATL::CAtlMap<ATL::CStringT<wchar_t,StrTraitMFC<wchar_t,ATL::ChTraitsCRT<wchar_t> > >,ssf::RenderedSubtitle *,ATL::CStringElementTraits<ATL::CStringT<wchar_t,StrTraitMFC<wchar_t,ATL::ChTraitsCRT<wchar_t> > > >,ATL::CElementTraits<ssf::RenderedSubtitle *> >::CPair::CPair
PUBLIC	??1CPair@?$CAtlMap@V?$CStringT@_WV?$StrTraitMFC@_WV?$ChTraitsCRT@_W@ATL@@@@@ATL@@PAVRenderedSubtitle@ssf@@V?$CStringElementTraits@V?$CStringT@_WV?$StrTraitMFC@_WV?$ChTraitsCRT@_W@ATL@@@@@ATL@@@2@V?$CElementTraits@PAVRenderedSubtitle@ssf@@@2@@ATL@@QAE@XZ ; ATL::CAtlMap<ATL::CStringT<wchar_t,StrTraitMFC<wchar_t,ATL::ChTraitsCRT<wchar_t> > >,ssf::RenderedSubtitle *,ATL::CStringElementTraits<ATL::CStringT<wchar_t,StrTraitMFC<wchar_t,ATL::ChTraitsCRT<wchar_t> > > >,ATL::CElementTraits<ssf::RenderedSubtitle *> >::CPair::~CPair
PUBLIC	??0CNode@?$CAtlMap@V?$CStringT@_WV?$StrTraitMFC@_WV?$ChTraitsCRT@_W@ATL@@@@@ATL@@PAVRenderedSubtitle@ssf@@V?$CStringElementTraits@V?$CStringT@_WV?$StrTraitMFC@_WV?$ChTraitsCRT@_W@ATL@@@@@ATL@@@2@V?$CElementTraits@PAVRenderedSubtitle@ssf@@@2@@ATL@@QAE@PB_WI@Z ; ATL::CAtlMap<ATL::CStringT<wchar_t,StrTraitMFC<wchar_t,ATL::ChTraitsCRT<wchar_t> > >,ssf::RenderedSubtitle *,ATL::CStringElementTraits<ATL::CStringT<wchar_t,StrTraitMFC<wchar_t,ATL::ChTraitsCRT<wchar_t> > > >,ATL::CElementTraits<ssf::RenderedSubtitle *> >::CNode::CNode
PUBLIC	?NewNode@?$CAtlMap@V?$CStringT@_WV?$StrTraitMFC@_WV?$ChTraitsCRT@_W@ATL@@@@@ATL@@PAVRenderedSubtitle@ssf@@V?$CStringElementTraits@V?$CStringT@_WV?$StrTraitMFC@_WV?$ChTraitsCRT@_W@ATL@@@@@ATL@@@2@V?$CElementTraits@PAVRenderedSubtitle@ssf@@@2@@ATL@@AAEPAVCNode@12@PB_WII@Z ; ATL::CAtlMap<ATL::CStringT<wchar_t,StrTraitMFC<wchar_t,ATL::ChTraitsCRT<wchar_t> > >,ssf::RenderedSubtitle *,ATL::CStringElementTraits<ATL::CStringT<wchar_t,StrTraitMFC<wchar_t,ATL::ChTraitsCRT<wchar_t> > > >,ATL::CElementTraits<ssf::RenderedSubtitle *> >::NewNode
PUBLIC	?CreateNode@?$CAtlMap@V?$CStringT@_WV?$StrTraitMFC@_WV?$ChTraitsCRT@_W@ATL@@@@@ATL@@PAVRenderedSubtitle@ssf@@V?$CStringElementTraits@V?$CStringT@_WV?$StrTraitMFC@_WV?$ChTraitsCRT@_W@ATL@@@@@ATL@@@2@V?$CElementTraits@PAVRenderedSubtitle@ssf@@@2@@ATL@@AAEPAVCNode@12@PB_WII@Z ; ATL::CAtlMap<ATL::CStringT<wchar_t,StrTraitMFC<wchar_t,ATL::ChTraitsCRT<wchar_t> > >,ssf::RenderedSubtitle *,ATL::CStringElementTraits<ATL::CStringT<wchar_t,StrTraitMFC<wchar_t,ATL::ChTraitsCRT<wchar_t> > > >,ATL::CElementTraits<ssf::RenderedSubtitle *> >::CreateNode
PUBLIC	??A?$CAtlMap@V?$CStringT@_WV?$StrTraitMFC@_WV?$ChTraitsCRT@_W@ATL@@@@@ATL@@PAVRenderedSubtitle@ssf@@V?$CStringElementTraits@V?$CStringT@_WV?$StrTraitMFC@_WV?$ChTraitsCRT@_W@ATL@@@@@ATL@@@2@V?$CElementTraits@PAVRenderedSubtitle@ssf@@@2@@ATL@@QAEAAPAVRenderedSubtitle@ssf@@PB_W@Z ; ATL::CAtlMap<ATL::CStringT<wchar_t,StrTraitMFC<wchar_t,ATL::ChTraitsCRT<wchar_t> > >,ssf::RenderedSubtitle *,ATL::CStringElementTraits<ATL::CStringT<wchar_t,StrTraitMFC<wchar_t,ATL::ChTraitsCRT<wchar_t> > > >,ATL::CElementTraits<ssf::RenderedSubtitle *> >::operator[]
PUBLIC	?Invalidate@?$Cache@PAVRenderedSubtitle@ssf@@@ssf@@QAEXABV?$CStringT@_WV?$StrTraitMFC@_WV?$ChTraitsCRT@_W@ATL@@@@@ATL@@@Z ; ssf::Cache<ssf::RenderedSubtitle *>::Invalidate
PUBLIC	??$wcscpy_s@$0CA@@@YAHAAY0CA@_WPB_W@Z		; wcscpy_s<32>
PUBLIC	??0?$CAutoPtr@VGlyph@ssf@@@ATL@@QAE@PAVGlyph@ssf@@@Z ; ATL::CAutoPtr<ssf::Glyph>::CAutoPtr<ssf::Glyph>
PUBLIC	??C?$CAutoPtr@VGlyph@ssf@@@ATL@@QBEPAVGlyph@ssf@@XZ ; ATL::CAutoPtr<ssf::Glyph>::operator->
PUBLIC	?IsEmpty@?$CAtlList@V?$CAutoPtr@VRow@ssf@@@ATL@@V?$CAutoPtrElementTraits@VRow@ssf@@@2@@ATL@@QBE_NXZ ; ATL::CAtlList<ATL::CAutoPtr<ssf::Row>,ATL::CAutoPtrElementTraits<ssf::Row> >::IsEmpty
PUBLIC	?GetHead@?$CAtlList@V?$CAutoPtr@VRow@ssf@@@ATL@@V?$CAutoPtrElementTraits@VRow@ssf@@@2@@ATL@@QAEAAV?$CAutoPtr@VRow@ssf@@@2@XZ ; ATL::CAtlList<ATL::CAutoPtr<ssf::Row>,ATL::CAutoPtrElementTraits<ssf::Row> >::GetHead
PUBLIC	?GetTail@?$CAtlList@V?$CAutoPtr@VRow@ssf@@@ATL@@V?$CAutoPtrElementTraits@VRow@ssf@@@2@@ATL@@QAEAAV?$CAutoPtr@VRow@ssf@@@2@XZ ; ATL::CAtlList<ATL::CAutoPtr<ssf::Row>,ATL::CAutoPtrElementTraits<ssf::Row> >::GetTail
PUBLIC	?AddTail@?$CAtlList@V?$CAutoPtr@VRow@ssf@@@ATL@@V?$CAutoPtrElementTraits@VRow@ssf@@@2@@ATL@@QAEPAU__POSITION@@AAV?$CAutoPtr@VRow@ssf@@@2@@Z ; ATL::CAtlList<ATL::CAutoPtr<ssf::Row>,ATL::CAutoPtrElementTraits<ssf::Row> >::AddTail
PUBLIC	?InsertBefore@?$CAtlList@V?$CAutoPtr@VRow@ssf@@@ATL@@V?$CAutoPtrElementTraits@VRow@ssf@@@2@@ATL@@QAEPAU__POSITION@@PAU3@AAV?$CAutoPtr@VRow@ssf@@@2@@Z ; ATL::CAtlList<ATL::CAutoPtr<ssf::Row>,ATL::CAutoPtrElementTraits<ssf::Row> >::InsertBefore
PUBLIC	??0?$CAtlList@V?$CAutoPtr@VRow@ssf@@@ATL@@V?$CAutoPtrElementTraits@VRow@ssf@@@2@@ATL@@QAE@I@Z ; ATL::CAtlList<ATL::CAutoPtr<ssf::Row>,ATL::CAutoPtrElementTraits<ssf::Row> >::CAtlList<ATL::CAutoPtr<ssf::Row>,ATL::CAutoPtrElementTraits<ssf::Row> >
PUBLIC	??0?$CAutoPtrList@VRow@ssf@@@ATL@@QAE@I@Z	; ATL::CAutoPtrList<ssf::Row>::CAutoPtrList<ssf::Row>
PUBLIC	??1?$CAtlList@V?$CAutoPtr@VRow@ssf@@@ATL@@V?$CAutoPtrElementTraits@VRow@ssf@@@2@@ATL@@QAE@XZ ; ATL::CAtlList<ATL::CAutoPtr<ssf::Row>,ATL::CAutoPtrElementTraits<ssf::Row> >::~CAtlList<ATL::CAutoPtr<ssf::Row>,ATL::CAutoPtrElementTraits<ssf::Row> >
PUBLIC	??1?$CAutoPtrList@VRow@ssf@@@ATL@@QAE@XZ	; ATL::CAutoPtrList<ssf::Row>::~CAutoPtrList<ssf::Row>
PUBLIC	??0?$CAutoPtr@VRow@ssf@@@ATL@@QAE@XZ		; ATL::CAutoPtr<ssf::Row>::CAutoPtr<ssf::Row>
PUBLIC	??B?$CAutoPtr@VRow@ssf@@@ATL@@QBEPAVRow@ssf@@XZ	; ATL::CAutoPtr<ssf::Row>::operator ssf::Row *
PUBLIC	??C?$CAutoPtr@VRow@ssf@@@ATL@@QBEPAVRow@ssf@@XZ	; ATL::CAutoPtr<ssf::Row>::operator->
PUBLIC	?Attach@?$CAutoPtr@VRow@ssf@@@ATL@@QAEXPAVRow@ssf@@@Z ; ATL::CAutoPtr<ssf::Row>::Attach
PUBLIC	??0?$CAtlList@PAVGlyph@ssf@@V?$CElementTraits@PAVGlyph@ssf@@@ATL@@@ATL@@QAE@I@Z ; ATL::CAtlList<ssf::Glyph *,ATL::CElementTraits<ssf::Glyph *> >::CAtlList<ssf::Glyph *,ATL::CElementTraits<ssf::Glyph *> >
PUBLIC	?IsEmpty@?$CAtlList@PAVGlyph@ssf@@V?$CElementTraits@PAVGlyph@ssf@@@ATL@@@ATL@@QBE_NXZ ; ATL::CAtlList<ssf::Glyph *,ATL::CElementTraits<ssf::Glyph *> >::IsEmpty
PUBLIC	?RemoveTail@?$CAtlList@PAVGlyph@ssf@@V?$CElementTraits@PAVGlyph@ssf@@@ATL@@@ATL@@QAEPAVGlyph@ssf@@XZ ; ATL::CAtlList<ssf::Glyph *,ATL::CElementTraits<ssf::Glyph *> >::RemoveTail
PUBLIC	?GetFreeNode@?$CAtlList@PAVGlyph@ssf@@V?$CElementTraits@PAVGlyph@ssf@@@ATL@@@ATL@@AAEXXZ ; ATL::CAtlList<ssf::Glyph *,ATL::CElementTraits<ssf::Glyph *> >::GetFreeNode
PUBLIC	??0CNode@?$CAtlList@PAVGlyph@ssf@@V?$CElementTraits@PAVGlyph@ssf@@@ATL@@@ATL@@QAE@ABQAVGlyph@ssf@@@Z ; ATL::CAtlList<ssf::Glyph *,ATL::CElementTraits<ssf::Glyph *> >::CNode::CNode
PUBLIC	?NewNode@?$CAtlList@PAVGlyph@ssf@@V?$CElementTraits@PAVGlyph@ssf@@@ATL@@@ATL@@AAEPAVCNode@12@ABQAVGlyph@ssf@@PAV312@1@Z ; ATL::CAtlList<ssf::Glyph *,ATL::CElementTraits<ssf::Glyph *> >::NewNode
PUBLIC	?AddTail@?$CAtlList@PAVGlyph@ssf@@V?$CElementTraits@PAVGlyph@ssf@@@ATL@@@ATL@@QAEPAU__POSITION@@ABQAVGlyph@ssf@@@Z ; ATL::CAtlList<ssf::Glyph *,ATL::CElementTraits<ssf::Glyph *> >::AddTail
PUBLIC	??1CNode@?$CAtlList@PAVGlyph@ssf@@V?$CElementTraits@PAVGlyph@ssf@@@ATL@@@ATL@@QAE@XZ ; ATL::CAtlList<ssf::Glyph *,ATL::CElementTraits<ssf::Glyph *> >::CNode::~CNode
PUBLIC	??_GCNode@?$CAtlList@PAVGlyph@ssf@@V?$CElementTraits@PAVGlyph@ssf@@@ATL@@@ATL@@QAEPAXI@Z ; ATL::CAtlList<ssf::Glyph *,ATL::CElementTraits<ssf::Glyph *> >::CNode::`scalar deleting destructor'
PUBLIC	?FreeNode@?$CAtlList@PAVGlyph@ssf@@V?$CElementTraits@PAVGlyph@ssf@@@ATL@@@ATL@@AAEXPAVCNode@12@@Z ; ATL::CAtlList<ssf::Glyph *,ATL::CElementTraits<ssf::Glyph *> >::FreeNode
PUBLIC	?RemoveAll@?$CAtlList@PAVGlyph@ssf@@V?$CElementTraits@PAVGlyph@ssf@@@ATL@@@ATL@@QAEXXZ ; ATL::CAtlList<ssf::Glyph *,ATL::CElementTraits<ssf::Glyph *> >::RemoveAll
PUBLIC	??1?$CAtlList@PAVGlyph@ssf@@V?$CElementTraits@PAVGlyph@ssf@@@ATL@@@ATL@@QAE@XZ ; ATL::CAtlList<ssf::Glyph *,ATL::CElementTraits<ssf::Glyph *> >::~CAtlList<ssf::Glyph *,ATL::CElementTraits<ssf::Glyph *> >
PUBLIC	?GetFreeNode@?$CAtlList@V?$CAutoPtr@VRow@ssf@@@ATL@@V?$CAutoPtrElementTraits@VRow@ssf@@@2@@ATL@@AAEXXZ ; ATL::CAtlList<ATL::CAutoPtr<ssf::Row>,ATL::CAutoPtrElementTraits<ssf::Row> >::GetFreeNode
PUBLIC	?Detach@?$CAutoPtr@VRow@ssf@@@ATL@@QAEPAVRow@ssf@@XZ ; ATL::CAutoPtr<ssf::Row>::Detach
PUBLIC	??0?$CAutoPtr@VRow@ssf@@@ATL@@QAE@AAV01@@Z	; ATL::CAutoPtr<ssf::Row>::CAutoPtr<ssf::Row>
PUBLIC	??0CNode@?$CAtlList@V?$CAutoPtr@VRow@ssf@@@ATL@@V?$CAutoPtrElementTraits@VRow@ssf@@@2@@ATL@@QAE@AAV?$CAutoPtr@VRow@ssf@@@2@@Z ; ATL::CAtlList<ATL::CAutoPtr<ssf::Row>,ATL::CAutoPtrElementTraits<ssf::Row> >::CNode::CNode
PUBLIC	?NewNode@?$CAtlList@V?$CAutoPtr@VRow@ssf@@@ATL@@V?$CAutoPtrElementTraits@VRow@ssf@@@2@@ATL@@AAEPAVCNode@12@AAV?$CAutoPtr@VRow@ssf@@@2@PAV312@1@Z ; ATL::CAtlList<ATL::CAutoPtr<ssf::Row>,ATL::CAutoPtrElementTraits<ssf::Row> >::NewNode
PUBLIC	?AddHead@?$CAtlList@V?$CAutoPtr@VRow@ssf@@@ATL@@V?$CAutoPtrElementTraits@VRow@ssf@@@2@@ATL@@QAEPAU__POSITION@@AAV?$CAutoPtr@VRow@ssf@@@2@@Z ; ATL::CAtlList<ATL::CAutoPtr<ssf::Row>,ATL::CAutoPtrElementTraits<ssf::Row> >::AddHead
PUBLIC	?GetHeadPosition@?$CAtlList@V?$CAutoPtr@VRow@ssf@@@ATL@@V?$CAutoPtrElementTraits@VRow@ssf@@@2@@ATL@@QBEPAU__POSITION@@XZ ; ATL::CAtlList<ATL::CAutoPtr<ssf::Row>,ATL::CAutoPtrElementTraits<ssf::Row> >::GetHeadPosition
PUBLIC	?GetNext@?$CAtlList@V?$CAutoPtr@VRow@ssf@@@ATL@@V?$CAutoPtrElementTraits@VRow@ssf@@@2@@ATL@@QAEAAV?$CAutoPtr@VRow@ssf@@@2@AAPAU__POSITION@@@Z ; ATL::CAtlList<ATL::CAutoPtr<ssf::Row>,ATL::CAutoPtrElementTraits<ssf::Row> >::GetNext
PUBLIC	?GetAt@?$CAtlList@V?$CAutoPtr@VRow@ssf@@@ATL@@V?$CAutoPtrElementTraits@VRow@ssf@@@2@@ATL@@QAEAAV?$CAutoPtr@VRow@ssf@@@2@PAU__POSITION@@@Z ; ATL::CAtlList<ATL::CAutoPtr<ssf::Row>,ATL::CAutoPtrElementTraits<ssf::Row> >::GetAt
PUBLIC	?RemoveAll@?$CAtlList@V?$CAutoPtr@VRow@ssf@@@ATL@@V?$CAutoPtrElementTraits@VRow@ssf@@@2@@ATL@@QAEXXZ ; ATL::CAtlList<ATL::CAutoPtr<ssf::Row>,ATL::CAutoPtrElementTraits<ssf::Row> >::RemoveAll
PUBLIC	??1?$CAtlList@V?$CAutoPtr@VGlyph@ssf@@@ATL@@V?$CAutoPtrElementTraits@VGlyph@ssf@@@2@@ATL@@QAE@XZ ; ATL::CAtlList<ATL::CAutoPtr<ssf::Glyph>,ATL::CAutoPtrElementTraits<ssf::Glyph> >::~CAtlList<ATL::CAutoPtr<ssf::Glyph>,ATL::CAutoPtrElementTraits<ssf::Glyph> >
PUBLIC	??1?$CAutoPtrList@VGlyph@ssf@@@ATL@@QAE@XZ	; ATL::CAutoPtrList<ssf::Glyph>::~CAutoPtrList<ssf::Glyph>
PUBLIC	??1Row@ssf@@QAE@XZ				; ssf::Row::~Row
PUBLIC	??_GRow@ssf@@QAEPAXI@Z				; ssf::Row::`scalar deleting destructor'
PUBLIC	?Free@?$CAutoPtr@VRow@ssf@@@ATL@@QAEXXZ		; ATL::CAutoPtr<ssf::Row>::Free
PUBLIC	??1?$CAutoPtr@VRow@ssf@@@ATL@@QAE@XZ		; ATL::CAutoPtr<ssf::Row>::~CAutoPtr<ssf::Row>
PUBLIC	??1CNode@?$CAtlList@V?$CAutoPtr@VRow@ssf@@@ATL@@V?$CAutoPtrElementTraits@VRow@ssf@@@2@@ATL@@QAE@XZ ; ATL::CAtlList<ATL::CAutoPtr<ssf::Row>,ATL::CAutoPtrElementTraits<ssf::Row> >::CNode::~CNode
PUBLIC	??_GCNode@?$CAtlList@V?$CAutoPtr@VRow@ssf@@@ATL@@V?$CAutoPtrElementTraits@VRow@ssf@@@2@@ATL@@QAEPAXI@Z ; ATL::CAtlList<ATL::CAutoPtr<ssf::Row>,ATL::CAutoPtrElementTraits<ssf::Row> >::CNode::`scalar deleting destructor'
PUBLIC	?FreeNode@?$CAtlList@V?$CAutoPtr@VRow@ssf@@@ATL@@V?$CAutoPtrElementTraits@VRow@ssf@@@2@@ATL@@AAEXPAVCNode@12@@Z ; ATL::CAtlList<ATL::CAutoPtr<ssf::Row>,ATL::CAutoPtrElementTraits<ssf::Row> >::FreeNode
PUBLIC	?RemoveAt@?$CAtlList@V?$CAutoPtr@VRow@ssf@@@ATL@@V?$CAutoPtrElementTraits@VRow@ssf@@@2@@ATL@@QAEXPAU__POSITION@@@Z ; ATL::CAtlList<ATL::CAutoPtr<ssf::Row>,ATL::CAutoPtrElementTraits<ssf::Row> >::RemoveAt
PUBLIC	??$ReverseList@V?$CAutoPtrList@VRow@ssf@@@ATL@@@ssf@@YAXAAV?$CAutoPtrList@VRow@ssf@@@ATL@@@Z ; ssf::ReverseList<ATL::CAutoPtrList<ssf::Row> >
PUBLIC	?GetFreeNode@?$CAtlList@V?$CAutoPtr@VGlyph@ssf@@@ATL@@V?$CAutoPtrElementTraits@VGlyph@ssf@@@2@@ATL@@AAEXXZ ; ATL::CAtlList<ATL::CAutoPtr<ssf::Glyph>,ATL::CAutoPtrElementTraits<ssf::Glyph> >::GetFreeNode
PUBLIC	?Detach@?$CAutoPtr@VGlyph@ssf@@@ATL@@QAEPAVGlyph@ssf@@XZ ; ATL::CAutoPtr<ssf::Glyph>::Detach
PUBLIC	??0?$CAutoPtr@VGlyph@ssf@@@ATL@@QAE@AAV01@@Z	; ATL::CAutoPtr<ssf::Glyph>::CAutoPtr<ssf::Glyph>
PUBLIC	??0CNode@?$CAtlList@V?$CAutoPtr@VGlyph@ssf@@@ATL@@V?$CAutoPtrElementTraits@VGlyph@ssf@@@2@@ATL@@QAE@AAV?$CAutoPtr@VGlyph@ssf@@@2@@Z ; ATL::CAtlList<ATL::CAutoPtr<ssf::Glyph>,ATL::CAutoPtrElementTraits<ssf::Glyph> >::CNode::CNode
PUBLIC	?NewNode@?$CAtlList@V?$CAutoPtr@VGlyph@ssf@@@ATL@@V?$CAutoPtrElementTraits@VGlyph@ssf@@@2@@ATL@@AAEPAVCNode@12@AAV?$CAutoPtr@VGlyph@ssf@@@2@PAV312@1@Z ; ATL::CAtlList<ATL::CAutoPtr<ssf::Glyph>,ATL::CAutoPtrElementTraits<ssf::Glyph> >::NewNode
PUBLIC	?AddHead@?$CAtlList@V?$CAutoPtr@VGlyph@ssf@@@ATL@@V?$CAutoPtrElementTraits@VGlyph@ssf@@@2@@ATL@@QAEPAU__POSITION@@AAV?$CAutoPtr@VGlyph@ssf@@@2@@Z ; ATL::CAtlList<ATL::CAutoPtr<ssf::Glyph>,ATL::CAutoPtrElementTraits<ssf::Glyph> >::AddHead
PUBLIC	?GetNext@?$CAtlList@V?$CAutoPtr@VGlyph@ssf@@@ATL@@V?$CAutoPtrElementTraits@VGlyph@ssf@@@2@@ATL@@QAEAAV?$CAutoPtr@VGlyph@ssf@@@2@AAPAU__POSITION@@@Z ; ATL::CAtlList<ATL::CAutoPtr<ssf::Glyph>,ATL::CAutoPtrElementTraits<ssf::Glyph> >::GetNext
PUBLIC	?GetAt@?$CAtlList@V?$CAutoPtr@VGlyph@ssf@@@ATL@@V?$CAutoPtrElementTraits@VGlyph@ssf@@@2@@ATL@@QAEAAV?$CAutoPtr@VGlyph@ssf@@@2@PAU__POSITION@@@Z ; ATL::CAtlList<ATL::CAutoPtr<ssf::Glyph>,ATL::CAutoPtrElementTraits<ssf::Glyph> >::GetAt
PUBLIC	?RemoveAll@?$CAtlList@V?$CAutoPtr@VGlyph@ssf@@@ATL@@V?$CAutoPtrElementTraits@VGlyph@ssf@@@2@@ATL@@QAEXXZ ; ATL::CAtlList<ATL::CAutoPtr<ssf::Glyph>,ATL::CAutoPtrElementTraits<ssf::Glyph> >::RemoveAll
PUBLIC	??1Background@ssf@@QAE@XZ			; ssf::Background::~Background
PUBLIC	?CallDestructors@?$CAtlArray@UPoint@ssf@@V?$CElementTraits@UPoint@ssf@@@ATL@@@ATL@@CAXPAUPoint@ssf@@I@Z ; ATL::CAtlArray<ssf::Point,ATL::CElementTraits<ssf::Point> >::CallDestructors
PUBLIC	??1?$CAtlArray@UPoint@ssf@@V?$CElementTraits@UPoint@ssf@@@ATL@@@ATL@@QAE@XZ ; ATL::CAtlArray<ssf::Point,ATL::CElementTraits<ssf::Point> >::~CAtlArray<ssf::Point,ATL::CElementTraits<ssf::Point> >
PUBLIC	??1Path@ssf@@QAE@XZ				; ssf::Path::~Path
PUBLIC	??1Placement@ssf@@QAE@XZ			; ssf::Placement::~Placement
PUBLIC	??1Font@ssf@@QAE@XZ				; ssf::Font::~Font
PUBLIC	??1Style@ssf@@QAE@XZ				; ssf::Style::~Style
PUBLIC	?CallDestructors@?$CAtlArray@USplineCoeffs@Glyph@ssf@@V?$CElementTraits@USplineCoeffs@Glyph@ssf@@@ATL@@@ATL@@CAXPAUSplineCoeffs@Glyph@ssf@@I@Z ; ATL::CAtlArray<ssf::Glyph::SplineCoeffs,ATL::CElementTraits<ssf::Glyph::SplineCoeffs> >::CallDestructors
PUBLIC	??1?$CAtlArray@USplineCoeffs@Glyph@ssf@@V?$CElementTraits@USplineCoeffs@Glyph@ssf@@@ATL@@@ATL@@QAE@XZ ; ATL::CAtlArray<ssf::Glyph::SplineCoeffs,ATL::CElementTraits<ssf::Glyph::SplineCoeffs> >::~CAtlArray<ssf::Glyph::SplineCoeffs,ATL::CElementTraits<ssf::Glyph::SplineCoeffs> >
PUBLIC	??1Glyph@ssf@@QAE@XZ				; ssf::Glyph::~Glyph
PUBLIC	??_GGlyph@ssf@@QAEPAXI@Z			; ssf::Glyph::`scalar deleting destructor'
PUBLIC	?Free@?$CAutoPtr@VGlyph@ssf@@@ATL@@QAEXXZ	; ATL::CAutoPtr<ssf::Glyph>::Free
PUBLIC	??1?$CAutoPtr@VGlyph@ssf@@@ATL@@QAE@XZ		; ATL::CAutoPtr<ssf::Glyph>::~CAutoPtr<ssf::Glyph>
PUBLIC	??1CNode@?$CAtlList@V?$CAutoPtr@VGlyph@ssf@@@ATL@@V?$CAutoPtrElementTraits@VGlyph@ssf@@@2@@ATL@@QAE@XZ ; ATL::CAtlList<ATL::CAutoPtr<ssf::Glyph>,ATL::CAutoPtrElementTraits<ssf::Glyph> >::CNode::~CNode
PUBLIC	??_GCNode@?$CAtlList@V?$CAutoPtr@VGlyph@ssf@@@ATL@@V?$CAutoPtrElementTraits@VGlyph@ssf@@@2@@ATL@@QAEPAXI@Z ; ATL::CAtlList<ATL::CAutoPtr<ssf::Glyph>,ATL::CAutoPtrElementTraits<ssf::Glyph> >::CNode::`scalar deleting destructor'
PUBLIC	?FreeNode@?$CAtlList@V?$CAutoPtr@VGlyph@ssf@@@ATL@@V?$CAutoPtrElementTraits@VGlyph@ssf@@@2@@ATL@@AAEXPAVCNode@12@@Z ; ATL::CAtlList<ATL::CAutoPtr<ssf::Glyph>,ATL::CAutoPtrElementTraits<ssf::Glyph> >::FreeNode
PUBLIC	?RemoveAt@?$CAtlList@V?$CAutoPtr@VGlyph@ssf@@@ATL@@V?$CAutoPtrElementTraits@VGlyph@ssf@@@2@@ATL@@QAEXPAU__POSITION@@@Z ; ATL::CAtlList<ATL::CAutoPtr<ssf::Glyph>,ATL::CAutoPtrElementTraits<ssf::Glyph> >::RemoveAt
PUBLIC	??$ReverseList@VRow@ssf@@@ssf@@YAXAAVRow@0@@Z	; ssf::ReverseList<ssf::Row>
PUBLIC	?GetHeadPosition@?$CAtlList@V?$CAutoPtr@VGlyph@ssf@@@ATL@@V?$CAutoPtrElementTraits@VGlyph@ssf@@@2@@ATL@@QBEPAU__POSITION@@XZ ; ATL::CAtlList<ATL::CAutoPtr<ssf::Glyph>,ATL::CAutoPtrElementTraits<ssf::Glyph> >::GetHeadPosition
PUBLIC	?GetNext@?$CAtlList@V?$CAutoPtr@VGlyph@ssf@@@ATL@@V?$CAutoPtrElementTraits@VGlyph@ssf@@@2@@ATL@@QBEABV?$CAutoPtr@VGlyph@ssf@@@2@AAPAU__POSITION@@@Z ; ATL::CAtlList<ATL::CAutoPtr<ssf::Glyph>,ATL::CAutoPtrElementTraits<ssf::Glyph> >::GetNext
PUBLIC	??B?$CAutoPtr@VGlyph@ssf@@@ATL@@QBEPAVGlyph@ssf@@XZ ; ATL::CAutoPtr<ssf::Glyph>::operator ssf::Glyph *
PUBLIC	?EnableAutoRehash@?$CAtlMap@V?$CStringT@_WV?$StrTraitMFC@_WV?$ChTraitsCRT@_W@ATL@@@@@ATL@@VSubRect@ssf@@V?$CStringElementTraits@V?$CStringT@_WV?$StrTraitMFC@_WV?$ChTraitsCRT@_W@ATL@@@@@ATL@@@2@V?$CElementTraits@VSubRect@ssf@@@2@@ATL@@QAEXXZ ; ATL::CAtlMap<ATL::CStringT<wchar_t,StrTraitMFC<wchar_t,ATL::ChTraitsCRT<wchar_t> > >,ssf::SubRect,ATL::CStringElementTraits<ATL::CStringT<wchar_t,StrTraitMFC<wchar_t,ATL::ChTraitsCRT<wchar_t> > > >,ATL::CElementTraits<ssf::SubRect> >::EnableAutoRehash
PUBLIC	?DisableAutoRehash@?$CAtlMap@V?$CStringT@_WV?$StrTraitMFC@_WV?$ChTraitsCRT@_W@ATL@@@@@ATL@@VSubRect@ssf@@V?$CStringElementTraits@V?$CStringT@_WV?$StrTraitMFC@_WV?$ChTraitsCRT@_W@ATL@@@@@ATL@@@2@V?$CElementTraits@VSubRect@ssf@@@2@@ATL@@QAEXXZ ; ATL::CAtlMap<ATL::CStringT<wchar_t,StrTraitMFC<wchar_t,ATL::ChTraitsCRT<wchar_t> > >,ssf::SubRect,ATL::CStringElementTraits<ATL::CStringT<wchar_t,StrTraitMFC<wchar_t,ATL::ChTraitsCRT<wchar_t> > > >,ATL::CElementTraits<ssf::SubRect> >::DisableAutoRehash
PUBLIC	?RemoveAll@?$CAtlMap@V?$CStringT@_WV?$StrTraitMFC@_WV?$ChTraitsCRT@_W@ATL@@@@@ATL@@VSubRect@ssf@@V?$CStringElementTraits@V?$CStringT@_WV?$StrTraitMFC@_WV?$ChTraitsCRT@_W@ATL@@@@@ATL@@@2@V?$CElementTraits@VSubRect@ssf@@@2@@ATL@@QAEXXZ ; ATL::CAtlMap<ATL::CStringT<wchar_t,StrTraitMFC<wchar_t,ATL::ChTraitsCRT<wchar_t> > >,ssf::SubRect,ATL::CStringElementTraits<ATL::CStringT<wchar_t,StrTraitMFC<wchar_t,ATL::ChTraitsCRT<wchar_t> > > >,ATL::CElementTraits<ssf::SubRect> >::RemoveAll
PUBLIC	?InflateRect@CRect@@QAEXHHHH@Z			; CRect::InflateRect
PUBLIC	?DeflateRect@CRect@@QAEXHHHH@Z			; CRect::DeflateRect
PUBLIC	??0SubRect@ssf@@QAE@ABVCRect@@M@Z		; ssf::SubRect::SubRect
PUBLIC	?Lookup@?$CAtlMap@V?$CStringT@_WV?$StrTraitMFC@_WV?$ChTraitsCRT@_W@ATL@@@@@ATL@@VSubRect@ssf@@V?$CStringElementTraits@V?$CStringT@_WV?$StrTraitMFC@_WV?$ChTraitsCRT@_W@ATL@@@@@ATL@@@2@V?$CElementTraits@VSubRect@ssf@@@2@@ATL@@QAEPAVCPair@12@PB_W@Z ; ATL::CAtlMap<ATL::CStringT<wchar_t,StrTraitMFC<wchar_t,ATL::ChTraitsCRT<wchar_t> > >,ssf::SubRect,ATL::CStringElementTraits<ATL::CStringT<wchar_t,StrTraitMFC<wchar_t,ATL::ChTraitsCRT<wchar_t> > > >,ATL::CElementTraits<ssf::SubRect> >::Lookup
PUBLIC	?RemoveAtPos@?$CAtlMap@V?$CStringT@_WV?$StrTraitMFC@_WV?$ChTraitsCRT@_W@ATL@@@@@ATL@@VSubRect@ssf@@V?$CStringElementTraits@V?$CStringT@_WV?$StrTraitMFC@_WV?$ChTraitsCRT@_W@ATL@@@@@ATL@@@2@V?$CElementTraits@VSubRect@ssf@@@2@@ATL@@QAEXPAU__POSITION@@@Z ; ATL::CAtlMap<ATL::CStringT<wchar_t,StrTraitMFC<wchar_t,ATL::ChTraitsCRT<wchar_t> > >,ssf::SubRect,ATL::CStringElementTraits<ATL::CStringT<wchar_t,StrTraitMFC<wchar_t,ATL::ChTraitsCRT<wchar_t> > > >,ATL::CElementTraits<ssf::SubRect> >::RemoveAtPos
PUBLIC	??0SubRect@ssf@@QAE@XZ				; ssf::SubRect::SubRect
PUBLIC	??0CPair@?$CAtlMap@V?$CStringT@_WV?$StrTraitMFC@_WV?$ChTraitsCRT@_W@ATL@@@@@ATL@@VSubRect@ssf@@V?$CStringElementTraits@V?$CStringT@_WV?$StrTraitMFC@_WV?$ChTraitsCRT@_W@ATL@@@@@ATL@@@2@V?$CElementTraits@VSubRect@ssf@@@2@@ATL@@IAE@PB_W@Z ; ATL::CAtlMap<ATL::CStringT<wchar_t,StrTraitMFC<wchar_t,ATL::ChTraitsCRT<wchar_t> > >,ssf::SubRect,ATL::CStringElementTraits<ATL::CStringT<wchar_t,StrTraitMFC<wchar_t,ATL::ChTraitsCRT<wchar_t> > > >,ATL::CElementTraits<ssf::SubRect> >::CPair::CPair
PUBLIC	??0CNode@?$CAtlMap@V?$CStringT@_WV?$StrTraitMFC@_WV?$ChTraitsCRT@_W@ATL@@@@@ATL@@VSubRect@ssf@@V?$CStringElementTraits@V?$CStringT@_WV?$StrTraitMFC@_WV?$ChTraitsCRT@_W@ATL@@@@@ATL@@@2@V?$CElementTraits@VSubRect@ssf@@@2@@ATL@@QAE@PB_WI@Z ; ATL::CAtlMap<ATL::CStringT<wchar_t,StrTraitMFC<wchar_t,ATL::ChTraitsCRT<wchar_t> > >,ssf::SubRect,ATL::CStringElementTraits<ATL::CStringT<wchar_t,StrTraitMFC<wchar_t,ATL::ChTraitsCRT<wchar_t> > > >,ATL::CElementTraits<ssf::SubRect> >::CNode::CNode
PUBLIC	?NewNode@?$CAtlMap@V?$CStringT@_WV?$StrTraitMFC@_WV?$ChTraitsCRT@_W@ATL@@@@@ATL@@VSubRect@ssf@@V?$CStringElementTraits@V?$CStringT@_WV?$StrTraitMFC@_WV?$ChTraitsCRT@_W@ATL@@@@@ATL@@@2@V?$CElementTraits@VSubRect@ssf@@@2@@ATL@@AAEPAVCNode@12@PB_WII@Z ; ATL::CAtlMap<ATL::CStringT<wchar_t,StrTraitMFC<wchar_t,ATL::ChTraitsCRT<wchar_t> > >,ssf::SubRect,ATL::CStringElementTraits<ATL::CStringT<wchar_t,StrTraitMFC<wchar_t,ATL::ChTraitsCRT<wchar_t> > > >,ATL::CElementTraits<ssf::SubRect> >::NewNode
PUBLIC	?CreateNode@?$CAtlMap@V?$CStringT@_WV?$StrTraitMFC@_WV?$ChTraitsCRT@_W@ATL@@@@@ATL@@VSubRect@ssf@@V?$CStringElementTraits@V?$CStringT@_WV?$StrTraitMFC@_WV?$ChTraitsCRT@_W@ATL@@@@@ATL@@@2@V?$CElementTraits@VSubRect@ssf@@@2@@ATL@@AAEPAVCNode@12@PB_WII@Z ; ATL::CAtlMap<ATL::CStringT<wchar_t,StrTraitMFC<wchar_t,ATL::ChTraitsCRT<wchar_t> > >,ssf::SubRect,ATL::CStringElementTraits<ATL::CStringT<wchar_t,StrTraitMFC<wchar_t,ATL::ChTraitsCRT<wchar_t> > > >,ATL::CElementTraits<ssf::SubRect> >::CreateNode
PUBLIC	?SetAt@?$CAtlMap@V?$CStringT@_WV?$StrTraitMFC@_WV?$ChTraitsCRT@_W@ATL@@@@@ATL@@VSubRect@ssf@@V?$CStringElementTraits@V?$CStringT@_WV?$StrTraitMFC@_WV?$ChTraitsCRT@_W@ATL@@@@@ATL@@@2@V?$CElementTraits@VSubRect@ssf@@@2@@ATL@@QAEPAU__POSITION@@PB_WABVSubRect@ssf@@@Z ; ATL::CAtlMap<ATL::CStringT<wchar_t,StrTraitMFC<wchar_t,ATL::ChTraitsCRT<wchar_t> > >,ssf::SubRect,ATL::CStringElementTraits<ATL::CStringT<wchar_t,StrTraitMFC<wchar_t,ATL::ChTraitsCRT<wchar_t> > > >,ATL::CElementTraits<ssf::SubRect> >::SetAt
PUBLIC	?GetNode@?$CAtlMap@V?$CStringT@_WV?$StrTraitMFC@_WV?$ChTraitsCRT@_W@ATL@@@@@ATL@@VSubRect@ssf@@V?$CStringElementTraits@V?$CStringT@_WV?$StrTraitMFC@_WV?$ChTraitsCRT@_W@ATL@@@@@ATL@@@2@V?$CElementTraits@VSubRect@ssf@@@2@@ATL@@ABEPAVCNode@12@PB_WAAI1AAPAV312@@Z ; ATL::CAtlMap<ATL::CStringT<wchar_t,StrTraitMFC<wchar_t,ATL::ChTraitsCRT<wchar_t> > >,ssf::SubRect,ATL::CStringElementTraits<ATL::CStringT<wchar_t,StrTraitMFC<wchar_t,ATL::ChTraitsCRT<wchar_t> > > >,ATL::CElementTraits<ssf::SubRect> >::GetNode
PUBLIC	?InitHashTable@?$CAtlMap@V?$CStringT@_WV?$StrTraitMFC@_WV?$ChTraitsCRT@_W@ATL@@@@@ATL@@VSubRect@ssf@@V?$CStringElementTraits@V?$CStringT@_WV?$StrTraitMFC@_WV?$ChTraitsCRT@_W@ATL@@@@@ATL@@@2@V?$CElementTraits@VSubRect@ssf@@@2@@ATL@@QAE_NI_N@Z ; ATL::CAtlMap<ATL::CStringT<wchar_t,StrTraitMFC<wchar_t,ATL::ChTraitsCRT<wchar_t> > >,ssf::SubRect,ATL::CStringElementTraits<ATL::CStringT<wchar_t,StrTraitMFC<wchar_t,ATL::ChTraitsCRT<wchar_t> > > >,ATL::CElementTraits<ssf::SubRect> >::InitHashTable
PUBLIC	?UpdateRehashThresholds@?$CAtlMap@V?$CStringT@_WV?$StrTraitMFC@_WV?$ChTraitsCRT@_W@ATL@@@@@ATL@@VSubRect@ssf@@V?$CStringElementTraits@V?$CStringT@_WV?$StrTraitMFC@_WV?$ChTraitsCRT@_W@ATL@@@@@ATL@@@2@V?$CElementTraits@VSubRect@ssf@@@2@@ATL@@AAEXXZ ; ATL::CAtlMap<ATL::CStringT<wchar_t,StrTraitMFC<wchar_t,ATL::ChTraitsCRT<wchar_t> > >,ssf::SubRect,ATL::CStringElementTraits<ATL::CStringT<wchar_t,StrTraitMFC<wchar_t,ATL::ChTraitsCRT<wchar_t> > > >,ATL::CElementTraits<ssf::SubRect> >::UpdateRehashThresholds
PUBLIC	?Rehash@?$CAtlMap@V?$CStringT@_WV?$StrTraitMFC@_WV?$ChTraitsCRT@_W@ATL@@@@@ATL@@VSubRect@ssf@@V?$CStringElementTraits@V?$CStringT@_WV?$StrTraitMFC@_WV?$ChTraitsCRT@_W@ATL@@@@@ATL@@@2@V?$CElementTraits@VSubRect@ssf@@@2@@ATL@@QAEXI@Z ; ATL::CAtlMap<ATL::CStringT<wchar_t,StrTraitMFC<wchar_t,ATL::ChTraitsCRT<wchar_t> > >,ssf::SubRect,ATL::CStringElementTraits<ATL::CStringT<wchar_t,StrTraitMFC<wchar_t,ATL::ChTraitsCRT<wchar_t> > > >,ATL::CElementTraits<ssf::SubRect> >::Rehash
PUBLIC	?IsLocked@?$CAtlMap@V?$CStringT@_WV?$StrTraitMFC@_WV?$ChTraitsCRT@_W@ATL@@@@@ATL@@VSubRect@ssf@@V?$CStringElementTraits@V?$CStringT@_WV?$StrTraitMFC@_WV?$ChTraitsCRT@_W@ATL@@@@@ATL@@@2@V?$CElementTraits@VSubRect@ssf@@@2@@ATL@@ABE_NXZ ; ATL::CAtlMap<ATL::CStringT<wchar_t,StrTraitMFC<wchar_t,ATL::ChTraitsCRT<wchar_t> > >,ssf::SubRect,ATL::CStringElementTraits<ATL::CStringT<wchar_t,StrTraitMFC<wchar_t,ATL::ChTraitsCRT<wchar_t> > > >,ATL::CElementTraits<ssf::SubRect> >::IsLocked
PUBLIC	?PickSize@?$CAtlMap@V?$CStringT@_WV?$StrTraitMFC@_WV?$ChTraitsCRT@_W@ATL@@@@@ATL@@VSubRect@ssf@@V?$CStringElementTraits@V?$CStringT@_WV?$StrTraitMFC@_WV?$ChTraitsCRT@_W@ATL@@@@@ATL@@@2@V?$CElementTraits@VSubRect@ssf@@@2@@ATL@@ABEII@Z ; ATL::CAtlMap<ATL::CStringT<wchar_t,StrTraitMFC<wchar_t,ATL::ChTraitsCRT<wchar_t> > >,ssf::SubRect,ATL::CStringElementTraits<ATL::CStringT<wchar_t,StrTraitMFC<wchar_t,ATL::ChTraitsCRT<wchar_t> > > >,ATL::CElementTraits<ssf::SubRect> >::PickSize
PUBLIC	?FreePlexes@?$CAtlMap@V?$CStringT@_WV?$StrTraitMFC@_WV?$ChTraitsCRT@_W@ATL@@@@@ATL@@VSubRect@ssf@@V?$CStringElementTraits@V?$CStringT@_WV?$StrTraitMFC@_WV?$ChTraitsCRT@_W@ATL@@@@@ATL@@@2@V?$CElementTraits@VSubRect@ssf@@@2@@ATL@@AAEXXZ ; ATL::CAtlMap<ATL::CStringT<wchar_t,StrTraitMFC<wchar_t,ATL::ChTraitsCRT<wchar_t> > >,ssf::SubRect,ATL::CStringElementTraits<ATL::CStringT<wchar_t,StrTraitMFC<wchar_t,ATL::ChTraitsCRT<wchar_t> > > >,ATL::CElementTraits<ssf::SubRect> >::FreePlexes
PUBLIC	??1CPair@?$CAtlMap@V?$CStringT@_WV?$StrTraitMFC@_WV?$ChTraitsCRT@_W@ATL@@@@@ATL@@VSubRect@ssf@@V?$CStringElementTraits@V?$CStringT@_WV?$StrTraitMFC@_WV?$ChTraitsCRT@_W@ATL@@@@@ATL@@@2@V?$CElementTraits@VSubRect@ssf@@@2@@ATL@@QAE@XZ ; ATL::CAtlMap<ATL::CStringT<wchar_t,StrTraitMFC<wchar_t,ATL::ChTraitsCRT<wchar_t> > >,ssf::SubRect,ATL::CStringElementTraits<ATL::CStringT<wchar_t,StrTraitMFC<wchar_t,ATL::ChTraitsCRT<wchar_t> > > >,ATL::CElementTraits<ssf::SubRect> >::CPair::~CPair
PUBLIC	??1CNode@?$CAtlMap@V?$CStringT@_WV?$StrTraitMFC@_WV?$ChTraitsCRT@_W@ATL@@@@@ATL@@VSubRect@ssf@@V?$CStringElementTraits@V?$CStringT@_WV?$StrTraitMFC@_WV?$ChTraitsCRT@_W@ATL@@@@@ATL@@@2@V?$CElementTraits@VSubRect@ssf@@@2@@ATL@@QAE@XZ ; ATL::CAtlMap<ATL::CStringT<wchar_t,StrTraitMFC<wchar_t,ATL::ChTraitsCRT<wchar_t> > >,ssf::SubRect,ATL::CStringElementTraits<ATL::CStringT<wchar_t,StrTraitMFC<wchar_t,ATL::ChTraitsCRT<wchar_t> > > >,ATL::CElementTraits<ssf::SubRect> >::CNode::~CNode
PUBLIC	??_GCNode@?$CAtlMap@V?$CStringT@_WV?$StrTraitMFC@_WV?$ChTraitsCRT@_W@ATL@@@@@ATL@@VSubRect@ssf@@V?$CStringElementTraits@V?$CStringT@_WV?$StrTraitMFC@_WV?$ChTraitsCRT@_W@ATL@@@@@ATL@@@2@V?$CElementTraits@VSubRect@ssf@@@2@@ATL@@QAEPAXI@Z ; ATL::CAtlMap<ATL::CStringT<wchar_t,StrTraitMFC<wchar_t,ATL::ChTraitsCRT<wchar_t> > >,ssf::SubRect,ATL::CStringElementTraits<ATL::CStringT<wchar_t,StrTraitMFC<wchar_t,ATL::ChTraitsCRT<wchar_t> > > >,ATL::CElementTraits<ssf::SubRect> >::CNode::`scalar deleting destructor'
PUBLIC	?FreeNode@?$CAtlMap@V?$CStringT@_WV?$StrTraitMFC@_WV?$ChTraitsCRT@_W@ATL@@@@@ATL@@VSubRect@ssf@@V?$CStringElementTraits@V?$CStringT@_WV?$StrTraitMFC@_WV?$ChTraitsCRT@_W@ATL@@@@@ATL@@@2@V?$CElementTraits@VSubRect@ssf@@@2@@ATL@@AAEXPAVCNode@12@@Z ; ATL::CAtlMap<ATL::CStringT<wchar_t,StrTraitMFC<wchar_t,ATL::ChTraitsCRT<wchar_t> > >,ssf::SubRect,ATL::CStringElementTraits<ATL::CStringT<wchar_t,StrTraitMFC<wchar_t,ATL::ChTraitsCRT<wchar_t> > > >,ATL::CElementTraits<ssf::SubRect> >::FreeNode
PUBLIC	?RemoveNode@?$CAtlMap@V?$CStringT@_WV?$StrTraitMFC@_WV?$ChTraitsCRT@_W@ATL@@@@@ATL@@VSubRect@ssf@@V?$CStringElementTraits@V?$CStringT@_WV?$StrTraitMFC@_WV?$ChTraitsCRT@_W@ATL@@@@@ATL@@@2@V?$CElementTraits@VSubRect@ssf@@@2@@ATL@@AAEXPAVCNode@12@0@Z ; ATL::CAtlMap<ATL::CStringT<wchar_t,StrTraitMFC<wchar_t,ATL::ChTraitsCRT<wchar_t> > >,ssf::SubRect,ATL::CStringElementTraits<ATL::CStringT<wchar_t,StrTraitMFC<wchar_t,ATL::ChTraitsCRT<wchar_t> > > >,ATL::CElementTraits<ssf::SubRect> >::RemoveNode
PUBLIC	?RemoveKey@?$CAtlMap@V?$CStringT@_WV?$StrTraitMFC@_WV?$ChTraitsCRT@_W@ATL@@@@@ATL@@VSubRect@ssf@@V?$CStringElementTraits@V?$CStringT@_WV?$StrTraitMFC@_WV?$ChTraitsCRT@_W@ATL@@@@@ATL@@@2@V?$CElementTraits@VSubRect@ssf@@@2@@ATL@@QAE_NPB_W@Z ; ATL::CAtlMap<ATL::CStringT<wchar_t,StrTraitMFC<wchar_t,ATL::ChTraitsCRT<wchar_t> > >,ssf::SubRect,ATL::CStringElementTraits<ATL::CStringT<wchar_t,StrTraitMFC<wchar_t,ATL::ChTraitsCRT<wchar_t> > > >,ATL::CElementTraits<ssf::SubRect> >::RemoveKey
PUBLIC	?IsEmpty@?$CAtlMap@V?$CStringT@_WV?$StrTraitMFC@_WV?$ChTraitsCRT@_W@ATL@@@@@ATL@@VSubRect@ssf@@V?$CStringElementTraits@V?$CStringT@_WV?$StrTraitMFC@_WV?$ChTraitsCRT@_W@ATL@@@@@ATL@@@2@V?$CElementTraits@VSubRect@ssf@@@2@@ATL@@QBE_NXZ ; ATL::CAtlMap<ATL::CStringT<wchar_t,StrTraitMFC<wchar_t,ATL::ChTraitsCRT<wchar_t> > >,ssf::SubRect,ATL::CStringElementTraits<ATL::CStringT<wchar_t,StrTraitMFC<wchar_t,ATL::ChTraitsCRT<wchar_t> > > >,ATL::CElementTraits<ssf::SubRect> >::IsEmpty
PUBLIC	?GetStartPosition@?$CAtlMap@V?$CStringT@_WV?$StrTraitMFC@_WV?$ChTraitsCRT@_W@ATL@@@@@ATL@@VSubRect@ssf@@V?$CStringElementTraits@V?$CStringT@_WV?$StrTraitMFC@_WV?$ChTraitsCRT@_W@ATL@@@@@ATL@@@2@V?$CElementTraits@VSubRect@ssf@@@2@@ATL@@QBEPAU__POSITION@@XZ ; ATL::CAtlMap<ATL::CStringT<wchar_t,StrTraitMFC<wchar_t,ATL::ChTraitsCRT<wchar_t> > >,ssf::SubRect,ATL::CStringElementTraits<ATL::CStringT<wchar_t,StrTraitMFC<wchar_t,ATL::ChTraitsCRT<wchar_t> > > >,ATL::CElementTraits<ssf::SubRect> >::GetStartPosition
PUBLIC	?GetHash@CNode@?$CAtlMap@V?$CStringT@_WV?$StrTraitMFC@_WV?$ChTraitsCRT@_W@ATL@@@@@ATL@@VSubRect@ssf@@V?$CStringElementTraits@V?$CStringT@_WV?$StrTraitMFC@_WV?$ChTraitsCRT@_W@ATL@@@@@ATL@@@2@V?$CElementTraits@VSubRect@ssf@@@2@@ATL@@QBEIXZ ; ATL::CAtlMap<ATL::CStringT<wchar_t,StrTraitMFC<wchar_t,ATL::ChTraitsCRT<wchar_t> > >,ssf::SubRect,ATL::CStringElementTraits<ATL::CStringT<wchar_t,StrTraitMFC<wchar_t,ATL::ChTraitsCRT<wchar_t> > > >,ATL::CElementTraits<ssf::SubRect> >::CNode::GetHash
PUBLIC	?FindNextNode@?$CAtlMap@V?$CStringT@_WV?$StrTraitMFC@_WV?$ChTraitsCRT@_W@ATL@@@@@ATL@@VSubRect@ssf@@V?$CStringElementTraits@V?$CStringT@_WV?$StrTraitMFC@_WV?$ChTraitsCRT@_W@ATL@@@@@ATL@@@2@V?$CElementTraits@VSubRect@ssf@@@2@@ATL@@ABEPAVCNode@12@PAV312@@Z ; ATL::CAtlMap<ATL::CStringT<wchar_t,StrTraitMFC<wchar_t,ATL::ChTraitsCRT<wchar_t> > >,ssf::SubRect,ATL::CStringElementTraits<ATL::CStringT<wchar_t,StrTraitMFC<wchar_t,ATL::ChTraitsCRT<wchar_t> > > >,ATL::CElementTraits<ssf::SubRect> >::FindNextNode
PUBLIC	?GetNextValue@?$CAtlMap@V?$CStringT@_WV?$StrTraitMFC@_WV?$ChTraitsCRT@_W@ATL@@@@@ATL@@VSubRect@ssf@@V?$CStringElementTraits@V?$CStringT@_WV?$StrTraitMFC@_WV?$ChTraitsCRT@_W@ATL@@@@@ATL@@@2@V?$CElementTraits@VSubRect@ssf@@@2@@ATL@@QAEAAVSubRect@ssf@@AAPAU__POSITION@@@Z ; ATL::CAtlMap<ATL::CStringT<wchar_t,StrTraitMFC<wchar_t,ATL::ChTraitsCRT<wchar_t> > >,ssf::SubRect,ATL::CStringElementTraits<ATL::CStringT<wchar_t,StrTraitMFC<wchar_t,ATL::ChTraitsCRT<wchar_t> > > >,ATL::CElementTraits<ssf::SubRect> >::GetNextValue
PUBLIC	?Lookup@?$CAtlMap@V?$CStringT@_WV?$StrTraitMFC@_WV?$ChTraitsCRT@_W@ATL@@@@@ATL@@PAVFontWrapper@ssf@@V?$CStringElementTraits@V?$CStringT@_WV?$StrTraitMFC@_WV?$ChTraitsCRT@_W@ATL@@@@@ATL@@@2@V?$CElementTraits@PAVFontWrapper@ssf@@@2@@ATL@@QBE_NPB_WAAPAVFontWrapper@ssf@@@Z ; ATL::CAtlMap<ATL::CStringT<wchar_t,StrTraitMFC<wchar_t,ATL::ChTraitsCRT<wchar_t> > >,ssf::FontWrapper *,ATL::CStringElementTraits<ATL::CStringT<wchar_t,StrTraitMFC<wchar_t,ATL::ChTraitsCRT<wchar_t> > > >,ATL::CElementTraits<ssf::FontWrapper *> >::Lookup
PUBLIC	?Lookup@?$CAtlMap@V?$CStringT@_WV?$StrTraitMFC@_WV?$ChTraitsCRT@_W@ATL@@@@@ATL@@PAVFontWrapper@ssf@@V?$CStringElementTraits@V?$CStringT@_WV?$StrTraitMFC@_WV?$ChTraitsCRT@_W@ATL@@@@@ATL@@@2@V?$CElementTraits@PAVFontWrapper@ssf@@@2@@ATL@@QAEPAVCPair@12@PB_W@Z ; ATL::CAtlMap<ATL::CStringT<wchar_t,StrTraitMFC<wchar_t,ATL::ChTraitsCRT<wchar_t> > >,ssf::FontWrapper *,ATL::CStringElementTraits<ATL::CStringT<wchar_t,StrTraitMFC<wchar_t,ATL::ChTraitsCRT<wchar_t> > > >,ATL::CElementTraits<ssf::FontWrapper *> >::Lookup
PUBLIC	??0CPair@?$CAtlMap@V?$CStringT@_WV?$StrTraitMFC@_WV?$ChTraitsCRT@_W@ATL@@@@@ATL@@PAVFontWrapper@ssf@@V?$CStringElementTraits@V?$CStringT@_WV?$StrTraitMFC@_WV?$ChTraitsCRT@_W@ATL@@@@@ATL@@@2@V?$CElementTraits@PAVFontWrapper@ssf@@@2@@ATL@@IAE@PB_W@Z ; ATL::CAtlMap<ATL::CStringT<wchar_t,StrTraitMFC<wchar_t,ATL::ChTraitsCRT<wchar_t> > >,ssf::FontWrapper *,ATL::CStringElementTraits<ATL::CStringT<wchar_t,StrTraitMFC<wchar_t,ATL::ChTraitsCRT<wchar_t> > > >,ATL::CElementTraits<ssf::FontWrapper *> >::CPair::CPair
PUBLIC	??0CNode@?$CAtlMap@V?$CStringT@_WV?$StrTraitMFC@_WV?$ChTraitsCRT@_W@ATL@@@@@ATL@@PAVFontWrapper@ssf@@V?$CStringElementTraits@V?$CStringT@_WV?$StrTraitMFC@_WV?$ChTraitsCRT@_W@ATL@@@@@ATL@@@2@V?$CElementTraits@PAVFontWrapper@ssf@@@2@@ATL@@QAE@PB_WI@Z ; ATL::CAtlMap<ATL::CStringT<wchar_t,StrTraitMFC<wchar_t,ATL::ChTraitsCRT<wchar_t> > >,ssf::FontWrapper *,ATL::CStringElementTraits<ATL::CStringT<wchar_t,StrTraitMFC<wchar_t,ATL::ChTraitsCRT<wchar_t> > > >,ATL::CElementTraits<ssf::FontWrapper *> >::CNode::CNode
PUBLIC	?NewNode@?$CAtlMap@V?$CStringT@_WV?$StrTraitMFC@_WV?$ChTraitsCRT@_W@ATL@@@@@ATL@@PAVFontWrapper@ssf@@V?$CStringElementTraits@V?$CStringT@_WV?$StrTraitMFC@_WV?$ChTraitsCRT@_W@ATL@@@@@ATL@@@2@V?$CElementTraits@PAVFontWrapper@ssf@@@2@@ATL@@AAEPAVCNode@12@PB_WII@Z ; ATL::CAtlMap<ATL::CStringT<wchar_t,StrTraitMFC<wchar_t,ATL::ChTraitsCRT<wchar_t> > >,ssf::FontWrapper *,ATL::CStringElementTraits<ATL::CStringT<wchar_t,StrTraitMFC<wchar_t,ATL::ChTraitsCRT<wchar_t> > > >,ATL::CElementTraits<ssf::FontWrapper *> >::NewNode
PUBLIC	?CreateNode@?$CAtlMap@V?$CStringT@_WV?$StrTraitMFC@_WV?$ChTraitsCRT@_W@ATL@@@@@ATL@@PAVFontWrapper@ssf@@V?$CStringElementTraits@V?$CStringT@_WV?$StrTraitMFC@_WV?$ChTraitsCRT@_W@ATL@@@@@ATL@@@2@V?$CElementTraits@PAVFontWrapper@ssf@@@2@@ATL@@AAEPAVCNode@12@PB_WII@Z ; ATL::CAtlMap<ATL::CStringT<wchar_t,StrTraitMFC<wchar_t,ATL::ChTraitsCRT<wchar_t> > >,ssf::FontWrapper *,ATL::CStringElementTraits<ATL::CStringT<wchar_t,StrTraitMFC<wchar_t,ATL::ChTraitsCRT<wchar_t> > > >,ATL::CElementTraits<ssf::FontWrapper *> >::CreateNode
PUBLIC	??A?$CAtlMap@V?$CStringT@_WV?$StrTraitMFC@_WV?$ChTraitsCRT@_W@ATL@@@@@ATL@@PAVFontWrapper@ssf@@V?$CStringElementTraits@V?$CStringT@_WV?$StrTraitMFC@_WV?$ChTraitsCRT@_W@ATL@@@@@ATL@@@2@V?$CElementTraits@PAVFontWrapper@ssf@@@2@@ATL@@QAEAAPAVFontWrapper@ssf@@PB_W@Z ; ATL::CAtlMap<ATL::CStringT<wchar_t,StrTraitMFC<wchar_t,ATL::ChTraitsCRT<wchar_t> > >,ssf::FontWrapper *,ATL::CStringElementTraits<ATL::CStringT<wchar_t,StrTraitMFC<wchar_t,ATL::ChTraitsCRT<wchar_t> > > >,ATL::CElementTraits<ssf::FontWrapper *> >::operator[]
PUBLIC	?GetNode@?$CAtlMap@V?$CStringT@_WV?$StrTraitMFC@_WV?$ChTraitsCRT@_W@ATL@@@@@ATL@@PAVFontWrapper@ssf@@V?$CStringElementTraits@V?$CStringT@_WV?$StrTraitMFC@_WV?$ChTraitsCRT@_W@ATL@@@@@ATL@@@2@V?$CElementTraits@PAVFontWrapper@ssf@@@2@@ATL@@ABEPAVCNode@12@PB_WAAI1AAPAV312@@Z ; ATL::CAtlMap<ATL::CStringT<wchar_t,StrTraitMFC<wchar_t,ATL::ChTraitsCRT<wchar_t> > >,ssf::FontWrapper *,ATL::CStringElementTraits<ATL::CStringT<wchar_t,StrTraitMFC<wchar_t,ATL::ChTraitsCRT<wchar_t> > > >,ATL::CElementTraits<ssf::FontWrapper *> >::GetNode
PUBLIC	?InitHashTable@?$CAtlMap@V?$CStringT@_WV?$StrTraitMFC@_WV?$ChTraitsCRT@_W@ATL@@@@@ATL@@PAVFontWrapper@ssf@@V?$CStringElementTraits@V?$CStringT@_WV?$StrTraitMFC@_WV?$ChTraitsCRT@_W@ATL@@@@@ATL@@@2@V?$CElementTraits@PAVFontWrapper@ssf@@@2@@ATL@@QAE_NI_N@Z ; ATL::CAtlMap<ATL::CStringT<wchar_t,StrTraitMFC<wchar_t,ATL::ChTraitsCRT<wchar_t> > >,ssf::FontWrapper *,ATL::CStringElementTraits<ATL::CStringT<wchar_t,StrTraitMFC<wchar_t,ATL::ChTraitsCRT<wchar_t> > > >,ATL::CElementTraits<ssf::FontWrapper *> >::InitHashTable
PUBLIC	?UpdateRehashThresholds@?$CAtlMap@V?$CStringT@_WV?$StrTraitMFC@_WV?$ChTraitsCRT@_W@ATL@@@@@ATL@@PAVFontWrapper@ssf@@V?$CStringElementTraits@V?$CStringT@_WV?$StrTraitMFC@_WV?$ChTraitsCRT@_W@ATL@@@@@ATL@@@2@V?$CElementTraits@PAVFontWrapper@ssf@@@2@@ATL@@AAEXXZ ; ATL::CAtlMap<ATL::CStringT<wchar_t,StrTraitMFC<wchar_t,ATL::ChTraitsCRT<wchar_t> > >,ssf::FontWrapper *,ATL::CStringElementTraits<ATL::CStringT<wchar_t,StrTraitMFC<wchar_t,ATL::ChTraitsCRT<wchar_t> > > >,ATL::CElementTraits<ssf::FontWrapper *> >::UpdateRehashThresholds
PUBLIC	?Rehash@?$CAtlMap@V?$CStringT@_WV?$StrTraitMFC@_WV?$ChTraitsCRT@_W@ATL@@@@@ATL@@PAVFontWrapper@ssf@@V?$CStringElementTraits@V?$CStringT@_WV?$StrTraitMFC@_WV?$ChTraitsCRT@_W@ATL@@@@@ATL@@@2@V?$CElementTraits@PAVFontWrapper@ssf@@@2@@ATL@@QAEXI@Z ; ATL::CAtlMap<ATL::CStringT<wchar_t,StrTraitMFC<wchar_t,ATL::ChTraitsCRT<wchar_t> > >,ssf::FontWrapper *,ATL::CStringElementTraits<ATL::CStringT<wchar_t,StrTraitMFC<wchar_t,ATL::ChTraitsCRT<wchar_t> > > >,ATL::CElementTraits<ssf::FontWrapper *> >::Rehash
PUBLIC	?IsLocked@?$CAtlMap@V?$CStringT@_WV?$StrTraitMFC@_WV?$ChTraitsCRT@_W@ATL@@@@@ATL@@PAVFontWrapper@ssf@@V?$CStringElementTraits@V?$CStringT@_WV?$StrTraitMFC@_WV?$ChTraitsCRT@_W@ATL@@@@@ATL@@@2@V?$CElementTraits@PAVFontWrapper@ssf@@@2@@ATL@@ABE_NXZ ; ATL::CAtlMap<ATL::CStringT<wchar_t,StrTraitMFC<wchar_t,ATL::ChTraitsCRT<wchar_t> > >,ssf::FontWrapper *,ATL::CStringElementTraits<ATL::CStringT<wchar_t,StrTraitMFC<wchar_t,ATL::ChTraitsCRT<wchar_t> > > >,ATL::CElementTraits<ssf::FontWrapper *> >::IsLocked
PUBLIC	?PickSize@?$CAtlMap@V?$CStringT@_WV?$StrTraitMFC@_WV?$ChTraitsCRT@_W@ATL@@@@@ATL@@PAVFontWrapper@ssf@@V?$CStringElementTraits@V?$CStringT@_WV?$StrTraitMFC@_WV?$ChTraitsCRT@_W@ATL@@@@@ATL@@@2@V?$CElementTraits@PAVFontWrapper@ssf@@@2@@ATL@@ABEII@Z ; ATL::CAtlMap<ATL::CStringT<wchar_t,StrTraitMFC<wchar_t,ATL::ChTraitsCRT<wchar_t> > >,ssf::FontWrapper *,ATL::CStringElementTraits<ATL::CStringT<wchar_t,StrTraitMFC<wchar_t,ATL::ChTraitsCRT<wchar_t> > > >,ATL::CElementTraits<ssf::FontWrapper *> >::PickSize
PUBLIC	?FreePlexes@?$CAtlMap@V?$CStringT@_WV?$StrTraitMFC@_WV?$ChTraitsCRT@_W@ATL@@@@@ATL@@PAVFontWrapper@ssf@@V?$CStringElementTraits@V?$CStringT@_WV?$StrTraitMFC@_WV?$ChTraitsCRT@_W@ATL@@@@@ATL@@@2@V?$CElementTraits@PAVFontWrapper@ssf@@@2@@ATL@@AAEXXZ ; ATL::CAtlMap<ATL::CStringT<wchar_t,StrTraitMFC<wchar_t,ATL::ChTraitsCRT<wchar_t> > >,ssf::FontWrapper *,ATL::CStringElementTraits<ATL::CStringT<wchar_t,StrTraitMFC<wchar_t,ATL::ChTraitsCRT<wchar_t> > > >,ATL::CElementTraits<ssf::FontWrapper *> >::FreePlexes
PUBLIC	??1CPair@?$CAtlMap@V?$CStringT@_WV?$StrTraitMFC@_WV?$ChTraitsCRT@_W@ATL@@@@@ATL@@PAVFontWrapper@ssf@@V?$CStringElementTraits@V?$CStringT@_WV?$StrTraitMFC@_WV?$ChTraitsCRT@_W@ATL@@@@@ATL@@@2@V?$CElementTraits@PAVFontWrapper@ssf@@@2@@ATL@@QAE@XZ ; ATL::CAtlMap<ATL::CStringT<wchar_t,StrTraitMFC<wchar_t,ATL::ChTraitsCRT<wchar_t> > >,ssf::FontWrapper *,ATL::CStringElementTraits<ATL::CStringT<wchar_t,StrTraitMFC<wchar_t,ATL::ChTraitsCRT<wchar_t> > > >,ATL::CElementTraits<ssf::FontWrapper *> >::CPair::~CPair
PUBLIC	??1CNode@?$CAtlMap@V?$CStringT@_WV?$StrTraitMFC@_WV?$ChTraitsCRT@_W@ATL@@@@@ATL@@PAVFontWrapper@ssf@@V?$CStringElementTraits@V?$CStringT@_WV?$StrTraitMFC@_WV?$ChTraitsCRT@_W@ATL@@@@@ATL@@@2@V?$CElementTraits@PAVFontWrapper@ssf@@@2@@ATL@@QAE@XZ ; ATL::CAtlMap<ATL::CStringT<wchar_t,StrTraitMFC<wchar_t,ATL::ChTraitsCRT<wchar_t> > >,ssf::FontWrapper *,ATL::CStringElementTraits<ATL::CStringT<wchar_t,StrTraitMFC<wchar_t,ATL::ChTraitsCRT<wchar_t> > > >,ATL::CElementTraits<ssf::FontWrapper *> >::CNode::~CNode
PUBLIC	??_GCNode@?$CAtlMap@V?$CStringT@_WV?$StrTraitMFC@_WV?$ChTraitsCRT@_W@ATL@@@@@ATL@@PAVFontWrapper@ssf@@V?$CStringElementTraits@V?$CStringT@_WV?$StrTraitMFC@_WV?$ChTraitsCRT@_W@ATL@@@@@ATL@@@2@V?$CElementTraits@PAVFontWrapper@ssf@@@2@@ATL@@QAEPAXI@Z ; ATL::CAtlMap<ATL::CStringT<wchar_t,StrTraitMFC<wchar_t,ATL::ChTraitsCRT<wchar_t> > >,ssf::FontWrapper *,ATL::CStringElementTraits<ATL::CStringT<wchar_t,StrTraitMFC<wchar_t,ATL::ChTraitsCRT<wchar_t> > > >,ATL::CElementTraits<ssf::FontWrapper *> >::CNode::`scalar deleting destructor'
PUBLIC	?FreeNode@?$CAtlMap@V?$CStringT@_WV?$StrTraitMFC@_WV?$ChTraitsCRT@_W@ATL@@@@@ATL@@PAVFontWrapper@ssf@@V?$CStringElementTraits@V?$CStringT@_WV?$StrTraitMFC@_WV?$ChTraitsCRT@_W@ATL@@@@@ATL@@@2@V?$CElementTraits@PAVFontWrapper@ssf@@@2@@ATL@@AAEXPAVCNode@12@@Z ; ATL::CAtlMap<ATL::CStringT<wchar_t,StrTraitMFC<wchar_t,ATL::ChTraitsCRT<wchar_t> > >,ssf::FontWrapper *,ATL::CStringElementTraits<ATL::CStringT<wchar_t,StrTraitMFC<wchar_t,ATL::ChTraitsCRT<wchar_t> > > >,ATL::CElementTraits<ssf::FontWrapper *> >::FreeNode
PUBLIC	?GetHash@CNode@?$CAtlMap@V?$CStringT@_WV?$StrTraitMFC@_WV?$ChTraitsCRT@_W@ATL@@@@@ATL@@PAVFontWrapper@ssf@@V?$CStringElementTraits@V?$CStringT@_WV?$StrTraitMFC@_WV?$ChTraitsCRT@_W@ATL@@@@@ATL@@@2@V?$CElementTraits@PAVFontWrapper@ssf@@@2@@ATL@@QBEIXZ ; ATL::CAtlMap<ATL::CStringT<wchar_t,StrTraitMFC<wchar_t,ATL::ChTraitsCRT<wchar_t> > >,ssf::FontWrapper *,ATL::CStringElementTraits<ATL::CStringT<wchar_t,StrTraitMFC<wchar_t,ATL::ChTraitsCRT<wchar_t> > > >,ATL::CElementTraits<ssf::FontWrapper *> >::CNode::GetHash
PUBLIC	?RemoveNode@?$CAtlMap@V?$CStringT@_WV?$StrTraitMFC@_WV?$ChTraitsCRT@_W@ATL@@@@@ATL@@PAVFontWrapper@ssf@@V?$CStringElementTraits@V?$CStringT@_WV?$StrTraitMFC@_WV?$ChTraitsCRT@_W@ATL@@@@@ATL@@@2@V?$CElementTraits@PAVFontWrapper@ssf@@@2@@ATL@@AAEXPAVCNode@12@0@Z ; ATL::CAtlMap<ATL::CStringT<wchar_t,StrTraitMFC<wchar_t,ATL::ChTraitsCRT<wchar_t> > >,ssf::FontWrapper *,ATL::CStringElementTraits<ATL::CStringT<wchar_t,StrTraitMFC<wchar_t,ATL::ChTraitsCRT<wchar_t> > > >,ATL::CElementTraits<ssf::FontWrapper *> >::RemoveNode
PUBLIC	?RemoveKey@?$CAtlMap@V?$CStringT@_WV?$StrTraitMFC@_WV?$ChTraitsCRT@_W@ATL@@@@@ATL@@PAVFontWrapper@ssf@@V?$CStringElementTraits@V?$CStringT@_WV?$StrTraitMFC@_WV?$ChTraitsCRT@_W@ATL@@@@@ATL@@@2@V?$CElementTraits@PAVFontWrapper@ssf@@@2@@ATL@@QAE_NPB_W@Z ; ATL::CAtlMap<ATL::CStringT<wchar_t,StrTraitMFC<wchar_t,ATL::ChTraitsCRT<wchar_t> > >,ssf::FontWrapper *,ATL::CStringElementTraits<ATL::CStringT<wchar_t,StrTraitMFC<wchar_t,ATL::ChTraitsCRT<wchar_t> > > >,ATL::CElementTraits<ssf::FontWrapper *> >::RemoveKey
PUBLIC	?Flush@?$Cache@PAVFontWrapper@ssf@@@ssf@@QAEXXZ	; ssf::Cache<ssf::FontWrapper *>::Flush
PUBLIC	?Add@?$Cache@PAVFontWrapper@ssf@@@ssf@@QAEXABV?$CStringT@_WV?$StrTraitMFC@_WV?$ChTraitsCRT@_W@ATL@@@@@ATL@@AAPAVFontWrapper@2@_N@Z ; ssf::Cache<ssf::FontWrapper *>::Add
PUBLIC	??HATL@@YA?AV?$CStringT@_WV?$StrTraitMFC@_WV?$ChTraitsCRT@_W@ATL@@@@@0@ABV10@_W@Z ; ATL::operator+
PUBLIC	??0?$CAtlArray@UtagPOINT@@V?$CElementTraits@UtagPOINT@@@ATL@@@ATL@@QAE@XZ ; ATL::CAtlArray<tagPOINT,ATL::CElementTraits<tagPOINT> >::CAtlArray<tagPOINT,ATL::CElementTraits<tagPOINT> >
PUBLIC	??1?$CAtlArray@UtagPOINT@@V?$CElementTraits@UtagPOINT@@@ATL@@@ATL@@QAE@XZ ; ATL::CAtlArray<tagPOINT,ATL::CElementTraits<tagPOINT> >::~CAtlArray<tagPOINT,ATL::CElementTraits<tagPOINT> >
PUBLIC	??1GlyphPath@ssf@@UAE@XZ			; ssf::GlyphPath::~GlyphPath
PUBLIC	??_GGlyphPath@ssf@@UAEPAXI@Z			; ssf::GlyphPath::`scalar deleting destructor'
PUBLIC	??0GlyphPath@ssf@@QAE@XZ			; ssf::GlyphPath::GlyphPath
PUBLIC	?RelocateElements@?$CElementTraitsBase@UtagPOINT@@@ATL@@SAXPAUtagPOINT@@0I@Z ; ATL::CElementTraitsBase<tagPOINT>::RelocateElements
PUBLIC	?GrowBuffer@?$CAtlArray@UtagPOINT@@V?$CElementTraits@UtagPOINT@@@ATL@@@ATL@@AAE_NI@Z ; ATL::CAtlArray<tagPOINT,ATL::CElementTraits<tagPOINT> >::GrowBuffer
PUBLIC	?CallConstructors@?$CAtlArray@UtagPOINT@@V?$CElementTraits@UtagPOINT@@@ATL@@@ATL@@CAXPAUtagPOINT@@I@Z ; ATL::CAtlArray<tagPOINT,ATL::CElementTraits<tagPOINT> >::CallConstructors
PUBLIC	?CallDestructors@?$CAtlArray@UtagPOINT@@V?$CElementTraits@UtagPOINT@@@ATL@@@ATL@@CAXPAUtagPOINT@@I@Z ; ATL::CAtlArray<tagPOINT,ATL::CElementTraits<tagPOINT> >::CallDestructors
PUBLIC	?SetCount@?$CAtlArray@UtagPOINT@@V?$CElementTraits@UtagPOINT@@@ATL@@@ATL@@QAE_NIH@Z ; ATL::CAtlArray<tagPOINT,ATL::CElementTraits<tagPOINT> >::SetCount
PUBLIC	?GetData@?$CAtlArray@UtagPOINT@@V?$CElementTraits@UtagPOINT@@@ATL@@@ATL@@QAEPAUtagPOINT@@XZ ; ATL::CAtlArray<tagPOINT,ATL::CElementTraits<tagPOINT> >::GetData
PUBLIC	??BFontWrapper@ssf@@QBEPB_WXZ			; ssf::FontWrapper::operator wchar_t const *
PUBLIC	?Lookup@?$CAtlMap@V?$CStringT@_WV?$StrTraitMFC@_WV?$ChTraitsCRT@_W@ATL@@@@@ATL@@PAVGlyphPath@ssf@@V?$CStringElementTraits@V?$CStringT@_WV?$StrTraitMFC@_WV?$ChTraitsCRT@_W@ATL@@@@@ATL@@@2@V?$CElementTraits@PAVGlyphPath@ssf@@@2@@ATL@@QBE_NPB_WAAPAVGlyphPath@ssf@@@Z ; ATL::CAtlMap<ATL::CStringT<wchar_t,StrTraitMFC<wchar_t,ATL::ChTraitsCRT<wchar_t> > >,ssf::GlyphPath *,ATL::CStringElementTraits<ATL::CStringT<wchar_t,StrTraitMFC<wchar_t,ATL::ChTraitsCRT<wchar_t> > > >,ATL::CElementTraits<ssf::GlyphPath *> >::Lookup
PUBLIC	?Lookup@?$CAtlMap@V?$CStringT@_WV?$StrTraitMFC@_WV?$ChTraitsCRT@_W@ATL@@@@@ATL@@PAVGlyphPath@ssf@@V?$CStringElementTraits@V?$CStringT@_WV?$StrTraitMFC@_WV?$ChTraitsCRT@_W@ATL@@@@@ATL@@@2@V?$CElementTraits@PAVGlyphPath@ssf@@@2@@ATL@@QAEPAVCPair@12@PB_W@Z ; ATL::CAtlMap<ATL::CStringT<wchar_t,StrTraitMFC<wchar_t,ATL::ChTraitsCRT<wchar_t> > >,ssf::GlyphPath *,ATL::CStringElementTraits<ATL::CStringT<wchar_t,StrTraitMFC<wchar_t,ATL::ChTraitsCRT<wchar_t> > > >,ATL::CElementTraits<ssf::GlyphPath *> >::Lookup
PUBLIC	??0CPair@?$CAtlMap@V?$CStringT@_WV?$StrTraitMFC@_WV?$ChTraitsCRT@_W@ATL@@@@@ATL@@PAVGlyphPath@ssf@@V?$CStringElementTraits@V?$CStringT@_WV?$StrTraitMFC@_WV?$ChTraitsCRT@_W@ATL@@@@@ATL@@@2@V?$CElementTraits@PAVGlyphPath@ssf@@@2@@ATL@@IAE@PB_W@Z ; ATL::CAtlMap<ATL::CStringT<wchar_t,StrTraitMFC<wchar_t,ATL::ChTraitsCRT<wchar_t> > >,ssf::GlyphPath *,ATL::CStringElementTraits<ATL::CStringT<wchar_t,StrTraitMFC<wchar_t,ATL::ChTraitsCRT<wchar_t> > > >,ATL::CElementTraits<ssf::GlyphPath *> >::CPair::CPair
PUBLIC	??0CNode@?$CAtlMap@V?$CStringT@_WV?$StrTraitMFC@_WV?$ChTraitsCRT@_W@ATL@@@@@ATL@@PAVGlyphPath@ssf@@V?$CStringElementTraits@V?$CStringT@_WV?$StrTraitMFC@_WV?$ChTraitsCRT@_W@ATL@@@@@ATL@@@2@V?$CElementTraits@PAVGlyphPath@ssf@@@2@@ATL@@QAE@PB_WI@Z ; ATL::CAtlMap<ATL::CStringT<wchar_t,StrTraitMFC<wchar_t,ATL::ChTraitsCRT<wchar_t> > >,ssf::GlyphPath *,ATL::CStringElementTraits<ATL::CStringT<wchar_t,StrTraitMFC<wchar_t,ATL::ChTraitsCRT<wchar_t> > > >,ATL::CElementTraits<ssf::GlyphPath *> >::CNode::CNode
PUBLIC	?NewNode@?$CAtlMap@V?$CStringT@_WV?$StrTraitMFC@_WV?$ChTraitsCRT@_W@ATL@@@@@ATL@@PAVGlyphPath@ssf@@V?$CStringElementTraits@V?$CStringT@_WV?$StrTraitMFC@_WV?$ChTraitsCRT@_W@ATL@@@@@ATL@@@2@V?$CElementTraits@PAVGlyphPath@ssf@@@2@@ATL@@AAEPAVCNode@12@PB_WII@Z ; ATL::CAtlMap<ATL::CStringT<wchar_t,StrTraitMFC<wchar_t,ATL::ChTraitsCRT<wchar_t> > >,ssf::GlyphPath *,ATL::CStringElementTraits<ATL::CStringT<wchar_t,StrTraitMFC<wchar_t,ATL::ChTraitsCRT<wchar_t> > > >,ATL::CElementTraits<ssf::GlyphPath *> >::NewNode
PUBLIC	?CreateNode@?$CAtlMap@V?$CStringT@_WV?$StrTraitMFC@_WV?$ChTraitsCRT@_W@ATL@@@@@ATL@@PAVGlyphPath@ssf@@V?$CStringElementTraits@V?$CStringT@_WV?$StrTraitMFC@_WV?$ChTraitsCRT@_W@ATL@@@@@ATL@@@2@V?$CElementTraits@PAVGlyphPath@ssf@@@2@@ATL@@AAEPAVCNode@12@PB_WII@Z ; ATL::CAtlMap<ATL::CStringT<wchar_t,StrTraitMFC<wchar_t,ATL::ChTraitsCRT<wchar_t> > >,ssf::GlyphPath *,ATL::CStringElementTraits<ATL::CStringT<wchar_t,StrTraitMFC<wchar_t,ATL::ChTraitsCRT<wchar_t> > > >,ATL::CElementTraits<ssf::GlyphPath *> >::CreateNode
PUBLIC	??A?$CAtlMap@V?$CStringT@_WV?$StrTraitMFC@_WV?$ChTraitsCRT@_W@ATL@@@@@ATL@@PAVGlyphPath@ssf@@V?$CStringElementTraits@V?$CStringT@_WV?$StrTraitMFC@_WV?$ChTraitsCRT@_W@ATL@@@@@ATL@@@2@V?$CElementTraits@PAVGlyphPath@ssf@@@2@@ATL@@QAEAAPAVGlyphPath@ssf@@PB_W@Z ; ATL::CAtlMap<ATL::CStringT<wchar_t,StrTraitMFC<wchar_t,ATL::ChTraitsCRT<wchar_t> > >,ssf::GlyphPath *,ATL::CStringElementTraits<ATL::CStringT<wchar_t,StrTraitMFC<wchar_t,ATL::ChTraitsCRT<wchar_t> > > >,ATL::CElementTraits<ssf::GlyphPath *> >::operator[]
PUBLIC	?GetNode@?$CAtlMap@V?$CStringT@_WV?$StrTraitMFC@_WV?$ChTraitsCRT@_W@ATL@@@@@ATL@@PAVGlyphPath@ssf@@V?$CStringElementTraits@V?$CStringT@_WV?$StrTraitMFC@_WV?$ChTraitsCRT@_W@ATL@@@@@ATL@@@2@V?$CElementTraits@PAVGlyphPath@ssf@@@2@@ATL@@ABEPAVCNode@12@PB_WAAI1AAPAV312@@Z ; ATL::CAtlMap<ATL::CStringT<wchar_t,StrTraitMFC<wchar_t,ATL::ChTraitsCRT<wchar_t> > >,ssf::GlyphPath *,ATL::CStringElementTraits<ATL::CStringT<wchar_t,StrTraitMFC<wchar_t,ATL::ChTraitsCRT<wchar_t> > > >,ATL::CElementTraits<ssf::GlyphPath *> >::GetNode
PUBLIC	?InitHashTable@?$CAtlMap@V?$CStringT@_WV?$StrTraitMFC@_WV?$ChTraitsCRT@_W@ATL@@@@@ATL@@PAVGlyphPath@ssf@@V?$CStringElementTraits@V?$CStringT@_WV?$StrTraitMFC@_WV?$ChTraitsCRT@_W@ATL@@@@@ATL@@@2@V?$CElementTraits@PAVGlyphPath@ssf@@@2@@ATL@@QAE_NI_N@Z ; ATL::CAtlMap<ATL::CStringT<wchar_t,StrTraitMFC<wchar_t,ATL::ChTraitsCRT<wchar_t> > >,ssf::GlyphPath *,ATL::CStringElementTraits<ATL::CStringT<wchar_t,StrTraitMFC<wchar_t,ATL::ChTraitsCRT<wchar_t> > > >,ATL::CElementTraits<ssf::GlyphPath *> >::InitHashTable
PUBLIC	?UpdateRehashThresholds@?$CAtlMap@V?$CStringT@_WV?$StrTraitMFC@_WV?$ChTraitsCRT@_W@ATL@@@@@ATL@@PAVGlyphPath@ssf@@V?$CStringElementTraits@V?$CStringT@_WV?$StrTraitMFC@_WV?$ChTraitsCRT@_W@ATL@@@@@ATL@@@2@V?$CElementTraits@PAVGlyphPath@ssf@@@2@@ATL@@AAEXXZ ; ATL::CAtlMap<ATL::CStringT<wchar_t,StrTraitMFC<wchar_t,ATL::ChTraitsCRT<wchar_t> > >,ssf::GlyphPath *,ATL::CStringElementTraits<ATL::CStringT<wchar_t,StrTraitMFC<wchar_t,ATL::ChTraitsCRT<wchar_t> > > >,ATL::CElementTraits<ssf::GlyphPath *> >::UpdateRehashThresholds
PUBLIC	?Rehash@?$CAtlMap@V?$CStringT@_WV?$StrTraitMFC@_WV?$ChTraitsCRT@_W@ATL@@@@@ATL@@PAVGlyphPath@ssf@@V?$CStringElementTraits@V?$CStringT@_WV?$StrTraitMFC@_WV?$ChTraitsCRT@_W@ATL@@@@@ATL@@@2@V?$CElementTraits@PAVGlyphPath@ssf@@@2@@ATL@@QAEXI@Z ; ATL::CAtlMap<ATL::CStringT<wchar_t,StrTraitMFC<wchar_t,ATL::ChTraitsCRT<wchar_t> > >,ssf::GlyphPath *,ATL::CStringElementTraits<ATL::CStringT<wchar_t,StrTraitMFC<wchar_t,ATL::ChTraitsCRT<wchar_t> > > >,ATL::CElementTraits<ssf::GlyphPath *> >::Rehash
PUBLIC	?IsLocked@?$CAtlMap@V?$CStringT@_WV?$StrTraitMFC@_WV?$ChTraitsCRT@_W@ATL@@@@@ATL@@PAVGlyphPath@ssf@@V?$CStringElementTraits@V?$CStringT@_WV?$StrTraitMFC@_WV?$ChTraitsCRT@_W@ATL@@@@@ATL@@@2@V?$CElementTraits@PAVGlyphPath@ssf@@@2@@ATL@@ABE_NXZ ; ATL::CAtlMap<ATL::CStringT<wchar_t,StrTraitMFC<wchar_t,ATL::ChTraitsCRT<wchar_t> > >,ssf::GlyphPath *,ATL::CStringElementTraits<ATL::CStringT<wchar_t,StrTraitMFC<wchar_t,ATL::ChTraitsCRT<wchar_t> > > >,ATL::CElementTraits<ssf::GlyphPath *> >::IsLocked
PUBLIC	?PickSize@?$CAtlMap@V?$CStringT@_WV?$StrTraitMFC@_WV?$ChTraitsCRT@_W@ATL@@@@@ATL@@PAVGlyphPath@ssf@@V?$CStringElementTraits@V?$CStringT@_WV?$StrTraitMFC@_WV?$ChTraitsCRT@_W@ATL@@@@@ATL@@@2@V?$CElementTraits@PAVGlyphPath@ssf@@@2@@ATL@@ABEII@Z ; ATL::CAtlMap<ATL::CStringT<wchar_t,StrTraitMFC<wchar_t,ATL::ChTraitsCRT<wchar_t> > >,ssf::GlyphPath *,ATL::CStringElementTraits<ATL::CStringT<wchar_t,StrTraitMFC<wchar_t,ATL::ChTraitsCRT<wchar_t> > > >,ATL::CElementTraits<ssf::GlyphPath *> >::PickSize
PUBLIC	?FreePlexes@?$CAtlMap@V?$CStringT@_WV?$StrTraitMFC@_WV?$ChTraitsCRT@_W@ATL@@@@@ATL@@PAVGlyphPath@ssf@@V?$CStringElementTraits@V?$CStringT@_WV?$StrTraitMFC@_WV?$ChTraitsCRT@_W@ATL@@@@@ATL@@@2@V?$CElementTraits@PAVGlyphPath@ssf@@@2@@ATL@@AAEXXZ ; ATL::CAtlMap<ATL::CStringT<wchar_t,StrTraitMFC<wchar_t,ATL::ChTraitsCRT<wchar_t> > >,ssf::GlyphPath *,ATL::CStringElementTraits<ATL::CStringT<wchar_t,StrTraitMFC<wchar_t,ATL::ChTraitsCRT<wchar_t> > > >,ATL::CElementTraits<ssf::GlyphPath *> >::FreePlexes
PUBLIC	??1CPair@?$CAtlMap@V?$CStringT@_WV?$StrTraitMFC@_WV?$ChTraitsCRT@_W@ATL@@@@@ATL@@PAVGlyphPath@ssf@@V?$CStringElementTraits@V?$CStringT@_WV?$StrTraitMFC@_WV?$ChTraitsCRT@_W@ATL@@@@@ATL@@@2@V?$CElementTraits@PAVGlyphPath@ssf@@@2@@ATL@@QAE@XZ ; ATL::CAtlMap<ATL::CStringT<wchar_t,StrTraitMFC<wchar_t,ATL::ChTraitsCRT<wchar_t> > >,ssf::GlyphPath *,ATL::CStringElementTraits<ATL::CStringT<wchar_t,StrTraitMFC<wchar_t,ATL::ChTraitsCRT<wchar_t> > > >,ATL::CElementTraits<ssf::GlyphPath *> >::CPair::~CPair
PUBLIC	??1CNode@?$CAtlMap@V?$CStringT@_WV?$StrTraitMFC@_WV?$ChTraitsCRT@_W@ATL@@@@@ATL@@PAVGlyphPath@ssf@@V?$CStringElementTraits@V?$CStringT@_WV?$StrTraitMFC@_WV?$ChTraitsCRT@_W@ATL@@@@@ATL@@@2@V?$CElementTraits@PAVGlyphPath@ssf@@@2@@ATL@@QAE@XZ ; ATL::CAtlMap<ATL::CStringT<wchar_t,StrTraitMFC<wchar_t,ATL::ChTraitsCRT<wchar_t> > >,ssf::GlyphPath *,ATL::CStringElementTraits<ATL::CStringT<wchar_t,StrTraitMFC<wchar_t,ATL::ChTraitsCRT<wchar_t> > > >,ATL::CElementTraits<ssf::GlyphPath *> >::CNode::~CNode
PUBLIC	??_GCNode@?$CAtlMap@V?$CStringT@_WV?$StrTraitMFC@_WV?$ChTraitsCRT@_W@ATL@@@@@ATL@@PAVGlyphPath@ssf@@V?$CStringElementTraits@V?$CStringT@_WV?$StrTraitMFC@_WV?$ChTraitsCRT@_W@ATL@@@@@ATL@@@2@V?$CElementTraits@PAVGlyphPath@ssf@@@2@@ATL@@QAEPAXI@Z ; ATL::CAtlMap<ATL::CStringT<wchar_t,StrTraitMFC<wchar_t,ATL::ChTraitsCRT<wchar_t> > >,ssf::GlyphPath *,ATL::CStringElementTraits<ATL::CStringT<wchar_t,StrTraitMFC<wchar_t,ATL::ChTraitsCRT<wchar_t> > > >,ATL::CElementTraits<ssf::GlyphPath *> >::CNode::`scalar deleting destructor'
PUBLIC	?FreeNode@?$CAtlMap@V?$CStringT@_WV?$StrTraitMFC@_WV?$ChTraitsCRT@_W@ATL@@@@@ATL@@PAVGlyphPath@ssf@@V?$CStringElementTraits@V?$CStringT@_WV?$StrTraitMFC@_WV?$ChTraitsCRT@_W@ATL@@@@@ATL@@@2@V?$CElementTraits@PAVGlyphPath@ssf@@@2@@ATL@@AAEXPAVCNode@12@@Z ; ATL::CAtlMap<ATL::CStringT<wchar_t,StrTraitMFC<wchar_t,ATL::ChTraitsCRT<wchar_t> > >,ssf::GlyphPath *,ATL::CStringElementTraits<ATL::CStringT<wchar_t,StrTraitMFC<wchar_t,ATL::ChTraitsCRT<wchar_t> > > >,ATL::CElementTraits<ssf::GlyphPath *> >::FreeNode
PUBLIC	?GetHash@CNode@?$CAtlMap@V?$CStringT@_WV?$StrTraitMFC@_WV?$ChTraitsCRT@_W@ATL@@@@@ATL@@PAVGlyphPath@ssf@@V?$CStringElementTraits@V?$CStringT@_WV?$StrTraitMFC@_WV?$ChTraitsCRT@_W@ATL@@@@@ATL@@@2@V?$CElementTraits@PAVGlyphPath@ssf@@@2@@ATL@@QBEIXZ ; ATL::CAtlMap<ATL::CStringT<wchar_t,StrTraitMFC<wchar_t,ATL::ChTraitsCRT<wchar_t> > >,ssf::GlyphPath *,ATL::CStringElementTraits<ATL::CStringT<wchar_t,StrTraitMFC<wchar_t,ATL::ChTraitsCRT<wchar_t> > > >,ATL::CElementTraits<ssf::GlyphPath *> >::CNode::GetHash
PUBLIC	?RemoveNode@?$CAtlMap@V?$CStringT@_WV?$StrTraitMFC@_WV?$ChTraitsCRT@_W@ATL@@@@@ATL@@PAVGlyphPath@ssf@@V?$CStringElementTraits@V?$CStringT@_WV?$StrTraitMFC@_WV?$ChTraitsCRT@_W@ATL@@@@@ATL@@@2@V?$CElementTraits@PAVGlyphPath@ssf@@@2@@ATL@@AAEXPAVCNode@12@0@Z ; ATL::CAtlMap<ATL::CStringT<wchar_t,StrTraitMFC<wchar_t,ATL::ChTraitsCRT<wchar_t> > >,ssf::GlyphPath *,ATL::CStringElementTraits<ATL::CStringT<wchar_t,StrTraitMFC<wchar_t,ATL::ChTraitsCRT<wchar_t> > > >,ATL::CElementTraits<ssf::GlyphPath *> >::RemoveNode
PUBLIC	?RemoveKey@?$CAtlMap@V?$CStringT@_WV?$StrTraitMFC@_WV?$ChTraitsCRT@_W@ATL@@@@@ATL@@PAVGlyphPath@ssf@@V?$CStringElementTraits@V?$CStringT@_WV?$StrTraitMFC@_WV?$ChTraitsCRT@_W@ATL@@@@@ATL@@@2@V?$CElementTraits@PAVGlyphPath@ssf@@@2@@ATL@@QAE_NPB_W@Z ; ATL::CAtlMap<ATL::CStringT<wchar_t,StrTraitMFC<wchar_t,ATL::ChTraitsCRT<wchar_t> > >,ssf::GlyphPath *,ATL::CStringElementTraits<ATL::CStringT<wchar_t,StrTraitMFC<wchar_t,ATL::ChTraitsCRT<wchar_t> > > >,ATL::CElementTraits<ssf::GlyphPath *> >::RemoveKey
PUBLIC	?Flush@?$Cache@PAVGlyphPath@ssf@@@ssf@@QAEXXZ	; ssf::Cache<ssf::GlyphPath *>::Flush
PUBLIC	?Add@?$Cache@PAVGlyphPath@ssf@@@ssf@@QAEXABV?$CStringT@_WV?$StrTraitMFC@_WV?$ChTraitsCRT@_W@ATL@@@@@ATL@@AAPAVGlyphPath@2@_N@Z ; ssf::Cache<ssf::GlyphPath *>::Add
PUBLIC	??_C@_19GMDMNN@?$AAd?$AAo?$AAw?$AAn?$AA?$AA@	; `string'
PUBLIC	??_C@_15HOONGCLC@?$AAu?$AAp?$AA?$AA@		; `string'
PUBLIC	??_C@_19MCEENOHD@?$AAe?$AAv?$AAe?$AAn?$AA?$AA@	; `string'
PUBLIC	??_C@_19CHDFCHBM@?$AAc?$AAh?$AAa?$AAr?$AA?$AA@	; `string'
PUBLIC	??_C@_19PDIFHHOB@?$AAw?$AAo?$AAr?$AAd?$AA?$AA@	; `string'
PUBLIC	??_C@_1BA@NHBGAPMB@?$AAo?$AAu?$AAt?$AAl?$AAi?$AAn?$AAe?$AA?$AA@ ; `string'
PUBLIC	??_C@_1BA@PDBLNOGL@?$AAe?$AAn?$AAl?$AAa?$AAr?$AAg?$AAe?$AA?$AA@ ; `string'
PUBLIC	??_C@_17FPDKLCKM@?$AAb?$AAo?$AAx?$AA?$AA@	; `string'
PUBLIC	??_C@_1BI@PHGAHBDA@?$AA?$CF?$AAs?$AA?0?$AA?$CF?$AAd?$AA?0?$AA?$CF?$AAd?$AA?0?$AA?$CF?$AAd?$AA?$AA@ ; `string'
PUBLIC	?s_anPrimes@?1??PickSize@?$CAtlMap@V?$CStringT@_WV?$StrTraitMFC@_WV?$ChTraitsCRT@_W@ATL@@@@@ATL@@PAVFontWrapper@ssf@@V?$CStringElementTraits@V?$CStringT@_WV?$StrTraitMFC@_WV?$ChTraitsCRT@_W@ATL@@@@@ATL@@@2@V?$CElementTraits@PAVFontWrapper@ssf@@@2@@ATL@@ABEII@Z@4QBIB ; `ATL::CAtlMap<ATL::CStringT<wchar_t,StrTraitMFC<wchar_t,ATL::ChTraitsCRT<wchar_t> > >,ssf::FontWrapper *,ATL::CStringElementTraits<ATL::CStringT<wchar_t,StrTraitMFC<wchar_t,ATL::ChTraitsCRT<wchar_t> > > >,ATL::CElementTraits<ssf::FontWrapper *> >::PickSize'::`2'::s_anPrimes
PUBLIC	?s_anPrimes@?1??PickSize@?$CAtlMap@V?$CStringT@_WV?$StrTraitMFC@_WV?$ChTraitsCRT@_W@ATL@@@@@ATL@@PAVGlyphPath@ssf@@V?$CStringElementTraits@V?$CStringT@_WV?$StrTraitMFC@_WV?$ChTraitsCRT@_W@ATL@@@@@ATL@@@2@V?$CElementTraits@PAVGlyphPath@ssf@@@2@@ATL@@ABEII@Z@4QBIB ; `ATL::CAtlMap<ATL::CStringT<wchar_t,StrTraitMFC<wchar_t,ATL::ChTraitsCRT<wchar_t> > >,ssf::GlyphPath *,ATL::CStringElementTraits<ATL::CStringT<wchar_t,StrTraitMFC<wchar_t,ATL::ChTraitsCRT<wchar_t> > > >,ATL::CElementTraits<ssf::GlyphPath *> >::PickSize'::`2'::s_anPrimes
PUBLIC	?s_anPrimes@?1??PickSize@?$CAtlMap@V?$CStringT@_WV?$StrTraitMFC@_WV?$ChTraitsCRT@_W@ATL@@@@@ATL@@PAVRenderedSubtitle@ssf@@V?$CStringElementTraits@V?$CStringT@_WV?$StrTraitMFC@_WV?$ChTraitsCRT@_W@ATL@@@@@ATL@@@2@V?$CElementTraits@PAVRenderedSubtitle@ssf@@@2@@ATL@@ABEII@Z@4QBIB ; `ATL::CAtlMap<ATL::CStringT<wchar_t,StrTraitMFC<wchar_t,ATL::ChTraitsCRT<wchar_t> > >,ssf::RenderedSubtitle *,ATL::CStringElementTraits<ATL::CStringT<wchar_t,StrTraitMFC<wchar_t,ATL::ChTraitsCRT<wchar_t> > > >,ATL::CElementTraits<ssf::RenderedSubtitle *> >::PickSize'::`2'::s_anPrimes
PUBLIC	?s_anPrimes@?1??PickSize@?$CAtlMap@V?$CStringT@_WV?$StrTraitMFC@_WV?$ChTraitsCRT@_W@ATL@@@@@ATL@@VSubRect@ssf@@V?$CStringElementTraits@V?$CStringT@_WV?$StrTraitMFC@_WV?$ChTraitsCRT@_W@ATL@@@@@ATL@@@2@V?$CElementTraits@VSubRect@ssf@@@2@@ATL@@ABEII@Z@4QBIB ; `ATL::CAtlMap<ATL::CStringT<wchar_t,StrTraitMFC<wchar_t,ATL::ChTraitsCRT<wchar_t> > >,ssf::SubRect,ATL::CStringElementTraits<ATL::CStringT<wchar_t,StrTraitMFC<wchar_t,ATL::ChTraitsCRT<wchar_t> > > >,ATL::CElementTraits<ssf::SubRect> >::PickSize'::`2'::s_anPrimes
PUBLIC	?s_anPrimes@?1??PickSize@?$CAtlMap@V?$CStringT@_WV?$StrTraitMFC@_WV?$ChTraitsCRT@_W@ATL@@@@@ATL@@_NV?$CStringElementTraits@V?$CStringT@_WV?$StrTraitMFC@_WV?$ChTraitsCRT@_W@ATL@@@@@ATL@@@2@V?$CElementTraits@_N@2@@ATL@@ABEII@Z@4QBIB ; `ATL::CAtlMap<ATL::CStringT<wchar_t,StrTraitMFC<wchar_t,ATL::ChTraitsCRT<wchar_t> > >,bool,ATL::CStringElementTraits<ATL::CStringT<wchar_t,StrTraitMFC<wchar_t,ATL::ChTraitsCRT<wchar_t> > > >,ATL::CElementTraits<bool> >::PickSize'::`2'::s_anPrimes
PUBLIC	??_7GlyphPath@ssf@@6B@				; ssf::GlyphPath::`vftable'
PUBLIC	??_7FontCache@ssf@@6B@				; ssf::FontCache::`vftable'
PUBLIC	??_7?$Cache@PAVFontWrapper@ssf@@@ssf@@6B@	; ssf::Cache<ssf::FontWrapper *>::`vftable'
PUBLIC	??_7GlyphPathCache@ssf@@6B@			; ssf::GlyphPathCache::`vftable'
PUBLIC	??_7?$Cache@PAVGlyphPath@ssf@@@ssf@@6B@		; ssf::Cache<ssf::GlyphPath *>::`vftable'
PUBLIC	??_7RenderedSubtitle@ssf@@6B@			; ssf::RenderedSubtitle::`vftable'
PUBLIC	??_7RenderedSubtitleCache@ssf@@6B@		; ssf::RenderedSubtitleCache::`vftable'
PUBLIC	??_7?$Cache@PAVRenderedSubtitle@ssf@@@ssf@@6B@	; ssf::Cache<ssf::RenderedSubtitle *>::`vftable'
PUBLIC	??_7Renderer@ssf@@6B@				; ssf::Renderer::`vftable'
EXTRN	??_EFontCache@ssf@@UAEPAXI@Z:PROC		; ssf::FontCache::`vector deleting destructor'
EXTRN	??_EGlyphPathCache@ssf@@UAEPAXI@Z:PROC		; ssf::GlyphPathCache::`vector deleting destructor'
EXTRN	??_ERenderedSubtitleCache@ssf@@UAEPAXI@Z:PROC	; ssf::RenderedSubtitleCache::`vector deleting destructor'
EXTRN	??_E?$Cache@PAVFontWrapper@ssf@@@ssf@@UAEPAXI@Z:PROC ; ssf::Cache<ssf::FontWrapper *>::`vector deleting destructor'
EXTRN	??_E?$Cache@PAVGlyphPath@ssf@@@ssf@@UAEPAXI@Z:PROC ; ssf::Cache<ssf::GlyphPath *>::`vector deleting destructor'
EXTRN	??_E?$Cache@PAVRenderedSubtitle@ssf@@@ssf@@UAEPAXI@Z:PROC ; ssf::Cache<ssf::RenderedSubtitle *>::`vector deleting destructor'
EXTRN	??_ERenderer@ssf@@UAEPAXI@Z:PROC		; ssf::Renderer::`vector deleting destructor'
EXTRN	??_ERenderedSubtitle@ssf@@UAEPAXI@Z:PROC	; ssf::RenderedSubtitle::`vector deleting destructor'
EXTRN	_wcscpy_s:PROC
EXTRN	??_EGlyphPath@ssf@@UAEPAXI@Z:PROC		; ssf::GlyphPath::`vector deleting destructor'
;	COMDAT ??_7Renderer@ssf@@6B@
CONST	SEGMENT
??_7Renderer@ssf@@6B@ DD FLAT:??_R4Renderer@ssf@@6B@	; ssf::Renderer::`vftable'
	DD	FLAT:??_ERenderer@ssf@@UAEPAXI@Z
CONST	ENDS
;	COMDAT ??_R4Renderer@ssf@@6B@
rdata$r	SEGMENT
??_R4Renderer@ssf@@6B@ DD 00H				; ssf::Renderer::`RTTI Complete Object Locator'
	DD	00H
	DD	00H
	DD	FLAT:??_R0?AVRenderer@ssf@@@8
	DD	FLAT:??_R3Renderer@ssf@@8
rdata$r	ENDS
;	COMDAT ??_R3Renderer@ssf@@8
rdata$r	SEGMENT
??_R3Renderer@ssf@@8 DD 00H				; ssf::Renderer::`RTTI Class Hierarchy Descriptor'
	DD	00H
	DD	01H
	DD	FLAT:??_R2Renderer@ssf@@8
rdata$r	ENDS
;	COMDAT ??_R2Renderer@ssf@@8
rdata$r	SEGMENT
??_R2Renderer@ssf@@8 DD FLAT:??_R1A@?0A@EA@Renderer@ssf@@8 ; ssf::Renderer::`RTTI Base Class Array'
rdata$r	ENDS
;	COMDAT ??_R1A@?0A@EA@Renderer@ssf@@8
rdata$r	SEGMENT
??_R1A@?0A@EA@Renderer@ssf@@8 DD FLAT:??_R0?AVRenderer@ssf@@@8 ; ssf::Renderer::`RTTI Base Class Descriptor at (0,-1,0,64)'
	DD	00H
	DD	00H
	DD	0ffffffffH
	DD	00H
	DD	040H
	DD	FLAT:??_R3Renderer@ssf@@8
rdata$r	ENDS
;	COMDAT ??_R0?AVRenderer@ssf@@@8
_DATA	SEGMENT
??_R0?AVRenderer@ssf@@@8 DD FLAT:??_7type_info@@6B@	; ssf::Renderer `RTTI Type Descriptor'
	DD	00H
	DB	'.?AVRenderer@ssf@@', 00H
_DATA	ENDS
;	COMDAT ??_7?$Cache@PAVRenderedSubtitle@ssf@@@ssf@@6B@
CONST	SEGMENT
??_7?$Cache@PAVRenderedSubtitle@ssf@@@ssf@@6B@ DD FLAT:??_R4?$Cache@PAVRenderedSubtitle@ssf@@@ssf@@6B@ ; ssf::Cache<ssf::RenderedSubtitle *>::`vftable'
	DD	FLAT:??_E?$Cache@PAVRenderedSubtitle@ssf@@@ssf@@UAEPAXI@Z
CONST	ENDS
;	COMDAT ??_R4?$Cache@PAVRenderedSubtitle@ssf@@@ssf@@6B@
rdata$r	SEGMENT
??_R4?$Cache@PAVRenderedSubtitle@ssf@@@ssf@@6B@ DD 00H	; ssf::Cache<ssf::RenderedSubtitle *>::`RTTI Complete Object Locator'
	DD	00H
	DD	00H
	DD	FLAT:??_R0?AV?$Cache@PAVRenderedSubtitle@ssf@@@ssf@@@8
	DD	FLAT:??_R3?$Cache@PAVRenderedSubtitle@ssf@@@ssf@@8
rdata$r	ENDS
;	COMDAT ??_7RenderedSubtitleCache@ssf@@6B@
CONST	SEGMENT
??_7RenderedSubtitleCache@ssf@@6B@ DD FLAT:??_R4RenderedSubtitleCache@ssf@@6B@ ; ssf::RenderedSubtitleCache::`vftable'
	DD	FLAT:??_ERenderedSubtitleCache@ssf@@UAEPAXI@Z
CONST	ENDS
;	COMDAT ??_R4RenderedSubtitleCache@ssf@@6B@
rdata$r	SEGMENT
??_R4RenderedSubtitleCache@ssf@@6B@ DD 00H		; ssf::RenderedSubtitleCache::`RTTI Complete Object Locator'
	DD	00H
	DD	00H
	DD	FLAT:??_R0?AVRenderedSubtitleCache@ssf@@@8
	DD	FLAT:??_R3RenderedSubtitleCache@ssf@@8
rdata$r	ENDS
;	COMDAT ??_R3RenderedSubtitleCache@ssf@@8
rdata$r	SEGMENT
??_R3RenderedSubtitleCache@ssf@@8 DD 00H		; ssf::RenderedSubtitleCache::`RTTI Class Hierarchy Descriptor'
	DD	00H
	DD	02H
	DD	FLAT:??_R2RenderedSubtitleCache@ssf@@8
rdata$r	ENDS
;	COMDAT ??_R2RenderedSubtitleCache@ssf@@8
rdata$r	SEGMENT
??_R2RenderedSubtitleCache@ssf@@8 DD FLAT:??_R1A@?0A@EA@RenderedSubtitleCache@ssf@@8 ; ssf::RenderedSubtitleCache::`RTTI Base Class Array'
	DD	FLAT:??_R1A@?0A@EA@?$Cache@PAVRenderedSubtitle@ssf@@@ssf@@8
rdata$r	ENDS
;	COMDAT ??_R1A@?0A@EA@?$Cache@PAVRenderedSubtitle@ssf@@@ssf@@8
rdata$r	SEGMENT
??_R1A@?0A@EA@?$Cache@PAVRenderedSubtitle@ssf@@@ssf@@8 DD FLAT:??_R0?AV?$Cache@PAVRenderedSubtitle@ssf@@@ssf@@@8 ; ssf::Cache<ssf::RenderedSubtitle *>::`RTTI Base Class Descriptor at (0,-1,0,64)'
	DD	00H
	DD	00H
	DD	0ffffffffH
	DD	00H
	DD	040H
	DD	FLAT:??_R3?$Cache@PAVRenderedSubtitle@ssf@@@ssf@@8
rdata$r	ENDS
;	COMDAT ??_R3?$Cache@PAVRenderedSubtitle@ssf@@@ssf@@8
rdata$r	SEGMENT
??_R3?$Cache@PAVRenderedSubtitle@ssf@@@ssf@@8 DD 00H	; ssf::Cache<ssf::RenderedSubtitle *>::`RTTI Class Hierarchy Descriptor'
	DD	00H
	DD	01H
	DD	FLAT:??_R2?$Cache@PAVRenderedSubtitle@ssf@@@ssf@@8
rdata$r	ENDS
;	COMDAT ??_R2?$Cache@PAVRenderedSubtitle@ssf@@@ssf@@8
rdata$r	SEGMENT
??_R2?$Cache@PAVRenderedSubtitle@ssf@@@ssf@@8 DD FLAT:??_R1A@?0A@EA@?$Cache@PAVRenderedSubtitle@ssf@@@ssf@@8 ; ssf::Cache<ssf::RenderedSubtitle *>::`RTTI Base Class Array'
rdata$r	ENDS
;	COMDAT ??_R0?AV?$Cache@PAVRenderedSubtitle@ssf@@@ssf@@@8
_DATA	SEGMENT
??_R0?AV?$Cache@PAVRenderedSubtitle@ssf@@@ssf@@@8 DD FLAT:??_7type_info@@6B@ ; ssf::Cache<ssf::RenderedSubtitle *> `RTTI Type Descriptor'
	DD	00H
	DB	'.?AV?$Cache@PAVRenderedSubtitle@ssf@@@ssf@@', 00H
_DATA	ENDS
;	COMDAT ??_R1A@?0A@EA@RenderedSubtitleCache@ssf@@8
rdata$r	SEGMENT
??_R1A@?0A@EA@RenderedSubtitleCache@ssf@@8 DD FLAT:??_R0?AVRenderedSubtitleCache@ssf@@@8 ; ssf::RenderedSubtitleCache::`RTTI Base Class Descriptor at (0,-1,0,64)'
	DD	01H
	DD	00H
	DD	0ffffffffH
	DD	00H
	DD	040H
	DD	FLAT:??_R3RenderedSubtitleCache@ssf@@8
rdata$r	ENDS
;	COMDAT ??_R0?AVRenderedSubtitleCache@ssf@@@8
_DATA	SEGMENT
??_R0?AVRenderedSubtitleCache@ssf@@@8 DD FLAT:??_7type_info@@6B@ ; ssf::RenderedSubtitleCache `RTTI Type Descriptor'
	DD	00H
	DB	'.?AVRenderedSubtitleCache@ssf@@', 00H
_DATA	ENDS
;	COMDAT ??_7RenderedSubtitle@ssf@@6B@
CONST	SEGMENT
??_7RenderedSubtitle@ssf@@6B@ DD FLAT:??_R4RenderedSubtitle@ssf@@6B@ ; ssf::RenderedSubtitle::`vftable'
	DD	FLAT:??_ERenderedSubtitle@ssf@@UAEPAXI@Z
CONST	ENDS
;	COMDAT ??_R4RenderedSubtitle@ssf@@6B@
rdata$r	SEGMENT
??_R4RenderedSubtitle@ssf@@6B@ DD 00H			; ssf::RenderedSubtitle::`RTTI Complete Object Locator'
	DD	00H
	DD	00H
	DD	FLAT:??_R0?AVRenderedSubtitle@ssf@@@8
	DD	FLAT:??_R3RenderedSubtitle@ssf@@8
rdata$r	ENDS
;	COMDAT ??_R3RenderedSubtitle@ssf@@8
rdata$r	SEGMENT
??_R3RenderedSubtitle@ssf@@8 DD 00H			; ssf::RenderedSubtitle::`RTTI Class Hierarchy Descriptor'
	DD	00H
	DD	01H
	DD	FLAT:??_R2RenderedSubtitle@ssf@@8
rdata$r	ENDS
;	COMDAT ??_R2RenderedSubtitle@ssf@@8
rdata$r	SEGMENT
??_R2RenderedSubtitle@ssf@@8 DD FLAT:??_R1A@?0A@EA@RenderedSubtitle@ssf@@8 ; ssf::RenderedSubtitle::`RTTI Base Class Array'
rdata$r	ENDS
;	COMDAT ??_R1A@?0A@EA@RenderedSubtitle@ssf@@8
rdata$r	SEGMENT
??_R1A@?0A@EA@RenderedSubtitle@ssf@@8 DD FLAT:??_R0?AVRenderedSubtitle@ssf@@@8 ; ssf::RenderedSubtitle::`RTTI Base Class Descriptor at (0,-1,0,64)'
	DD	00H
	DD	00H
	DD	0ffffffffH
	DD	00H
	DD	040H
	DD	FLAT:??_R3RenderedSubtitle@ssf@@8
rdata$r	ENDS
;	COMDAT ??_R0?AVRenderedSubtitle@ssf@@@8
_DATA	SEGMENT
??_R0?AVRenderedSubtitle@ssf@@@8 DD FLAT:??_7type_info@@6B@ ; ssf::RenderedSubtitle `RTTI Type Descriptor'
	DD	00H
	DB	'.?AVRenderedSubtitle@ssf@@', 00H
_DATA	ENDS
;	COMDAT ??_7?$Cache@PAVGlyphPath@ssf@@@ssf@@6B@
CONST	SEGMENT
??_7?$Cache@PAVGlyphPath@ssf@@@ssf@@6B@ DD FLAT:??_R4?$Cache@PAVGlyphPath@ssf@@@ssf@@6B@ ; ssf::Cache<ssf::GlyphPath *>::`vftable'
	DD	FLAT:??_E?$Cache@PAVGlyphPath@ssf@@@ssf@@UAEPAXI@Z
CONST	ENDS
;	COMDAT ??_R4?$Cache@PAVGlyphPath@ssf@@@ssf@@6B@
rdata$r	SEGMENT
??_R4?$Cache@PAVGlyphPath@ssf@@@ssf@@6B@ DD 00H		; ssf::Cache<ssf::GlyphPath *>::`RTTI Complete Object Locator'
	DD	00H
	DD	00H
	DD	FLAT:??_R0?AV?$Cache@PAVGlyphPath@ssf@@@ssf@@@8
	DD	FLAT:??_R3?$Cache@PAVGlyphPath@ssf@@@ssf@@8
rdata$r	ENDS
;	COMDAT ??_7GlyphPathCache@ssf@@6B@
CONST	SEGMENT
??_7GlyphPathCache@ssf@@6B@ DD FLAT:??_R4GlyphPathCache@ssf@@6B@ ; ssf::GlyphPathCache::`vftable'
	DD	FLAT:??_EGlyphPathCache@ssf@@UAEPAXI@Z
CONST	ENDS
;	COMDAT ??_R4GlyphPathCache@ssf@@6B@
rdata$r	SEGMENT
??_R4GlyphPathCache@ssf@@6B@ DD 00H			; ssf::GlyphPathCache::`RTTI Complete Object Locator'
	DD	00H
	DD	00H
	DD	FLAT:??_R0?AVGlyphPathCache@ssf@@@8
	DD	FLAT:??_R3GlyphPathCache@ssf@@8
rdata$r	ENDS
;	COMDAT ??_R3GlyphPathCache@ssf@@8
rdata$r	SEGMENT
??_R3GlyphPathCache@ssf@@8 DD 00H			; ssf::GlyphPathCache::`RTTI Class Hierarchy Descriptor'
	DD	00H
	DD	02H
	DD	FLAT:??_R2GlyphPathCache@ssf@@8
rdata$r	ENDS
;	COMDAT ??_R2GlyphPathCache@ssf@@8
rdata$r	SEGMENT
??_R2GlyphPathCache@ssf@@8 DD FLAT:??_R1A@?0A@EA@GlyphPathCache@ssf@@8 ; ssf::GlyphPathCache::`RTTI Base Class Array'
	DD	FLAT:??_R1A@?0A@EA@?$Cache@PAVGlyphPath@ssf@@@ssf@@8
rdata$r	ENDS
;	COMDAT ??_R1A@?0A@EA@?$Cache@PAVGlyphPath@ssf@@@ssf@@8
rdata$r	SEGMENT
??_R1A@?0A@EA@?$Cache@PAVGlyphPath@ssf@@@ssf@@8 DD FLAT:??_R0?AV?$Cache@PAVGlyphPath@ssf@@@ssf@@@8 ; ssf::Cache<ssf::GlyphPath *>::`RTTI Base Class Descriptor at (0,-1,0,64)'
	DD	00H
	DD	00H
	DD	0ffffffffH
	DD	00H
	DD	040H
	DD	FLAT:??_R3?$Cache@PAVGlyphPath@ssf@@@ssf@@8
rdata$r	ENDS
;	COMDAT ??_R3?$Cache@PAVGlyphPath@ssf@@@ssf@@8
rdata$r	SEGMENT
??_R3?$Cache@PAVGlyphPath@ssf@@@ssf@@8 DD 00H		; ssf::Cache<ssf::GlyphPath *>::`RTTI Class Hierarchy Descriptor'
	DD	00H
	DD	01H
	DD	FLAT:??_R2?$Cache@PAVGlyphPath@ssf@@@ssf@@8
rdata$r	ENDS
;	COMDAT ??_R2?$Cache@PAVGlyphPath@ssf@@@ssf@@8
rdata$r	SEGMENT
??_R2?$Cache@PAVGlyphPath@ssf@@@ssf@@8 DD FLAT:??_R1A@?0A@EA@?$Cache@PAVGlyphPath@ssf@@@ssf@@8 ; ssf::Cache<ssf::GlyphPath *>::`RTTI Base Class Array'
rdata$r	ENDS
;	COMDAT ??_R0?AV?$Cache@PAVGlyphPath@ssf@@@ssf@@@8
_DATA	SEGMENT
??_R0?AV?$Cache@PAVGlyphPath@ssf@@@ssf@@@8 DD FLAT:??_7type_info@@6B@ ; ssf::Cache<ssf::GlyphPath *> `RTTI Type Descriptor'
	DD	00H
	DB	'.?AV?$Cache@PAVGlyphPath@ssf@@@ssf@@', 00H
_DATA	ENDS
;	COMDAT ??_R1A@?0A@EA@GlyphPathCache@ssf@@8
rdata$r	SEGMENT
??_R1A@?0A@EA@GlyphPathCache@ssf@@8 DD FLAT:??_R0?AVGlyphPathCache@ssf@@@8 ; ssf::GlyphPathCache::`RTTI Base Class Descriptor at (0,-1,0,64)'
	DD	01H
	DD	00H
	DD	0ffffffffH
	DD	00H
	DD	040H
	DD	FLAT:??_R3GlyphPathCache@ssf@@8
rdata$r	ENDS
;	COMDAT ??_R0?AVGlyphPathCache@ssf@@@8
_DATA	SEGMENT
??_R0?AVGlyphPathCache@ssf@@@8 DD FLAT:??_7type_info@@6B@ ; ssf::GlyphPathCache `RTTI Type Descriptor'
	DD	00H
	DB	'.?AVGlyphPathCache@ssf@@', 00H
_DATA	ENDS
;	COMDAT ??_7?$Cache@PAVFontWrapper@ssf@@@ssf@@6B@
CONST	SEGMENT
??_7?$Cache@PAVFontWrapper@ssf@@@ssf@@6B@ DD FLAT:??_R4?$Cache@PAVFontWrapper@ssf@@@ssf@@6B@ ; ssf::Cache<ssf::FontWrapper *>::`vftable'
	DD	FLAT:??_E?$Cache@PAVFontWrapper@ssf@@@ssf@@UAEPAXI@Z
CONST	ENDS
;	COMDAT ??_R4?$Cache@PAVFontWrapper@ssf@@@ssf@@6B@
rdata$r	SEGMENT
??_R4?$Cache@PAVFontWrapper@ssf@@@ssf@@6B@ DD 00H	; ssf::Cache<ssf::FontWrapper *>::`RTTI Complete Object Locator'
	DD	00H
	DD	00H
	DD	FLAT:??_R0?AV?$Cache@PAVFontWrapper@ssf@@@ssf@@@8
	DD	FLAT:??_R3?$Cache@PAVFontWrapper@ssf@@@ssf@@8
rdata$r	ENDS
;	COMDAT ??_7FontCache@ssf@@6B@
CONST	SEGMENT
??_7FontCache@ssf@@6B@ DD FLAT:??_R4FontCache@ssf@@6B@	; ssf::FontCache::`vftable'
	DD	FLAT:??_EFontCache@ssf@@UAEPAXI@Z
CONST	ENDS
;	COMDAT ??_R4FontCache@ssf@@6B@
rdata$r	SEGMENT
??_R4FontCache@ssf@@6B@ DD 00H				; ssf::FontCache::`RTTI Complete Object Locator'
	DD	00H
	DD	00H
	DD	FLAT:??_R0?AVFontCache@ssf@@@8
	DD	FLAT:??_R3FontCache@ssf@@8
rdata$r	ENDS
;	COMDAT ??_R3FontCache@ssf@@8
rdata$r	SEGMENT
??_R3FontCache@ssf@@8 DD 00H				; ssf::FontCache::`RTTI Class Hierarchy Descriptor'
	DD	00H
	DD	02H
	DD	FLAT:??_R2FontCache@ssf@@8
rdata$r	ENDS
;	COMDAT ??_R2FontCache@ssf@@8
rdata$r	SEGMENT
??_R2FontCache@ssf@@8 DD FLAT:??_R1A@?0A@EA@FontCache@ssf@@8 ; ssf::FontCache::`RTTI Base Class Array'
	DD	FLAT:??_R1A@?0A@EA@?$Cache@PAVFontWrapper@ssf@@@ssf@@8
rdata$r	ENDS
;	COMDAT ??_R1A@?0A@EA@?$Cache@PAVFontWrapper@ssf@@@ssf@@8
rdata$r	SEGMENT
??_R1A@?0A@EA@?$Cache@PAVFontWrapper@ssf@@@ssf@@8 DD FLAT:??_R0?AV?$Cache@PAVFontWrapper@ssf@@@ssf@@@8 ; ssf::Cache<ssf::FontWrapper *>::`RTTI Base Class Descriptor at (0,-1,0,64)'
	DD	00H
	DD	00H
	DD	0ffffffffH
	DD	00H
	DD	040H
	DD	FLAT:??_R3?$Cache@PAVFontWrapper@ssf@@@ssf@@8
rdata$r	ENDS
;	COMDAT ??_R3?$Cache@PAVFontWrapper@ssf@@@ssf@@8
rdata$r	SEGMENT
??_R3?$Cache@PAVFontWrapper@ssf@@@ssf@@8 DD 00H		; ssf::Cache<ssf::FontWrapper *>::`RTTI Class Hierarchy Descriptor'
	DD	00H
	DD	01H
	DD	FLAT:??_R2?$Cache@PAVFontWrapper@ssf@@@ssf@@8
rdata$r	ENDS
;	COMDAT ??_R2?$Cache@PAVFontWrapper@ssf@@@ssf@@8
rdata$r	SEGMENT
??_R2?$Cache@PAVFontWrapper@ssf@@@ssf@@8 DD FLAT:??_R1A@?0A@EA@?$Cache@PAVFontWrapper@ssf@@@ssf@@8 ; ssf::Cache<ssf::FontWrapper *>::`RTTI Base Class Array'
rdata$r	ENDS
;	COMDAT ??_R0?AV?$Cache@PAVFontWrapper@ssf@@@ssf@@@8
_DATA	SEGMENT
??_R0?AV?$Cache@PAVFontWrapper@ssf@@@ssf@@@8 DD FLAT:??_7type_info@@6B@ ; ssf::Cache<ssf::FontWrapper *> `RTTI Type Descriptor'
	DD	00H
	DB	'.?AV?$Cache@PAVFontWrapper@ssf@@@ssf@@', 00H
_DATA	ENDS
;	COMDAT ??_R1A@?0A@EA@FontCache@ssf@@8
rdata$r	SEGMENT
??_R1A@?0A@EA@FontCache@ssf@@8 DD FLAT:??_R0?AVFontCache@ssf@@@8 ; ssf::FontCache::`RTTI Base Class Descriptor at (0,-1,0,64)'
	DD	01H
	DD	00H
	DD	0ffffffffH
	DD	00H
	DD	040H
	DD	FLAT:??_R3FontCache@ssf@@8
rdata$r	ENDS
;	COMDAT ??_R0?AVFontCache@ssf@@@8
_DATA	SEGMENT
??_R0?AVFontCache@ssf@@@8 DD FLAT:??_7type_info@@6B@	; ssf::FontCache `RTTI Type Descriptor'
	DD	00H
	DB	'.?AVFontCache@ssf@@', 00H
_DATA	ENDS
;	COMDAT ??_7GlyphPath@ssf@@6B@
CONST	SEGMENT
??_7GlyphPath@ssf@@6B@ DD FLAT:??_R4GlyphPath@ssf@@6B@	; ssf::GlyphPath::`vftable'
	DD	FLAT:??_EGlyphPath@ssf@@UAEPAXI@Z
CONST	ENDS
;	COMDAT ??_R4GlyphPath@ssf@@6B@
rdata$r	SEGMENT
??_R4GlyphPath@ssf@@6B@ DD 00H				; ssf::GlyphPath::`RTTI Complete Object Locator'
	DD	00H
	DD	00H
	DD	FLAT:??_R0?AVGlyphPath@ssf@@@8
	DD	FLAT:??_R3GlyphPath@ssf@@8
rdata$r	ENDS
;	COMDAT ??_R3GlyphPath@ssf@@8
rdata$r	SEGMENT
??_R3GlyphPath@ssf@@8 DD 00H				; ssf::GlyphPath::`RTTI Class Hierarchy Descriptor'
	DD	00H
	DD	01H
	DD	FLAT:??_R2GlyphPath@ssf@@8
rdata$r	ENDS
;	COMDAT ??_R2GlyphPath@ssf@@8
rdata$r	SEGMENT
??_R2GlyphPath@ssf@@8 DD FLAT:??_R1A@?0A@EA@GlyphPath@ssf@@8 ; ssf::GlyphPath::`RTTI Base Class Array'
rdata$r	ENDS
;	COMDAT ??_R1A@?0A@EA@GlyphPath@ssf@@8
rdata$r	SEGMENT
??_R1A@?0A@EA@GlyphPath@ssf@@8 DD FLAT:??_R0?AVGlyphPath@ssf@@@8 ; ssf::GlyphPath::`RTTI Base Class Descriptor at (0,-1,0,64)'
	DD	00H
	DD	00H
	DD	0ffffffffH
	DD	00H
	DD	040H
	DD	FLAT:??_R3GlyphPath@ssf@@8
rdata$r	ENDS
;	COMDAT ??_R0?AVGlyphPath@ssf@@@8
_DATA	SEGMENT
??_R0?AVGlyphPath@ssf@@@8 DD FLAT:??_7type_info@@6B@	; ssf::GlyphPath `RTTI Type Descriptor'
	DD	00H
	DB	'.?AVGlyphPath@ssf@@', 00H
_DATA	ENDS
;	COMDAT ?s_anPrimes@?1??PickSize@?$CAtlMap@V?$CStringT@_WV?$StrTraitMFC@_WV?$ChTraitsCRT@_W@ATL@@@@@ATL@@_NV?$CStringElementTraits@V?$CStringT@_WV?$StrTraitMFC@_WV?$ChTraitsCRT@_W@ATL@@@@@ATL@@@2@V?$CElementTraits@_N@2@@ATL@@ABEII@Z@4QBIB
CONST	SEGMENT
?s_anPrimes@?1??PickSize@?$CAtlMap@V?$CStringT@_WV?$StrTraitMFC@_WV?$ChTraitsCRT@_W@ATL@@@@@ATL@@_NV?$CStringElementTraits@V?$CStringT@_WV?$StrTraitMFC@_WV?$ChTraitsCRT@_W@ATL@@@@@ATL@@@2@V?$CElementTraits@_N@2@@ATL@@ABEII@Z@4QBIB DD 011H ; `ATL::CAtlMap<ATL::CStringT<wchar_t,StrTraitMFC<wchar_t,ATL::ChTraitsCRT<wchar_t> > >,bool,ATL::CStringElementTraits<ATL::CStringT<wchar_t,StrTraitMFC<wchar_t,ATL::ChTraitsCRT<wchar_t> > > >,ATL::CElementTraits<bool> >::PickSize'::`2'::s_anPrimes
	DD	017H
	DD	01dH
	DD	025H
	DD	029H
	DD	035H
	DD	043H
	DD	053H
	DD	067H
	DD	083H
	DD	0a3H
	DD	0d3H
	DD	0101H
	DD	014bH
	DD	0199H
	DD	0209H
	DD	0287H
	DD	0335H
	DD	0407H
	DD	050bH
	DD	065bH
	DD	0805H
	DD	0a1fH
	DD	0cb3H
	DD	01003H
	DD	0142fH
	DD	01979H
	DD	02011H
	DD	0285bH
	DD	032cfH
	DD	0401bH
	DD	050b7H
	DD	065a1H
	DD	08003H
	DD	0a153H
	DD	0cb35H
	DD	010001H
	DD	01428bH
	DD	019661H
	DD	02001dH
	DD	028529H
	DD	032cc3H
	DD	040003H
	DD	050a2fH
	DD	065993H
	DD	080015H
	DD	0a1453H
	DD	0cb323H
	DD	0100007H
	DD	01428b3H
	DD	019661fH
	DD	0200011H
	DD	0285151H
	DD	032cbffH
	DD	040000fH
	DD	050a28dH
	DD	0659801H
	DD	0800009H
	DD	0a14521H
	DD	0cb2ff9H
	DD	0ffffffffH
CONST	ENDS
;	COMDAT ?s_anPrimes@?1??PickSize@?$CAtlMap@V?$CStringT@_WV?$StrTraitMFC@_WV?$ChTraitsCRT@_W@ATL@@@@@ATL@@VSubRect@ssf@@V?$CStringElementTraits@V?$CStringT@_WV?$StrTraitMFC@_WV?$ChTraitsCRT@_W@ATL@@@@@ATL@@@2@V?$CElementTraits@VSubRect@ssf@@@2@@ATL@@ABEII@Z@4QBIB
CONST	SEGMENT
?s_anPrimes@?1??PickSize@?$CAtlMap@V?$CStringT@_WV?$StrTraitMFC@_WV?$ChTraitsCRT@_W@ATL@@@@@ATL@@VSubRect@ssf@@V?$CStringElementTraits@V?$CStringT@_WV?$StrTraitMFC@_WV?$ChTraitsCRT@_W@ATL@@@@@ATL@@@2@V?$CElementTraits@VSubRect@ssf@@@2@@ATL@@ABEII@Z@4QBIB DD 011H ; `ATL::CAtlMap<ATL::CStringT<wchar_t,StrTraitMFC<wchar_t,ATL::ChTraitsCRT<wchar_t> > >,ssf::SubRect,ATL::CStringElementTraits<ATL::CStringT<wchar_t,StrTraitMFC<wchar_t,ATL::ChTraitsCRT<wchar_t> > > >,ATL::CElementTraits<ssf::SubRect> >::PickSize'::`2'::s_anPrimes
	DD	017H
	DD	01dH
	DD	025H
	DD	029H
	DD	035H
	DD	043H
	DD	053H
	DD	067H
	DD	083H
	DD	0a3H
	DD	0d3H
	DD	0101H
	DD	014bH
	DD	0199H
	DD	0209H
	DD	0287H
	DD	0335H
	DD	0407H
	DD	050bH
	DD	065bH
	DD	0805H
	DD	0a1fH
	DD	0cb3H
	DD	01003H
	DD	0142fH
	DD	01979H
	DD	02011H
	DD	0285bH
	DD	032cfH
	DD	0401bH
	DD	050b7H
	DD	065a1H
	DD	08003H
	DD	0a153H
	DD	0cb35H
	DD	010001H
	DD	01428bH
	DD	019661H
	DD	02001dH
	DD	028529H
	DD	032cc3H
	DD	040003H
	DD	050a2fH
	DD	065993H
	DD	080015H
	DD	0a1453H
	DD	0cb323H
	DD	0100007H
	DD	01428b3H
	DD	019661fH
	DD	0200011H
	DD	0285151H
	DD	032cbffH
	DD	040000fH
	DD	050a28dH
	DD	0659801H
	DD	0800009H
	DD	0a14521H
	DD	0cb2ff9H
	DD	0ffffffffH
CONST	ENDS
;	COMDAT ?s_anPrimes@?1??PickSize@?$CAtlMap@V?$CStringT@_WV?$StrTraitMFC@_WV?$ChTraitsCRT@_W@ATL@@@@@ATL@@PAVRenderedSubtitle@ssf@@V?$CStringElementTraits@V?$CStringT@_WV?$StrTraitMFC@_WV?$ChTraitsCRT@_W@ATL@@@@@ATL@@@2@V?$CElementTraits@PAVRenderedSubtitle@ssf@@@2@@ATL@@ABEII@Z@4QBIB
CONST	SEGMENT
?s_anPrimes@?1??PickSize@?$CAtlMap@V?$CStringT@_WV?$StrTraitMFC@_WV?$ChTraitsCRT@_W@ATL@@@@@ATL@@PAVRenderedSubtitle@ssf@@V?$CStringElementTraits@V?$CStringT@_WV?$StrTraitMFC@_WV?$ChTraitsCRT@_W@ATL@@@@@ATL@@@2@V?$CElementTraits@PAVRenderedSubtitle@ssf@@@2@@ATL@@ABEII@Z@4QBIB DD 011H ; `ATL::CAtlMap<ATL::CStringT<wchar_t,StrTraitMFC<wchar_t,ATL::ChTraitsCRT<wchar_t> > >,ssf::RenderedSubtitle *,ATL::CStringElementTraits<ATL::CStringT<wchar_t,StrTraitMFC<wchar_t,ATL::ChTraitsCRT<wchar_t> > > >,ATL::CElementTraits<ssf::RenderedSubtitle *> >::PickSize'::`2'::s_anPrimes
	DD	017H
	DD	01dH
	DD	025H
	DD	029H
	DD	035H
	DD	043H
	DD	053H
	DD	067H
	DD	083H
	DD	0a3H
	DD	0d3H
	DD	0101H
	DD	014bH
	DD	0199H
	DD	0209H
	DD	0287H
	DD	0335H
	DD	0407H
	DD	050bH
	DD	065bH
	DD	0805H
	DD	0a1fH
	DD	0cb3H
	DD	01003H
	DD	0142fH
	DD	01979H
	DD	02011H
	DD	0285bH
	DD	032cfH
	DD	0401bH
	DD	050b7H
	DD	065a1H
	DD	08003H
	DD	0a153H
	DD	0cb35H
	DD	010001H
	DD	01428bH
	DD	019661H
	DD	02001dH
	DD	028529H
	DD	032cc3H
	DD	040003H
	DD	050a2fH
	DD	065993H
	DD	080015H
	DD	0a1453H
	DD	0cb323H
	DD	0100007H
	DD	01428b3H
	DD	019661fH
	DD	0200011H
	DD	0285151H
	DD	032cbffH
	DD	040000fH
	DD	050a28dH
	DD	0659801H
	DD	0800009H
	DD	0a14521H
	DD	0cb2ff9H
	DD	0ffffffffH
CONST	ENDS
;	COMDAT ?s_anPrimes@?1??PickSize@?$CAtlMap@V?$CStringT@_WV?$StrTraitMFC@_WV?$ChTraitsCRT@_W@ATL@@@@@ATL@@PAVGlyphPath@ssf@@V?$CStringElementTraits@V?$CStringT@_WV?$StrTraitMFC@_WV?$ChTraitsCRT@_W@ATL@@@@@ATL@@@2@V?$CElementTraits@PAVGlyphPath@ssf@@@2@@ATL@@ABEII@Z@4QBIB
CONST	SEGMENT
?s_anPrimes@?1??PickSize@?$CAtlMap@V?$CStringT@_WV?$StrTraitMFC@_WV?$ChTraitsCRT@_W@ATL@@@@@ATL@@PAVGlyphPath@ssf@@V?$CStringElementTraits@V?$CStringT@_WV?$StrTraitMFC@_WV?$ChTraitsCRT@_W@ATL@@@@@ATL@@@2@V?$CElementTraits@PAVGlyphPath@ssf@@@2@@ATL@@ABEII@Z@4QBIB DD 011H ; `ATL::CAtlMap<ATL::CStringT<wchar_t,StrTraitMFC<wchar_t,ATL::ChTraitsCRT<wchar_t> > >,ssf::GlyphPath *,ATL::CStringElementTraits<ATL::CStringT<wchar_t,StrTraitMFC<wchar_t,ATL::ChTraitsCRT<wchar_t> > > >,ATL::CElementTraits<ssf::GlyphPath *> >::PickSize'::`2'::s_anPrimes
	DD	017H
	DD	01dH
	DD	025H
	DD	029H
	DD	035H
	DD	043H
	DD	053H
	DD	067H
	DD	083H
	DD	0a3H
	DD	0d3H
	DD	0101H
	DD	014bH
	DD	0199H
	DD	0209H
	DD	0287H
	DD	0335H
	DD	0407H
	DD	050bH
	DD	065bH
	DD	0805H
	DD	0a1fH
	DD	0cb3H
	DD	01003H
	DD	0142fH
	DD	01979H
	DD	02011H
	DD	0285bH
	DD	032cfH
	DD	0401bH
	DD	050b7H
	DD	065a1H
	DD	08003H
	DD	0a153H
	DD	0cb35H
	DD	010001H
	DD	01428bH
	DD	019661H
	DD	02001dH
	DD	028529H
	DD	032cc3H
	DD	040003H
	DD	050a2fH
	DD	065993H
	DD	080015H
	DD	0a1453H
	DD	0cb323H
	DD	0100007H
	DD	01428b3H
	DD	019661fH
	DD	0200011H
	DD	0285151H
	DD	032cbffH
	DD	040000fH
	DD	050a28dH
	DD	0659801H
	DD	0800009H
	DD	0a14521H
	DD	0cb2ff9H
	DD	0ffffffffH
CONST	ENDS
;	COMDAT ?s_anPrimes@?1??PickSize@?$CAtlMap@V?$CStringT@_WV?$StrTraitMFC@_WV?$ChTraitsCRT@_W@ATL@@@@@ATL@@PAVFontWrapper@ssf@@V?$CStringElementTraits@V?$CStringT@_WV?$StrTraitMFC@_WV?$ChTraitsCRT@_W@ATL@@@@@ATL@@@2@V?$CElementTraits@PAVFontWrapper@ssf@@@2@@ATL@@ABEII@Z@4QBIB
CONST	SEGMENT
?s_anPrimes@?1??PickSize@?$CAtlMap@V?$CStringT@_WV?$StrTraitMFC@_WV?$ChTraitsCRT@_W@ATL@@@@@ATL@@PAVFontWrapper@ssf@@V?$CStringElementTraits@V?$CStringT@_WV?$StrTraitMFC@_WV?$ChTraitsCRT@_W@ATL@@@@@ATL@@@2@V?$CElementTraits@PAVFontWrapper@ssf@@@2@@ATL@@ABEII@Z@4QBIB DD 011H ; `ATL::CAtlMap<ATL::CStringT<wchar_t,StrTraitMFC<wchar_t,ATL::ChTraitsCRT<wchar_t> > >,ssf::FontWrapper *,ATL::CStringElementTraits<ATL::CStringT<wchar_t,StrTraitMFC<wchar_t,ATL::ChTraitsCRT<wchar_t> > > >,ATL::CElementTraits<ssf::FontWrapper *> >::PickSize'::`2'::s_anPrimes
	DD	017H
	DD	01dH
	DD	025H
	DD	029H
	DD	035H
	DD	043H
	DD	053H
	DD	067H
	DD	083H
	DD	0a3H
	DD	0d3H
	DD	0101H
	DD	014bH
	DD	0199H
	DD	0209H
	DD	0287H
	DD	0335H
	DD	0407H
	DD	050bH
	DD	065bH
	DD	0805H
	DD	0a1fH
	DD	0cb3H
	DD	01003H
	DD	0142fH
	DD	01979H
	DD	02011H
	DD	0285bH
	DD	032cfH
	DD	0401bH
	DD	050b7H
	DD	065a1H
	DD	08003H
	DD	0a153H
	DD	0cb35H
	DD	010001H
	DD	01428bH
	DD	019661H
	DD	02001dH
	DD	028529H
	DD	032cc3H
	DD	040003H
	DD	050a2fH
	DD	065993H
	DD	080015H
	DD	0a1453H
	DD	0cb323H
	DD	0100007H
	DD	01428b3H
	DD	019661fH
	DD	0200011H
	DD	0285151H
	DD	032cbffH
	DD	040000fH
	DD	050a28dH
	DD	0659801H
	DD	0800009H
	DD	0a14521H
	DD	0cb2ff9H
	DD	0ffffffffH
CONST	ENDS
;	COMDAT ??_C@_1BI@PHGAHBDA@?$AA?$CF?$AAs?$AA?0?$AA?$CF?$AAd?$AA?0?$AA?$CF?$AAd?$AA?0?$AA?$CF?$AAd?$AA?$AA@
CONST	SEGMENT
??_C@_1BI@PHGAHBDA@?$AA?$CF?$AAs?$AA?0?$AA?$CF?$AAd?$AA?0?$AA?$CF?$AAd?$AA?0?$AA?$CF?$AAd?$AA?$AA@ DB '%'
	DB	00H, 's', 00H, ',', 00H, '%', 00H, 'd', 00H, ',', 00H, '%', 00H
	DB	'd', 00H, ',', 00H, '%', 00H, 'd', 00H, 00H, 00H ; `string'
CONST	ENDS
;	COMDAT ??_C@_17FPDKLCKM@?$AAb?$AAo?$AAx?$AA?$AA@
CONST	SEGMENT
??_C@_17FPDKLCKM@?$AAb?$AAo?$AAx?$AA?$AA@ DB 'b', 00H, 'o', 00H, 'x', 00H
	DB	00H, 00H					; `string'
CONST	ENDS
;	COMDAT ??_C@_1BA@PDBLNOGL@?$AAe?$AAn?$AAl?$AAa?$AAr?$AAg?$AAe?$AA?$AA@
CONST	SEGMENT
??_C@_1BA@PDBLNOGL@?$AAe?$AAn?$AAl?$AAa?$AAr?$AAg?$AAe?$AA?$AA@ DB 'e', 00H
	DB	'n', 00H, 'l', 00H, 'a', 00H, 'r', 00H, 'g', 00H, 'e', 00H, 00H
	DB	00H						; `string'
CONST	ENDS
;	COMDAT ??_C@_1BA@NHBGAPMB@?$AAo?$AAu?$AAt?$AAl?$AAi?$AAn?$AAe?$AA?$AA@
CONST	SEGMENT
??_C@_1BA@NHBGAPMB@?$AAo?$AAu?$AAt?$AAl?$AAi?$AAn?$AAe?$AA?$AA@ DB 'o', 00H
	DB	'u', 00H, 't', 00H, 'l', 00H, 'i', 00H, 'n', 00H, 'e', 00H, 00H
	DB	00H						; `string'
CONST	ENDS
;	COMDAT ??_C@_19PDIFHHOB@?$AAw?$AAo?$AAr?$AAd?$AA?$AA@
CONST	SEGMENT
??_C@_19PDIFHHOB@?$AAw?$AAo?$AAr?$AAd?$AA?$AA@ DB 'w', 00H, 'o', 00H, 'r', 00H
	DB	'd', 00H, 00H, 00H				; `string'
CONST	ENDS
;	COMDAT ??_C@_19CHDFCHBM@?$AAc?$AAh?$AAa?$AAr?$AA?$AA@
CONST	SEGMENT
??_C@_19CHDFCHBM@?$AAc?$AAh?$AAa?$AAr?$AA?$AA@ DB 'c', 00H, 'h', 00H, 'a', 00H
	DB	'r', 00H, 00H, 00H				; `string'
CONST	ENDS
;	COMDAT ??_C@_19MCEENOHD@?$AAe?$AAv?$AAe?$AAn?$AA?$AA@
CONST	SEGMENT
??_C@_19MCEENOHD@?$AAe?$AAv?$AAe?$AAn?$AA?$AA@ DB 'e', 00H, 'v', 00H, 'e', 00H
	DB	'n', 00H, 00H, 00H				; `string'
CONST	ENDS
;	COMDAT ??_C@_15HOONGCLC@?$AAu?$AAp?$AA?$AA@
CONST	SEGMENT
??_C@_15HOONGCLC@?$AAu?$AAp?$AA?$AA@ DB 'u', 00H, 'p', 00H, 00H, 00H ; `string'
CONST	ENDS
;	COMDAT ??_C@_19GMDMNN@?$AAd?$AAo?$AAw?$AAn?$AA?$AA@
CONST	SEGMENT
??_C@_19GMDMNN@?$AAd?$AAo?$AAw?$AAn?$AA?$AA@ DB 'd', 00H, 'o', 00H, 'w', 00H
	DB	'n', 00H, 00H, 00H				; `string'
; Function compile flags: /Ogtpy
; File c:\program files (x86)\microsoft visual studio 9.0\vc\atlmfc\include\atltypes.inl
;	COMDAT ??YCPoint@@QAEXUtagSIZE@@@Z
_TEXT	SEGMENT
_size$ = 8						; size = 8
??YCPoint@@QAEXUtagSIZE@@@Z PROC			; CPoint::operator+=, COMDAT
; _this$ = eax

; 93   : 	{ x += size.cx; y += size.cy; }

	mov	ecx, DWORD PTR _size$[esp-4]
	mov	edx, DWORD PTR _size$[esp]
	add	DWORD PTR [eax], ecx
	add	DWORD PTR [eax+4], edx
	ret	8
??YCPoint@@QAEXUtagSIZE@@@Z ENDP			; CPoint::operator+=
; Function compile flags: /Ogtpy
_TEXT	ENDS
;	COMDAT ?InflateRect@CRect@@QAEXHHHH@Z
_TEXT	SEGMENT
_l$ = 8							; size = 4
_t$ = 12						; size = 4
_r$ = 16						; size = 4
_b$ = 20						; size = 4
?InflateRect@CRect@@QAEXHHHH@Z PROC			; CRect::InflateRect, COMDAT
; _this$ = ecx

; 263  : 		left -= l;			top -= t;

	mov	eax, DWORD PTR _l$[esp-4]
	mov	edx, DWORD PTR _t$[esp-4]
	sub	DWORD PTR [ecx], eax
	sub	DWORD PTR [ecx+4], edx

; 264  : 		right += r;			bottom += b;

	mov	eax, DWORD PTR _r$[esp-4]
	mov	edx, DWORD PTR _b$[esp-4]
	add	DWORD PTR [ecx+8], eax
	add	DWORD PTR [ecx+12], edx

; 265  : 	}

	ret	16					; 00000010H
?InflateRect@CRect@@QAEXHHHH@Z ENDP			; CRect::InflateRect
; Function compile flags: /Ogtpy
_TEXT	ENDS
;	COMDAT ?DeflateRect@CRect@@QAEXHHHH@Z
_TEXT	SEGMENT
_l$ = 8							; size = 4
_t$ = 12						; size = 4
_r$ = 16						; size = 4
_b$ = 20						; size = 4
?DeflateRect@CRect@@QAEXHHHH@Z PROC			; CRect::DeflateRect, COMDAT
; _this$ = ecx

; 275  : 		left += l;		top += t;

	mov	eax, DWORD PTR _l$[esp-4]
	mov	edx, DWORD PTR _t$[esp-4]
	add	DWORD PTR [ecx], eax
	add	DWORD PTR [ecx+4], edx

; 276  : 		right -= r;		bottom -= b;

	mov	eax, DWORD PTR _r$[esp-4]
	mov	edx, DWORD PTR _b$[esp-4]
	sub	DWORD PTR [ecx+8], eax
	sub	DWORD PTR [ecx+12], edx

; 277  : 	}

	ret	16					; 00000010H
?DeflateRect@CRect@@QAEXHHHH@Z ENDP			; CRect::DeflateRect
; Function compile flags: /Ogtpy
; File c:\program files (x86)\microsoft visual studio 9.0\vc\atlmfc\include\atlcoll.h
_TEXT	ENDS
;	COMDAT ?UpdateRehashThresholds@?$CAtlMap@V?$CStringT@_WV?$StrTraitMFC@_WV?$ChTraitsCRT@_W@ATL@@@@@ATL@@_NV?$CStringElementTraits@V?$CStringT@_WV?$StrTraitMFC@_WV?$ChTraitsCRT@_W@ATL@@@@@ATL@@@2@V?$CElementTraits@_N@2@@ATL@@AAEXXZ
_TEXT	SEGMENT
tv150 = -12						; size = 2
tv141 = -12						; size = 2
tv131 = -12						; size = 4
tv153 = -8						; size = 4
tv145 = -8						; size = 4
tv143 = -8						; size = 8
tv138 = -8						; size = 4
tv136 = -8						; size = 8
?UpdateRehashThresholds@?$CAtlMap@V?$CStringT@_WV?$StrTraitMFC@_WV?$ChTraitsCRT@_W@ATL@@@@@ATL@@_NV?$CStringElementTraits@V?$CStringT@_WV?$StrTraitMFC@_WV?$ChTraitsCRT@_W@ATL@@@@@ATL@@@2@V?$CElementTraits@_N@2@@ATL@@AAEXXZ PROC ; ATL::CAtlMap<ATL::CStringT<wchar_t,StrTraitMFC<wchar_t,ATL::ChTraitsCRT<wchar_t> > >,bool,ATL::CStringElementTraits<ATL::CStringT<wchar_t,StrTraitMFC<wchar_t,ATL::ChTraitsCRT<wchar_t> > > >,ATL::CElementTraits<bool> >::UpdateRehashThresholds, COMDAT
; _this$ = ecx

; 2422 : 	m_nHiRehashThreshold = size_t( m_fHiThreshold*m_nBins );

	mov	eax, DWORD PTR [ecx+8]
	fild	DWORD PTR [ecx+8]
	sub	esp, 12					; 0000000cH
	test	eax, eax
	jge	SHORT $LN4@UpdateReha
	fadd	DWORD PTR __real@4f800000
$LN4@UpdateReha:
	fstp	DWORD PTR tv131[esp+12]
	fld	DWORD PTR [ecx+20]
	fld	DWORD PTR tv131[esp+12]
	fnstcw	WORD PTR tv150[esp+12]
	movzx	eax, WORD PTR tv150[esp+12]
	fld	ST(0)
	or	eax, 3072				; 00000c00H
	fmulp	ST(2), ST(0)
	mov	DWORD PTR tv145[esp+12], eax
	fxch	ST(1)
	fldcw	WORD PTR tv145[esp+12]
	fistp	QWORD PTR tv143[esp+12]
	mov	edx, DWORD PTR tv143[esp+12]
	mov	DWORD PTR [ecx+24], edx
	fldcw	WORD PTR tv150[esp+12]

; 2423 : 	m_nLoRehashThreshold = size_t( m_fLoThreshold*m_nBins );

	fmul	DWORD PTR [ecx+16]
	fnstcw	WORD PTR tv141[esp+12]
	movzx	eax, WORD PTR tv141[esp+12]
	or	eax, 3072				; 00000c00H
	mov	DWORD PTR tv138[esp+12], eax
	fldcw	WORD PTR tv138[esp+12]
	fistp	QWORD PTR tv136[esp+12]
	mov	eax, DWORD PTR tv136[esp+12]
	mov	DWORD PTR [ecx+28], eax
	fldcw	WORD PTR tv141[esp+12]

; 2424 : 	if( m_nLoRehashThreshold < 17 )

	cmp	eax, 17					; 00000011H
	jae	SHORT $LN1@UpdateReha

; 2425 : 	{
; 2426 : 		m_nLoRehashThreshold = 0;

	mov	DWORD PTR [ecx+28], 0
$LN1@UpdateReha:

; 2427 : 	}
; 2428 : }

	add	esp, 12					; 0000000cH
	ret	0
?UpdateRehashThresholds@?$CAtlMap@V?$CStringT@_WV?$StrTraitMFC@_WV?$ChTraitsCRT@_W@ATL@@@@@ATL@@_NV?$CStringElementTraits@V?$CStringT@_WV?$StrTraitMFC@_WV?$ChTraitsCRT@_W@ATL@@@@@ATL@@@2@V?$CElementTraits@_N@2@@ATL@@AAEXXZ ENDP ; ATL::CAtlMap<ATL::CStringT<wchar_t,StrTraitMFC<wchar_t,ATL::ChTraitsCRT<wchar_t> > >,bool,ATL::CStringElementTraits<ATL::CStringT<wchar_t,StrTraitMFC<wchar_t,ATL::ChTraitsCRT<wchar_t> > > >,ATL::CElementTraits<bool> >::UpdateRehashThresholds
; Function compile flags: /Ogtpy
_TEXT	ENDS
;	COMDAT ?PickSize@?$CAtlMap@V?$CStringT@_WV?$StrTraitMFC@_WV?$ChTraitsCRT@_W@ATL@@@@@ATL@@_NV?$CStringElementTraits@V?$CStringT@_WV?$StrTraitMFC@_WV?$ChTraitsCRT@_W@ATL@@@@@ATL@@@2@V?$CElementTraits@_N@2@@ATL@@ABEII@Z
_TEXT	SEGMENT
tv197 = -8						; size = 4
tv195 = -8						; size = 8
tv202 = 8						; size = 4
tv200 = 8						; size = 2
_nElements$ = 8						; size = 4
?PickSize@?$CAtlMap@V?$CStringT@_WV?$StrTraitMFC@_WV?$ChTraitsCRT@_W@ATL@@@@@ATL@@_NV?$CStringElementTraits@V?$CStringT@_WV?$StrTraitMFC@_WV?$ChTraitsCRT@_W@ATL@@@@@ATL@@@2@V?$CElementTraits@_N@2@@ATL@@ABEII@Z PROC ; ATL::CAtlMap<ATL::CStringT<wchar_t,StrTraitMFC<wchar_t,ATL::ChTraitsCRT<wchar_t> > >,bool,ATL::CStringElementTraits<ATL::CStringT<wchar_t,StrTraitMFC<wchar_t,ATL::ChTraitsCRT<wchar_t> > > >,ATL::CElementTraits<bool> >::PickSize, COMDAT
; _this$ = ecx

; 2263 : 	// List of primes such that s_anPrimes[i] is the smallest prime greater than 2^(5+i/3)
; 2264 : 	static const UINT s_anPrimes[] =
; 2265 : 	{
; 2266 : 		17, 23, 29, 37, 41, 53, 67, 83, 103, 131, 163, 211, 257, 331, 409, 521, 647, 821, 
; 2267 : 		1031, 1291, 1627, 2053, 2591, 3251, 4099, 5167, 6521, 8209, 10331, 
; 2268 : 		13007, 16411, 20663, 26017, 32771, 41299, 52021, 65537, 82571, 104033, 
; 2269 : 		131101, 165161, 208067, 262147, 330287, 416147, 524309, 660563, 
; 2270 : 		832291, 1048583, 1321139, 1664543, 2097169, 2642257, 3329023, 4194319, 
; 2271 : 		5284493, 6658049, 8388617, 10568993, 13316089, UINT_MAX
; 2272 : 	};
; 2273 : 
; 2274 : 	size_t nBins = (size_t)(nElements/m_fOptimalLoad);

	mov	eax, DWORD PTR _nElements$[esp-4]
	fild	DWORD PTR _nElements$[esp-4]
	sub	esp, 8
	test	eax, eax
	jge	SHORT $LN11@PickSize
	fadd	DWORD PTR __real@4f800000
$LN11@PickSize:
	fdiv	DWORD PTR [ecx+12]
	fnstcw	WORD PTR tv200[esp+4]
	movzx	eax, WORD PTR tv200[esp+4]
	or	eax, 3072				; 00000c00H
	mov	DWORD PTR tv197[esp+8], eax
	fldcw	WORD PTR tv197[esp+8]
	fistp	QWORD PTR tv195[esp+8]
	mov	eax, DWORD PTR tv195[esp+8]
	fldcw	WORD PTR tv200[esp+4]

; 2275 : 	UINT nBinsEstimate = UINT(  UINT_MAX < nBins ? UINT_MAX : nBins );

	cmp	eax, -1
	jbe	SHORT $LN7@PickSize
	or	eax, -1
$LN7@PickSize:

; 2276 : 
; 2277 : 	// Find the smallest prime greater than our estimate
; 2278 : 	int iPrime = 0;

	xor	ecx, ecx

; 2279 : 	while( nBinsEstimate > s_anPrimes[iPrime] )

	cmp	eax, 17					; 00000011H
	jbe	SHORT $LN3@PickSize
$LL4@PickSize:

; 2280 : 	{
; 2281 : 		iPrime++;

	inc	ecx
	cmp	eax, DWORD PTR ?s_anPrimes@?1??PickSize@?$CAtlMap@V?$CStringT@_WV?$StrTraitMFC@_WV?$ChTraitsCRT@_W@ATL@@@@@ATL@@_NV?$CStringElementTraits@V?$CStringT@_WV?$StrTraitMFC@_WV?$ChTraitsCRT@_W@ATL@@@@@ATL@@@2@V?$CElementTraits@_N@2@@ATL@@ABEII@Z@4QBIB[ecx*4]
	ja	SHORT $LL4@PickSize
$LN3@PickSize:

; 2282 : 	}
; 2283 : 
; 2284 : 	if( s_anPrimes[iPrime] == UINT_MAX )

	mov	ecx, DWORD PTR ?s_anPrimes@?1??PickSize@?$CAtlMap@V?$CStringT@_WV?$StrTraitMFC@_WV?$ChTraitsCRT@_W@ATL@@@@@ATL@@_NV?$CStringElementTraits@V?$CStringT@_WV?$StrTraitMFC@_WV?$ChTraitsCRT@_W@ATL@@@@@ATL@@@2@V?$CElementTraits@_N@2@@ATL@@ABEII@Z@4QBIB[ecx*4]
	cmp	ecx, -1

; 2285 : 	{
; 2286 : 		return( nBinsEstimate );

	je	SHORT $LN1@PickSize

; 2287 : 	}
; 2288 : 	else
; 2289 : 	{
; 2290 : 		return( s_anPrimes[iPrime] );

	mov	eax, ecx
$LN1@PickSize:

; 2291 : 	}
; 2292 : }

	add	esp, 8
	ret	4
?PickSize@?$CAtlMap@V?$CStringT@_WV?$StrTraitMFC@_WV?$ChTraitsCRT@_W@ATL@@@@@ATL@@_NV?$CStringElementTraits@V?$CStringT@_WV?$StrTraitMFC@_WV?$ChTraitsCRT@_W@ATL@@@@@ATL@@@2@V?$CElementTraits@_N@2@@ATL@@ABEII@Z ENDP ; ATL::CAtlMap<ATL::CStringT<wchar_t,StrTraitMFC<wchar_t,ATL::ChTraitsCRT<wchar_t> > >,bool,ATL::CStringElementTraits<ATL::CStringT<wchar_t,StrTraitMFC<wchar_t,ATL::ChTraitsCRT<wchar_t> > > >,ATL::CElementTraits<bool> >::PickSize
; Function compile flags: /Ogtpy
_TEXT	ENDS
;	COMDAT ?IsLocked@?$CAtlMap@V?$CStringT@_WV?$StrTraitMFC@_WV?$ChTraitsCRT@_W@ATL@@@@@ATL@@_NV?$CStringElementTraits@V?$CStringT@_WV?$StrTraitMFC@_WV?$ChTraitsCRT@_W@ATL@@@@@ATL@@@2@V?$CElementTraits@_N@2@@ATL@@ABE_NXZ
_TEXT	SEGMENT
?IsLocked@?$CAtlMap@V?$CStringT@_WV?$StrTraitMFC@_WV?$ChTraitsCRT@_W@ATL@@@@@ATL@@_NV?$CStringElementTraits@V?$CStringT@_WV?$StrTraitMFC@_WV?$ChTraitsCRT@_W@ATL@@@@@ATL@@@2@V?$CElementTraits@_N@2@@ATL@@ABE_NXZ PROC ; ATL::CAtlMap<ATL::CStringT<wchar_t,StrTraitMFC<wchar_t,ATL::ChTraitsCRT<wchar_t> > >,bool,ATL::CStringElementTraits<ATL::CStringT<wchar_t,StrTraitMFC<wchar_t,ATL::ChTraitsCRT<wchar_t> > > >,ATL::CElementTraits<bool> >::IsLocked, COMDAT
; _this$ = ecx

; 2257 : 	return( m_nLockCount != 0 );

	xor	eax, eax
	cmp	DWORD PTR [ecx+32], eax
	setne	al

; 2258 : }

	ret	0
?IsLocked@?$CAtlMap@V?$CStringT@_WV?$StrTraitMFC@_WV?$ChTraitsCRT@_W@ATL@@@@@ATL@@_NV?$CStringElementTraits@V?$CStringT@_WV?$StrTraitMFC@_WV?$ChTraitsCRT@_W@ATL@@@@@ATL@@@2@V?$CElementTraits@_N@2@@ATL@@ABE_NXZ ENDP ; ATL::CAtlMap<ATL::CStringT<wchar_t,StrTraitMFC<wchar_t,ATL::ChTraitsCRT<wchar_t> > >,bool,ATL::CStringElementTraits<ATL::CStringT<wchar_t,StrTraitMFC<wchar_t,ATL::ChTraitsCRT<wchar_t> > > >,ATL::CElementTraits<bool> >::IsLocked
; Function compile flags: /Ogtpy
_TEXT	ENDS
;	COMDAT ?DisableAutoRehash@?$CAtlMap@V?$CStringT@_WV?$StrTraitMFC@_WV?$ChTraitsCRT@_W@ATL@@@@@ATL@@_NV?$CStringElementTraits@V?$CStringT@_WV?$StrTraitMFC@_WV?$ChTraitsCRT@_W@ATL@@@@@ATL@@@2@V?$CElementTraits@_N@2@@ATL@@QAEXXZ
_TEXT	SEGMENT
?DisableAutoRehash@?$CAtlMap@V?$CStringT@_WV?$StrTraitMFC@_WV?$ChTraitsCRT@_W@ATL@@@@@ATL@@_NV?$CStringElementTraits@V?$CStringT@_WV?$StrTraitMFC@_WV?$ChTraitsCRT@_W@ATL@@@@@ATL@@@2@V?$CElementTraits@_N@2@@ATL@@QAEXXZ PROC ; ATL::CAtlMap<ATL::CStringT<wchar_t,StrTraitMFC<wchar_t,ATL::ChTraitsCRT<wchar_t> > >,bool,ATL::CStringElementTraits<ATL::CStringT<wchar_t,StrTraitMFC<wchar_t,ATL::ChTraitsCRT<wchar_t> > > >,ATL::CElementTraits<bool> >::DisableAutoRehash, COMDAT
; _this$ = ecx

; 2244 : 	m_nLockCount++;

	inc	DWORD PTR [ecx+32]

; 2245 : }

	ret	0
?DisableAutoRehash@?$CAtlMap@V?$CStringT@_WV?$StrTraitMFC@_WV?$ChTraitsCRT@_W@ATL@@@@@ATL@@_NV?$CStringElementTraits@V?$CStringT@_WV?$StrTraitMFC@_WV?$ChTraitsCRT@_W@ATL@@@@@ATL@@@2@V?$CElementTraits@_N@2@@ATL@@QAEXXZ ENDP ; ATL::CAtlMap<ATL::CStringT<wchar_t,StrTraitMFC<wchar_t,ATL::ChTraitsCRT<wchar_t> > >,bool,ATL::CStringElementTraits<ATL::CStringT<wchar_t,StrTraitMFC<wchar_t,ATL::ChTraitsCRT<wchar_t> > > >,ATL::CElementTraits<bool> >::DisableAutoRehash
; Function compile flags: /Ogtpy
_TEXT	ENDS
;	COMDAT ?EnableAutoRehash@?$CAtlMap@V?$CStringT@_WV?$StrTraitMFC@_WV?$ChTraitsCRT@_W@ATL@@@@@ATL@@_NV?$CStringElementTraits@V?$CStringT@_WV?$StrTraitMFC@_WV?$ChTraitsCRT@_W@ATL@@@@@ATL@@@2@V?$CElementTraits@_N@2@@ATL@@QAEXXZ
_TEXT	SEGMENT
?EnableAutoRehash@?$CAtlMap@V?$CStringT@_WV?$StrTraitMFC@_WV?$ChTraitsCRT@_W@ATL@@@@@ATL@@_NV?$CStringElementTraits@V?$CStringT@_WV?$StrTraitMFC@_WV?$ChTraitsCRT@_W@ATL@@@@@ATL@@@2@V?$CElementTraits@_N@2@@ATL@@QAEXXZ PROC ; ATL::CAtlMap<ATL::CStringT<wchar_t,StrTraitMFC<wchar_t,ATL::ChTraitsCRT<wchar_t> > >,bool,ATL::CStringElementTraits<ATL::CStringT<wchar_t,StrTraitMFC<wchar_t,ATL::ChTraitsCRT<wchar_t> > > >,ATL::CElementTraits<bool> >::EnableAutoRehash, COMDAT
; _this$ = ecx

; 2250 : 	ATLASSUME( m_nLockCount > 0 );
; 2251 : 	m_nLockCount--;

	dec	DWORD PTR [ecx+32]

; 2252 : }

	ret	0
?EnableAutoRehash@?$CAtlMap@V?$CStringT@_WV?$StrTraitMFC@_WV?$ChTraitsCRT@_W@ATL@@@@@ATL@@_NV?$CStringElementTraits@V?$CStringT@_WV?$StrTraitMFC@_WV?$ChTraitsCRT@_W@ATL@@@@@ATL@@@2@V?$CElementTraits@_N@2@@ATL@@QAEXXZ ENDP ; ATL::CAtlMap<ATL::CStringT<wchar_t,StrTraitMFC<wchar_t,ATL::ChTraitsCRT<wchar_t> > >,bool,ATL::CStringElementTraits<ATL::CStringT<wchar_t,StrTraitMFC<wchar_t,ATL::ChTraitsCRT<wchar_t> > > >,ATL::CElementTraits<bool> >::EnableAutoRehash
_TEXT	ENDS
;	COMDAT xdata$x
xdata$x	SEGMENT
__unwindtable$?InitHashTable@?$CAtlMap@V?$CStringT@_WV?$StrTraitMFC@_WV?$ChTraitsCRT@_W@ATL@@@@@ATL@@_NV?$CStringElementTraits@V?$CStringT@_WV?$StrTraitMFC@_WV?$ChTraitsCRT@_W@ATL@@@@@ATL@@@2@V?$CElementTraits@_N@2@@ATL@@QAE_NI_N@Z DD 0ffffffffH
	DD	00H
	DD	0ffffffffH
	DD	00H
__catchsym$?InitHashTable@?$CAtlMap@V?$CStringT@_WV?$StrTraitMFC@_WV?$ChTraitsCRT@_W@ATL@@@@@ATL@@_NV?$CStringElementTraits@V?$CStringT@_WV?$StrTraitMFC@_WV?$ChTraitsCRT@_W@ATL@@@@@ATL@@@2@V?$CElementTraits@_N@2@@ATL@@QAE_NI_N@Z$2 DD 00H
	DD	FLAT:??_R0PAVCException@@@8
	DD	0ffffffe8H
	DD	FLAT:__catch$?InitHashTable@?$CAtlMap@V?$CStringT@_WV?$StrTraitMFC@_WV?$ChTraitsCRT@_W@ATL@@@@@ATL@@_NV?$CStringElementTraits@V?$CStringT@_WV?$StrTraitMFC@_WV?$ChTraitsCRT@_W@ATL@@@@@ATL@@@2@V?$CElementTraits@_N@2@@ATL@@QAE_NI_N@Z$0
__tryblocktable$?InitHashTable@?$CAtlMap@V?$CStringT@_WV?$StrTraitMFC@_WV?$ChTraitsCRT@_W@ATL@@@@@ATL@@_NV?$CStringElementTraits@V?$CStringT@_WV?$StrTraitMFC@_WV?$ChTraitsCRT@_W@ATL@@@@@ATL@@@2@V?$CElementTraits@_N@2@@ATL@@QAE_NI_N@Z DD 00H
	DD	00H
	DD	01H
	DD	01H
	DD	FLAT:__catchsym$?InitHashTable@?$CAtlMap@V?$CStringT@_WV?$StrTraitMFC@_WV?$ChTraitsCRT@_W@ATL@@@@@ATL@@_NV?$CStringElementTraits@V?$CStringT@_WV?$StrTraitMFC@_WV?$ChTraitsCRT@_W@ATL@@@@@ATL@@@2@V?$CElementTraits@_N@2@@ATL@@QAE_NI_N@Z$2
__ehfuncinfo$?InitHashTable@?$CAtlMap@V?$CStringT@_WV?$StrTraitMFC@_WV?$ChTraitsCRT@_W@ATL@@@@@ATL@@_NV?$CStringElementTraits@V?$CStringT@_WV?$StrTraitMFC@_WV?$ChTraitsCRT@_W@ATL@@@@@ATL@@@2@V?$CElementTraits@_N@2@@ATL@@QAE_NI_N@Z DD 019930522H
	DD	02H
	DD	FLAT:__unwindtable$?InitHashTable@?$CAtlMap@V?$CStringT@_WV?$StrTraitMFC@_WV?$ChTraitsCRT@_W@ATL@@@@@ATL@@_NV?$CStringElementTraits@V?$CStringT@_WV?$StrTraitMFC@_WV?$ChTraitsCRT@_W@ATL@@@@@ATL@@@2@V?$CElementTraits@_N@2@@ATL@@QAE_NI_N@Z
	DD	01H
	DD	FLAT:__tryblocktable$?InitHashTable@?$CAtlMap@V?$CStringT@_WV?$StrTraitMFC@_WV?$ChTraitsCRT@_W@ATL@@@@@ATL@@_NV?$CStringElementTraits@V?$CStringT@_WV?$StrTraitMFC@_WV?$ChTraitsCRT@_W@ATL@@@@@ATL@@@2@V?$CElementTraits@_N@2@@ATL@@QAE_NI_N@Z
	DD	2 DUP(00H)
	DD	00H
	DD	01H
; Function compile flags: /Ogtpy
xdata$x	ENDS
;	COMDAT ?InitHashTable@?$CAtlMap@V?$CStringT@_WV?$StrTraitMFC@_WV?$ChTraitsCRT@_W@ATL@@@@@ATL@@_NV?$CStringElementTraits@V?$CStringT@_WV?$StrTraitMFC@_WV?$ChTraitsCRT@_W@ATL@@@@@ATL@@@2@V?$CElementTraits@_N@2@@ATL@@QAE_NI_N@Z
_TEXT	SEGMENT
_e$131850 = -24						; size = 4
_this$ = -20						; size = 4
__$EHRec$ = -16						; size = 16
_nBins$ = 8						; size = 4
_bAllocNow$ = 12					; size = 1
?InitHashTable@?$CAtlMap@V?$CStringT@_WV?$StrTraitMFC@_WV?$ChTraitsCRT@_W@ATL@@@@@ATL@@_NV?$CStringElementTraits@V?$CStringT@_WV?$StrTraitMFC@_WV?$ChTraitsCRT@_W@ATL@@@@@ATL@@@2@V?$CElementTraits@_N@2@@ATL@@QAE_NI_N@Z PROC ; ATL::CAtlMap<ATL::CStringT<wchar_t,StrTraitMFC<wchar_t,ATL::ChTraitsCRT<wchar_t> > >,bool,ATL::CStringElementTraits<ATL::CStringT<wchar_t,StrTraitMFC<wchar_t,ATL::ChTraitsCRT<wchar_t> > > >,ATL::CElementTraits<bool> >::InitHashTable, COMDAT
; _this$ = ecx

; 2432 : {

	push	ebp
	mov	ebp, esp
	push	-1
	push	__ehhandler$?InitHashTable@?$CAtlMap@V?$CStringT@_WV?$StrTraitMFC@_WV?$ChTraitsCRT@_W@ATL@@@@@ATL@@_NV?$CStringElementTraits@V?$CStringT@_WV?$StrTraitMFC@_WV?$ChTraitsCRT@_W@ATL@@@@@ATL@@@2@V?$CElementTraits@_N@2@@ATL@@QAE_NI_N@Z
	mov	eax, DWORD PTR fs:0
	push	eax
	mov	DWORD PTR fs:0, esp
	sub	esp, 12					; 0000000cH
	push	ebx
	push	esi
	mov	esi, ecx

; 2433 : 	ATLASSUME( m_nElements == 0 );
; 2434 : 	ATLASSERT( nBins > 0 );
; 2435 : 
; 2436 : 	if( m_ppBins != NULL )

	mov	eax, DWORD PTR [esi]
	push	edi
	mov	DWORD PTR __$EHRec$[ebp], esp
	mov	DWORD PTR _this$[ebp], esi
	test	eax, eax
	je	SHORT $LN4@InitHashTa

; 2437 : 	{
; 2438 : 		delete[] m_ppBins;

	push	eax
	call	??_V@YAXPAX@Z				; operator delete[]
	add	esp, 4

; 2439 : 		m_ppBins = NULL;

	mov	DWORD PTR [esi], 0
$LN4@InitHashTa:

; 2440 : 	}
; 2441 : 
; 2442 : 	if( bAllocNow )

	cmp	BYTE PTR _bAllocNow$[ebp], 0
	je	SHORT $LN3@InitHashTa

; 2443 : 	{
; 2444 : 		ATLTRY( m_ppBins = new CNode*[nBins] );

	mov	eax, DWORD PTR _nBins$[ebp]
	xor	ecx, ecx
	mov	edx, 4
	mul	edx
	seto	cl
	mov	DWORD PTR __$EHRec$[ebp+12], 0
	neg	ecx
	or	ecx, eax
	push	ecx
	call	??_U@YAPAXI@Z				; operator new[]
	add	esp, 4
	mov	DWORD PTR [esi], eax
	jmp	SHORT $LN16@InitHashTa
__catch$?InitHashTable@?$CAtlMap@V?$CStringT@_WV?$StrTraitMFC@_WV?$ChTraitsCRT@_W@ATL@@@@@ATL@@_NV?$CStringElementTraits@V?$CStringT@_WV?$StrTraitMFC@_WV?$ChTraitsCRT@_W@ATL@@@@@ATL@@@2@V?$CElementTraits@_N@2@@ATL@@QAE_NI_N@Z$0:
	mov	ecx, DWORD PTR _e$131850[ebp]
	call	?Delete@CException@@QAEXXZ		; CException::Delete
	mov	eax, $LN18@InitHashTa
	ret	0
$LN18@InitHashTa:
	mov	esi, DWORD PTR _this$[ebp]
$LN16@InitHashTa:

; 2445 : 		if( m_ppBins == NULL )

	mov	eax, DWORD PTR [esi]
	test	eax, eax
	jne	SHORT $LN1@InitHashTa

; 2446 : 		{
; 2447 : 			return false;

	xor	al, al

; 2454 : 
; 2455 : 	return true;
; 2456 : }

	mov	ecx, DWORD PTR __$EHRec$[ebp+4]
	mov	DWORD PTR fs:0, ecx
	pop	edi
	pop	esi
	pop	ebx
	mov	esp, ebp
	pop	ebp
	ret	8
$LN1@InitHashTa:

; 2448 : 		}
; 2449 : 		memset( m_ppBins, 0, sizeof( CNode* )*nBins );

	mov	ecx, DWORD PTR _nBins$[ebp]
	lea	edx, DWORD PTR [ecx*4]
	push	edx
	push	0
	push	eax
	call	_memset
	add	esp, 12					; 0000000cH
$LN3@InitHashTa:

; 2450 : 	}
; 2451 : 	m_nBins = nBins;

	mov	eax, DWORD PTR _nBins$[ebp]

; 2452 : 
; 2453 : 	UpdateRehashThresholds();

	mov	ecx, esi
	mov	DWORD PTR [esi+8], eax
	call	?UpdateRehashThresholds@?$CAtlMap@V?$CStringT@_WV?$StrTraitMFC@_WV?$ChTraitsCRT@_W@ATL@@@@@ATL@@_NV?$CStringElementTraits@V?$CStringT@_WV?$StrTraitMFC@_WV?$ChTraitsCRT@_W@ATL@@@@@ATL@@@2@V?$CElementTraits@_N@2@@ATL@@AAEXXZ ; ATL::CAtlMap<ATL::CStringT<wchar_t,StrTraitMFC<wchar_t,ATL::ChTraitsCRT<wchar_t> > >,bool,ATL::CStringElementTraits<ATL::CStringT<wchar_t,StrTraitMFC<wchar_t,ATL::ChTraitsCRT<wchar_t> > > >,ATL::CElementTraits<bool> >::UpdateRehashThresholds

; 2454 : 
; 2455 : 	return true;
; 2456 : }

	mov	ecx, DWORD PTR __$EHRec$[ebp+4]
	pop	edi
	pop	esi
	mov	al, 1
	mov	DWORD PTR fs:0, ecx
	pop	ebx
	mov	esp, ebp
	pop	ebp
	ret	8
_TEXT	ENDS
;	COMDAT text$x
text$x	SEGMENT
__ehhandler$?InitHashTable@?$CAtlMap@V?$CStringT@_WV?$StrTraitMFC@_WV?$ChTraitsCRT@_W@ATL@@@@@ATL@@_NV?$CStringElementTraits@V?$CStringT@_WV?$StrTraitMFC@_WV?$ChTraitsCRT@_W@ATL@@@@@ATL@@@2@V?$CElementTraits@_N@2@@ATL@@QAE_NI_N@Z:
	mov	eax, OFFSET __ehfuncinfo$?InitHashTable@?$CAtlMap@V?$CStringT@_WV?$StrTraitMFC@_WV?$ChTraitsCRT@_W@ATL@@@@@ATL@@_NV?$CStringElementTraits@V?$CStringT@_WV?$StrTraitMFC@_WV?$ChTraitsCRT@_W@ATL@@@@@ATL@@@2@V?$CElementTraits@_N@2@@ATL@@QAE_NI_N@Z
	jmp	___CxxFrameHandler3
text$x	ENDS
?InitHashTable@?$CAtlMap@V?$CStringT@_WV?$StrTraitMFC@_WV?$ChTraitsCRT@_W@ATL@@@@@ATL@@_NV?$CStringElementTraits@V?$CStringT@_WV?$StrTraitMFC@_WV?$ChTraitsCRT@_W@ATL@@@@@ATL@@@2@V?$CElementTraits@_N@2@@ATL@@QAE_NI_N@Z ENDP ; ATL::CAtlMap<ATL::CStringT<wchar_t,StrTraitMFC<wchar_t,ATL::ChTraitsCRT<wchar_t> > >,bool,ATL::CStringElementTraits<ATL::CStringT<wchar_t,StrTraitMFC<wchar_t,ATL::ChTraitsCRT<wchar_t> > > >,ATL::CElementTraits<bool> >::InitHashTable
; Function compile flags: /Ogtpy
;	COMDAT ?UpdateRehashThresholds@?$CAtlMap@V?$CStringT@_WV?$StrTraitMFC@_WV?$ChTraitsCRT@_W@ATL@@@@@ATL@@VSubRect@ssf@@V?$CStringElementTraits@V?$CStringT@_WV?$StrTraitMFC@_WV?$ChTraitsCRT@_W@ATL@@@@@ATL@@@2@V?$CElementTraits@VSubRect@ssf@@@2@@ATL@@AAEXXZ
_TEXT	SEGMENT
tv150 = -12						; size = 2
tv141 = -12						; size = 2
tv131 = -12						; size = 4
tv153 = -8						; size = 4
tv145 = -8						; size = 4
tv143 = -8						; size = 8
tv138 = -8						; size = 4
tv136 = -8						; size = 8
?UpdateRehashThresholds@?$CAtlMap@V?$CStringT@_WV?$StrTraitMFC@_WV?$ChTraitsCRT@_W@ATL@@@@@ATL@@VSubRect@ssf@@V?$CStringElementTraits@V?$CStringT@_WV?$StrTraitMFC@_WV?$ChTraitsCRT@_W@ATL@@@@@ATL@@@2@V?$CElementTraits@VSubRect@ssf@@@2@@ATL@@AAEXXZ PROC ; ATL::CAtlMap<ATL::CStringT<wchar_t,StrTraitMFC<wchar_t,ATL::ChTraitsCRT<wchar_t> > >,ssf::SubRect,ATL::CStringElementTraits<ATL::CStringT<wchar_t,StrTraitMFC<wchar_t,ATL::ChTraitsCRT<wchar_t> > > >,ATL::CElementTraits<ssf::SubRect> >::UpdateRehashThresholds, COMDAT
; _this$ = ecx

; 2422 : 	m_nHiRehashThreshold = size_t( m_fHiThreshold*m_nBins );

	mov	eax, DWORD PTR [ecx+8]
	fild	DWORD PTR [ecx+8]
	sub	esp, 12					; 0000000cH
	test	eax, eax
	jge	SHORT $LN4@UpdateReha@2
	fadd	DWORD PTR __real@4f800000
$LN4@UpdateReha@2:
	fstp	DWORD PTR tv131[esp+12]
	fld	DWORD PTR [ecx+20]
	fld	DWORD PTR tv131[esp+12]
	fnstcw	WORD PTR tv150[esp+12]
	movzx	eax, WORD PTR tv150[esp+12]
	fld	ST(0)
	or	eax, 3072				; 00000c00H
	fmulp	ST(2), ST(0)
	mov	DWORD PTR tv145[esp+12], eax
	fxch	ST(1)
	fldcw	WORD PTR tv145[esp+12]
	fistp	QWORD PTR tv143[esp+12]
	mov	edx, DWORD PTR tv143[esp+12]
	mov	DWORD PTR [ecx+24], edx
	fldcw	WORD PTR tv150[esp+12]

; 2423 : 	m_nLoRehashThreshold = size_t( m_fLoThreshold*m_nBins );

	fmul	DWORD PTR [ecx+16]
	fnstcw	WORD PTR tv141[esp+12]
	movzx	eax, WORD PTR tv141[esp+12]
	or	eax, 3072				; 00000c00H
	mov	DWORD PTR tv138[esp+12], eax
	fldcw	WORD PTR tv138[esp+12]
	fistp	QWORD PTR tv136[esp+12]
	mov	eax, DWORD PTR tv136[esp+12]
	mov	DWORD PTR [ecx+28], eax
	fldcw	WORD PTR tv141[esp+12]

; 2424 : 	if( m_nLoRehashThreshold < 17 )

	cmp	eax, 17					; 00000011H
	jae	SHORT $LN1@UpdateReha@2

; 2425 : 	{
; 2426 : 		m_nLoRehashThreshold = 0;

	mov	DWORD PTR [ecx+28], 0
$LN1@UpdateReha@2:

; 2427 : 	}
; 2428 : }

	add	esp, 12					; 0000000cH
	ret	0
?UpdateRehashThresholds@?$CAtlMap@V?$CStringT@_WV?$StrTraitMFC@_WV?$ChTraitsCRT@_W@ATL@@@@@ATL@@VSubRect@ssf@@V?$CStringElementTraits@V?$CStringT@_WV?$StrTraitMFC@_WV?$ChTraitsCRT@_W@ATL@@@@@ATL@@@2@V?$CElementTraits@VSubRect@ssf@@@2@@ATL@@AAEXXZ ENDP ; ATL::CAtlMap<ATL::CStringT<wchar_t,StrTraitMFC<wchar_t,ATL::ChTraitsCRT<wchar_t> > >,ssf::SubRect,ATL::CStringElementTraits<ATL::CStringT<wchar_t,StrTraitMFC<wchar_t,ATL::ChTraitsCRT<wchar_t> > > >,ATL::CElementTraits<ssf::SubRect> >::UpdateRehashThresholds
; Function compile flags: /Ogtpy
_TEXT	ENDS
;	COMDAT ?UpdateRehashThresholds@?$CAtlMap@V?$CStringT@_WV?$StrTraitMFC@_WV?$ChTraitsCRT@_W@ATL@@@@@ATL@@PAVRenderedSubtitle@ssf@@V?$CStringElementTraits@V?$CStringT@_WV?$StrTraitMFC@_WV?$ChTraitsCRT@_W@ATL@@@@@ATL@@@2@V?$CElementTraits@PAVRenderedSubtitle@ssf@@@2@@ATL@@AAEXXZ
_TEXT	SEGMENT
tv150 = -12						; size = 2
tv141 = -12						; size = 2
tv131 = -12						; size = 4
tv153 = -8						; size = 4
tv145 = -8						; size = 4
tv143 = -8						; size = 8
tv138 = -8						; size = 4
tv136 = -8						; size = 8
?UpdateRehashThresholds@?$CAtlMap@V?$CStringT@_WV?$StrTraitMFC@_WV?$ChTraitsCRT@_W@ATL@@@@@ATL@@PAVRenderedSubtitle@ssf@@V?$CStringElementTraits@V?$CStringT@_WV?$StrTraitMFC@_WV?$ChTraitsCRT@_W@ATL@@@@@ATL@@@2@V?$CElementTraits@PAVRenderedSubtitle@ssf@@@2@@ATL@@AAEXXZ PROC ; ATL::CAtlMap<ATL::CStringT<wchar_t,StrTraitMFC<wchar_t,ATL::ChTraitsCRT<wchar_t> > >,ssf::RenderedSubtitle *,ATL::CStringElementTraits<ATL::CStringT<wchar_t,StrTraitMFC<wchar_t,ATL::ChTraitsCRT<wchar_t> > > >,ATL::CElementTraits<ssf::RenderedSubtitle *> >::UpdateRehashThresholds, COMDAT
; _this$ = ecx

; 2422 : 	m_nHiRehashThreshold = size_t( m_fHiThreshold*m_nBins );

	mov	eax, DWORD PTR [ecx+8]
	fild	DWORD PTR [ecx+8]
	sub	esp, 12					; 0000000cH
	test	eax, eax
	jge	SHORT $LN4@UpdateReha@3
	fadd	DWORD PTR __real@4f800000
$LN4@UpdateReha@3:
	fstp	DWORD PTR tv131[esp+12]
	fld	DWORD PTR [ecx+20]
	fld	DWORD PTR tv131[esp+12]
	fnstcw	WORD PTR tv150[esp+12]
	movzx	eax, WORD PTR tv150[esp+12]
	fld	ST(0)
	or	eax, 3072				; 00000c00H
	fmulp	ST(2), ST(0)
	mov	DWORD PTR tv145[esp+12], eax
	fxch	ST(1)
	fldcw	WORD PTR tv145[esp+12]
	fistp	QWORD PTR tv143[esp+12]
	mov	edx, DWORD PTR tv143[esp+12]
	mov	DWORD PTR [ecx+24], edx
	fldcw	WORD PTR tv150[esp+12]

; 2423 : 	m_nLoRehashThreshold = size_t( m_fLoThreshold*m_nBins );

	fmul	DWORD PTR [ecx+16]
	fnstcw	WORD PTR tv141[esp+12]
	movzx	eax, WORD PTR tv141[esp+12]
	or	eax, 3072				; 00000c00H
	mov	DWORD PTR tv138[esp+12], eax
	fldcw	WORD PTR tv138[esp+12]
	fistp	QWORD PTR tv136[esp+12]
	mov	eax, DWORD PTR tv136[esp+12]
	mov	DWORD PTR [ecx+28], eax
	fldcw	WORD PTR tv141[esp+12]

; 2424 : 	if( m_nLoRehashThreshold < 17 )

	cmp	eax, 17					; 00000011H
	jae	SHORT $LN1@UpdateReha@3

; 2425 : 	{
; 2426 : 		m_nLoRehashThreshold = 0;

	mov	DWORD PTR [ecx+28], 0
$LN1@UpdateReha@3:

; 2427 : 	}
; 2428 : }

	add	esp, 12					; 0000000cH
	ret	0
?UpdateRehashThresholds@?$CAtlMap@V?$CStringT@_WV?$StrTraitMFC@_WV?$ChTraitsCRT@_W@ATL@@@@@ATL@@PAVRenderedSubtitle@ssf@@V?$CStringElementTraits@V?$CStringT@_WV?$StrTraitMFC@_WV?$ChTraitsCRT@_W@ATL@@@@@ATL@@@2@V?$CElementTraits@PAVRenderedSubtitle@ssf@@@2@@ATL@@AAEXXZ ENDP ; ATL::CAtlMap<ATL::CStringT<wchar_t,StrTraitMFC<wchar_t,ATL::ChTraitsCRT<wchar_t> > >,ssf::RenderedSubtitle *,ATL::CStringElementTraits<ATL::CStringT<wchar_t,StrTraitMFC<wchar_t,ATL::ChTraitsCRT<wchar_t> > > >,ATL::CElementTraits<ssf::RenderedSubtitle *> >::UpdateRehashThresholds
; Function compile flags: /Ogtpy
_TEXT	ENDS
;	COMDAT ?UpdateRehashThresholds@?$CAtlMap@V?$CStringT@_WV?$StrTraitMFC@_WV?$ChTraitsCRT@_W@ATL@@@@@ATL@@PAVGlyphPath@ssf@@V?$CStringElementTraits@V?$CStringT@_WV?$StrTraitMFC@_WV?$ChTraitsCRT@_W@ATL@@@@@ATL@@@2@V?$CElementTraits@PAVGlyphPath@ssf@@@2@@ATL@@AAEXXZ
_TEXT	SEGMENT
tv150 = -12						; size = 2
tv141 = -12						; size = 2
tv131 = -12						; size = 4
tv153 = -8						; size = 4
tv145 = -8						; size = 4
tv143 = -8						; size = 8
tv138 = -8						; size = 4
tv136 = -8						; size = 8
?UpdateRehashThresholds@?$CAtlMap@V?$CStringT@_WV?$StrTraitMFC@_WV?$ChTraitsCRT@_W@ATL@@@@@ATL@@PAVGlyphPath@ssf@@V?$CStringElementTraits@V?$CStringT@_WV?$StrTraitMFC@_WV?$ChTraitsCRT@_W@ATL@@@@@ATL@@@2@V?$CElementTraits@PAVGlyphPath@ssf@@@2@@ATL@@AAEXXZ PROC ; ATL::CAtlMap<ATL::CStringT<wchar_t,StrTraitMFC<wchar_t,ATL::ChTraitsCRT<wchar_t> > >,ssf::GlyphPath *,ATL::CStringElementTraits<ATL::CStringT<wchar_t,StrTraitMFC<wchar_t,ATL::ChTraitsCRT<wchar_t> > > >,ATL::CElementTraits<ssf::GlyphPath *> >::UpdateRehashThresholds, COMDAT
; _this$ = ecx

; 2422 : 	m_nHiRehashThreshold = size_t( m_fHiThreshold*m_nBins );

	mov	eax, DWORD PTR [ecx+8]
	fild	DWORD PTR [ecx+8]
	sub	esp, 12					; 0000000cH
	test	eax, eax
	jge	SHORT $LN4@UpdateReha@4
	fadd	DWORD PTR __real@4f800000
$LN4@UpdateReha@4:
	fstp	DWORD PTR tv131[esp+12]
	fld	DWORD PTR [ecx+20]
	fld	DWORD PTR tv131[esp+12]
	fnstcw	WORD PTR tv150[esp+12]
	movzx	eax, WORD PTR tv150[esp+12]
	fld	ST(0)
	or	eax, 3072				; 00000c00H
	fmulp	ST(2), ST(0)
	mov	DWORD PTR tv145[esp+12], eax
	fxch	ST(1)
	fldcw	WORD PTR tv145[esp+12]
	fistp	QWORD PTR tv143[esp+12]
	mov	edx, DWORD PTR tv143[esp+12]
	mov	DWORD PTR [ecx+24], edx
	fldcw	WORD PTR tv150[esp+12]

; 2423 : 	m_nLoRehashThreshold = size_t( m_fLoThreshold*m_nBins );

	fmul	DWORD PTR [ecx+16]
	fnstcw	WORD PTR tv141[esp+12]
	movzx	eax, WORD PTR tv141[esp+12]
	or	eax, 3072				; 00000c00H
	mov	DWORD PTR tv138[esp+12], eax
	fldcw	WORD PTR tv138[esp+12]
	fistp	QWORD PTR tv136[esp+12]
	mov	eax, DWORD PTR tv136[esp+12]
	mov	DWORD PTR [ecx+28], eax
	fldcw	WORD PTR tv141[esp+12]

; 2424 : 	if( m_nLoRehashThreshold < 17 )

	cmp	eax, 17					; 00000011H
	jae	SHORT $LN1@UpdateReha@4

; 2425 : 	{
; 2426 : 		m_nLoRehashThreshold = 0;

	mov	DWORD PTR [ecx+28], 0
$LN1@UpdateReha@4:

; 2427 : 	}
; 2428 : }

	add	esp, 12					; 0000000cH
	ret	0
?UpdateRehashThresholds@?$CAtlMap@V?$CStringT@_WV?$StrTraitMFC@_WV?$ChTraitsCRT@_W@ATL@@@@@ATL@@PAVGlyphPath@ssf@@V?$CStringElementTraits@V?$CStringT@_WV?$StrTraitMFC@_WV?$ChTraitsCRT@_W@ATL@@@@@ATL@@@2@V?$CElementTraits@PAVGlyphPath@ssf@@@2@@ATL@@AAEXXZ ENDP ; ATL::CAtlMap<ATL::CStringT<wchar_t,StrTraitMFC<wchar_t,ATL::ChTraitsCRT<wchar_t> > >,ssf::GlyphPath *,ATL::CStringElementTraits<ATL::CStringT<wchar_t,StrTraitMFC<wchar_t,ATL::ChTraitsCRT<wchar_t> > > >,ATL::CElementTraits<ssf::GlyphPath *> >::UpdateRehashThresholds
; Function compile flags: /Ogtpy
_TEXT	ENDS
;	COMDAT ?UpdateRehashThresholds@?$CAtlMap@V?$CStringT@_WV?$StrTraitMFC@_WV?$ChTraitsCRT@_W@ATL@@@@@ATL@@PAVFontWrapper@ssf@@V?$CStringElementTraits@V?$CStringT@_WV?$StrTraitMFC@_WV?$ChTraitsCRT@_W@ATL@@@@@ATL@@@2@V?$CElementTraits@PAVFontWrapper@ssf@@@2@@ATL@@AAEXXZ
_TEXT	SEGMENT
tv150 = -12						; size = 2
tv141 = -12						; size = 2
tv131 = -12						; size = 4
tv153 = -8						; size = 4
tv145 = -8						; size = 4
tv143 = -8						; size = 8
tv138 = -8						; size = 4
tv136 = -8						; size = 8
?UpdateRehashThresholds@?$CAtlMap@V?$CStringT@_WV?$StrTraitMFC@_WV?$ChTraitsCRT@_W@ATL@@@@@ATL@@PAVFontWrapper@ssf@@V?$CStringElementTraits@V?$CStringT@_WV?$StrTraitMFC@_WV?$ChTraitsCRT@_W@ATL@@@@@ATL@@@2@V?$CElementTraits@PAVFontWrapper@ssf@@@2@@ATL@@AAEXXZ PROC ; ATL::CAtlMap<ATL::CStringT<wchar_t,StrTraitMFC<wchar_t,ATL::ChTraitsCRT<wchar_t> > >,ssf::FontWrapper *,ATL::CStringElementTraits<ATL::CStringT<wchar_t,StrTraitMFC<wchar_t,ATL::ChTraitsCRT<wchar_t> > > >,ATL::CElementTraits<ssf::FontWrapper *> >::UpdateRehashThresholds, COMDAT
; _this$ = ecx

; 2422 : 	m_nHiRehashThreshold = size_t( m_fHiThreshold*m_nBins );

	mov	eax, DWORD PTR [ecx+8]
	fild	DWORD PTR [ecx+8]
	sub	esp, 12					; 0000000cH
	test	eax, eax
	jge	SHORT $LN4@UpdateReha@5
	fadd	DWORD PTR __real@4f800000
$LN4@UpdateReha@5:
	fstp	DWORD PTR tv131[esp+12]
	fld	DWORD PTR [ecx+20]
	fld	DWORD PTR tv131[esp+12]
	fnstcw	WORD PTR tv150[esp+12]
	movzx	eax, WORD PTR tv150[esp+12]
	fld	ST(0)
	or	eax, 3072				; 00000c00H
	fmulp	ST(2), ST(0)
	mov	DWORD PTR tv145[esp+12], eax
	fxch	ST(1)
	fldcw	WORD PTR tv145[esp+12]
	fistp	QWORD PTR tv143[esp+12]
	mov	edx, DWORD PTR tv143[esp+12]
	mov	DWORD PTR [ecx+24], edx
	fldcw	WORD PTR tv150[esp+12]

; 2423 : 	m_nLoRehashThreshold = size_t( m_fLoThreshold*m_nBins );

	fmul	DWORD PTR [ecx+16]
	fnstcw	WORD PTR tv141[esp+12]
	movzx	eax, WORD PTR tv141[esp+12]
	or	eax, 3072				; 00000c00H
	mov	DWORD PTR tv138[esp+12], eax
	fldcw	WORD PTR tv138[esp+12]
	fistp	QWORD PTR tv136[esp+12]
	mov	eax, DWORD PTR tv136[esp+12]
	mov	DWORD PTR [ecx+28], eax
	fldcw	WORD PTR tv141[esp+12]

; 2424 : 	if( m_nLoRehashThreshold < 17 )

	cmp	eax, 17					; 00000011H
	jae	SHORT $LN1@UpdateReha@5

; 2425 : 	{
; 2426 : 		m_nLoRehashThreshold = 0;

	mov	DWORD PTR [ecx+28], 0
$LN1@UpdateReha@5:

; 2427 : 	}
; 2428 : }

	add	esp, 12					; 0000000cH
	ret	0
?UpdateRehashThresholds@?$CAtlMap@V?$CStringT@_WV?$StrTraitMFC@_WV?$ChTraitsCRT@_W@ATL@@@@@ATL@@PAVFontWrapper@ssf@@V?$CStringElementTraits@V?$CStringT@_WV?$StrTraitMFC@_WV?$ChTraitsCRT@_W@ATL@@@@@ATL@@@2@V?$CElementTraits@PAVFontWrapper@ssf@@@2@@ATL@@AAEXXZ ENDP ; ATL::CAtlMap<ATL::CStringT<wchar_t,StrTraitMFC<wchar_t,ATL::ChTraitsCRT<wchar_t> > >,ssf::FontWrapper *,ATL::CStringElementTraits<ATL::CStringT<wchar_t,StrTraitMFC<wchar_t,ATL::ChTraitsCRT<wchar_t> > > >,ATL::CElementTraits<ssf::FontWrapper *> >::UpdateRehashThresholds
; Function compile flags: /Ogtpy
; File c:\program files (x86)\microsoft visual studio 9.0\vc\atlmfc\include\atlbase.h
_TEXT	ENDS
;	COMDAT ?Detach@?$CAutoPtr@VRow@ssf@@@ATL@@QAEPAVRow@ssf@@XZ
_TEXT	SEGMENT
?Detach@?$CAutoPtr@VRow@ssf@@@ATL@@QAEPAVRow@ssf@@XZ PROC ; ATL::CAutoPtr<ssf::Row>::Detach, COMDAT
; _this$ = ecx

; 809  : 		T* p;
; 810  : 
; 811  : 		p = m_p;

	mov	eax, DWORD PTR [ecx]

; 812  : 		m_p = NULL;

	mov	DWORD PTR [ecx], 0

; 813  : 
; 814  : 		return( p );
; 815  : 	}

	ret	0
?Detach@?$CAutoPtr@VRow@ssf@@@ATL@@QAEPAVRow@ssf@@XZ ENDP ; ATL::CAutoPtr<ssf::Row>::Detach
; Function compile flags: /Ogtpy
_TEXT	ENDS
;	COMDAT ??0?$CAutoPtr@VRow@ssf@@@ATL@@QAE@AAV01@@Z
_TEXT	SEGMENT
??0?$CAutoPtr@VRow@ssf@@@ATL@@QAE@AAV01@@Z PROC		; ATL::CAutoPtr<ssf::Row>::CAutoPtr<ssf::Row>, COMDAT
; _this$ = eax
; _p$ = ecx

; 717  : 	{
; 718  : 		m_p = p.Detach();  // Transfer ownership

	mov	edx, DWORD PTR [ecx]
	mov	DWORD PTR [ecx], 0
	mov	DWORD PTR [eax], edx

; 719  : 	}

	ret	0
??0?$CAutoPtr@VRow@ssf@@@ATL@@QAE@AAV01@@Z ENDP		; ATL::CAutoPtr<ssf::Row>::CAutoPtr<ssf::Row>
; Function compile flags: /Ogtpy
; File c:\program files (x86)\microsoft visual studio 9.0\vc\atlmfc\include\atlcoll.h
_TEXT	ENDS
;	COMDAT ??1CNode@?$CAtlList@PAVGlyph@ssf@@V?$CElementTraits@PAVGlyph@ssf@@@ATL@@@ATL@@QAE@XZ
_TEXT	SEGMENT
??1CNode@?$CAtlList@PAVGlyph@ssf@@V?$CElementTraits@PAVGlyph@ssf@@@ATL@@@ATL@@QAE@XZ PROC ; ATL::CAtlList<ssf::Glyph *,ATL::CElementTraits<ssf::Glyph *> >::CNode::~CNode, COMDAT

; 1109 : 		}

	ret	0
??1CNode@?$CAtlList@PAVGlyph@ssf@@V?$CElementTraits@PAVGlyph@ssf@@@ATL@@@ATL@@QAE@XZ ENDP ; ATL::CAtlList<ssf::Glyph *,ATL::CElementTraits<ssf::Glyph *> >::CNode::~CNode
; Function compile flags: /Ogtpy
_TEXT	ENDS
;	COMDAT ??0CNode@?$CAtlList@PAVGlyph@ssf@@V?$CElementTraits@PAVGlyph@ssf@@@ATL@@@ATL@@QAE@ABQAVGlyph@ssf@@@Z
_TEXT	SEGMENT
??0CNode@?$CAtlList@PAVGlyph@ssf@@V?$CElementTraits@PAVGlyph@ssf@@@ATL@@@ATL@@QAE@ABQAVGlyph@ssf@@@Z PROC ; ATL::CAtlList<ssf::Glyph *,ATL::CElementTraits<ssf::Glyph *> >::CNode::CNode, COMDAT
; _this$ = eax
; _element$ = ecx

; 1105 : 		{

	mov	edx, DWORD PTR [ecx]
	mov	DWORD PTR [eax+8], edx

; 1106 : 		}

	ret	0
??0CNode@?$CAtlList@PAVGlyph@ssf@@V?$CElementTraits@PAVGlyph@ssf@@@ATL@@@ATL@@QAE@ABQAVGlyph@ssf@@@Z ENDP ; ATL::CAtlList<ssf::Glyph *,ATL::CElementTraits<ssf::Glyph *> >::CNode::CNode
; Function compile flags: /Ogtpy
_TEXT	ENDS
;	COMDAT ?GetHash@CNode@?$CAtlMap@V?$CStringT@_WV?$StrTraitMFC@_WV?$ChTraitsCRT@_W@ATL@@@@@ATL@@_NV?$CStringElementTraits@V?$CStringT@_WV?$StrTraitMFC@_WV?$ChTraitsCRT@_W@ATL@@@@@ATL@@@2@V?$CElementTraits@_N@2@@ATL@@QBEIXZ
_TEXT	SEGMENT
?GetHash@CNode@?$CAtlMap@V?$CStringT@_WV?$StrTraitMFC@_WV?$ChTraitsCRT@_W@ATL@@@@@ATL@@_NV?$CStringElementTraits@V?$CStringT@_WV?$StrTraitMFC@_WV?$ChTraitsCRT@_W@ATL@@@@@ATL@@@2@V?$CElementTraits@_N@2@@ATL@@QBEIXZ PROC ; ATL::CAtlMap<ATL::CStringT<wchar_t,StrTraitMFC<wchar_t,ATL::ChTraitsCRT<wchar_t> > >,bool,ATL::CStringElementTraits<ATL::CStringT<wchar_t,StrTraitMFC<wchar_t,ATL::ChTraitsCRT<wchar_t> > > >,ATL::CElementTraits<bool> >::CNode::GetHash, COMDAT
; _this$ = ecx

; 2022 : 			return( m_nHash );

	mov	eax, DWORD PTR [ecx+12]

; 2023 : 		}

	ret	0
?GetHash@CNode@?$CAtlMap@V?$CStringT@_WV?$StrTraitMFC@_WV?$ChTraitsCRT@_W@ATL@@@@@ATL@@_NV?$CStringElementTraits@V?$CStringT@_WV?$StrTraitMFC@_WV?$ChTraitsCRT@_W@ATL@@@@@ATL@@@2@V?$CElementTraits@_N@2@@ATL@@QBEIXZ ENDP ; ATL::CAtlMap<ATL::CStringT<wchar_t,StrTraitMFC<wchar_t,ATL::ChTraitsCRT<wchar_t> > >,bool,ATL::CStringElementTraits<ATL::CStringT<wchar_t,StrTraitMFC<wchar_t,ATL::ChTraitsCRT<wchar_t> > > >,ATL::CElementTraits<bool> >::CNode::GetHash
; Function compile flags: /Ogtpy
_TEXT	ENDS
;	COMDAT ?GetHash@CNode@?$CAtlMap@V?$CStringT@_WV?$StrTraitMFC@_WV?$ChTraitsCRT@_W@ATL@@@@@ATL@@PAVRenderedSubtitle@ssf@@V?$CStringElementTraits@V?$CStringT@_WV?$StrTraitMFC@_WV?$ChTraitsCRT@_W@ATL@@@@@ATL@@@2@V?$CElementTraits@PAVRenderedSubtitle@ssf@@@2@@ATL@@QBEIXZ
_TEXT	SEGMENT
?GetHash@CNode@?$CAtlMap@V?$CStringT@_WV?$StrTraitMFC@_WV?$ChTraitsCRT@_W@ATL@@@@@ATL@@PAVRenderedSubtitle@ssf@@V?$CStringElementTraits@V?$CStringT@_WV?$StrTraitMFC@_WV?$ChTraitsCRT@_W@ATL@@@@@ATL@@@2@V?$CElementTraits@PAVRenderedSubtitle@ssf@@@2@@ATL@@QBEIXZ PROC ; ATL::CAtlMap<ATL::CStringT<wchar_t,StrTraitMFC<wchar_t,ATL::ChTraitsCRT<wchar_t> > >,ssf::RenderedSubtitle *,ATL::CStringElementTraits<ATL::CStringT<wchar_t,StrTraitMFC<wchar_t,ATL::ChTraitsCRT<wchar_t> > > >,ATL::CElementTraits<ssf::RenderedSubtitle *> >::CNode::GetHash, COMDAT
; _this$ = eax

; 2022 : 			return( m_nHash );

	mov	eax, DWORD PTR [eax+12]

; 2023 : 		}

	ret	0
?GetHash@CNode@?$CAtlMap@V?$CStringT@_WV?$StrTraitMFC@_WV?$ChTraitsCRT@_W@ATL@@@@@ATL@@PAVRenderedSubtitle@ssf@@V?$CStringElementTraits@V?$CStringT@_WV?$StrTraitMFC@_WV?$ChTraitsCRT@_W@ATL@@@@@ATL@@@2@V?$CElementTraits@PAVRenderedSubtitle@ssf@@@2@@ATL@@QBEIXZ ENDP ; ATL::CAtlMap<ATL::CStringT<wchar_t,StrTraitMFC<wchar_t,ATL::ChTraitsCRT<wchar_t> > >,ssf::RenderedSubtitle *,ATL::CStringElementTraits<ATL::CStringT<wchar_t,StrTraitMFC<wchar_t,ATL::ChTraitsCRT<wchar_t> > > >,ATL::CElementTraits<ssf::RenderedSubtitle *> >::CNode::GetHash
; Function compile flags: /Ogtpy
_TEXT	ENDS
;	COMDAT ?GetHash@CNode@?$CAtlMap@V?$CStringT@_WV?$StrTraitMFC@_WV?$ChTraitsCRT@_W@ATL@@@@@ATL@@PAVGlyphPath@ssf@@V?$CStringElementTraits@V?$CStringT@_WV?$StrTraitMFC@_WV?$ChTraitsCRT@_W@ATL@@@@@ATL@@@2@V?$CElementTraits@PAVGlyphPath@ssf@@@2@@ATL@@QBEIXZ
_TEXT	SEGMENT
?GetHash@CNode@?$CAtlMap@V?$CStringT@_WV?$StrTraitMFC@_WV?$ChTraitsCRT@_W@ATL@@@@@ATL@@PAVGlyphPath@ssf@@V?$CStringElementTraits@V?$CStringT@_WV?$StrTraitMFC@_WV?$ChTraitsCRT@_W@ATL@@@@@ATL@@@2@V?$CElementTraits@PAVGlyphPath@ssf@@@2@@ATL@@QBEIXZ PROC ; ATL::CAtlMap<ATL::CStringT<wchar_t,StrTraitMFC<wchar_t,ATL::ChTraitsCRT<wchar_t> > >,ssf::GlyphPath *,ATL::CStringElementTraits<ATL::CStringT<wchar_t,StrTraitMFC<wchar_t,ATL::ChTraitsCRT<wchar_t> > > >,ATL::CElementTraits<ssf::GlyphPath *> >::CNode::GetHash, COMDAT
; _this$ = eax

; 2022 : 			return( m_nHash );

	mov	eax, DWORD PTR [eax+12]

; 2023 : 		}

	ret	0
?GetHash@CNode@?$CAtlMap@V?$CStringT@_WV?$StrTraitMFC@_WV?$ChTraitsCRT@_W@ATL@@@@@ATL@@PAVGlyphPath@ssf@@V?$CStringElementTraits@V?$CStringT@_WV?$StrTraitMFC@_WV?$ChTraitsCRT@_W@ATL@@@@@ATL@@@2@V?$CElementTraits@PAVGlyphPath@ssf@@@2@@ATL@@QBEIXZ ENDP ; ATL::CAtlMap<ATL::CStringT<wchar_t,StrTraitMFC<wchar_t,ATL::ChTraitsCRT<wchar_t> > >,ssf::GlyphPath *,ATL::CStringElementTraits<ATL::CStringT<wchar_t,StrTraitMFC<wchar_t,ATL::ChTraitsCRT<wchar_t> > > >,ATL::CElementTraits<ssf::GlyphPath *> >::CNode::GetHash
; Function compile flags: /Ogtpy
_TEXT	ENDS
;	COMDAT ?GetHash@CNode@?$CAtlMap@V?$CStringT@_WV?$StrTraitMFC@_WV?$ChTraitsCRT@_W@ATL@@@@@ATL@@PAVFontWrapper@ssf@@V?$CStringElementTraits@V?$CStringT@_WV?$StrTraitMFC@_WV?$ChTraitsCRT@_W@ATL@@@@@ATL@@@2@V?$CElementTraits@PAVFontWrapper@ssf@@@2@@ATL@@QBEIXZ
_TEXT	SEGMENT
?GetHash@CNode@?$CAtlMap@V?$CStringT@_WV?$StrTraitMFC@_WV?$ChTraitsCRT@_W@ATL@@@@@ATL@@PAVFontWrapper@ssf@@V?$CStringElementTraits@V?$CStringT@_WV?$StrTraitMFC@_WV?$ChTraitsCRT@_W@ATL@@@@@ATL@@@2@V?$CElementTraits@PAVFontWrapper@ssf@@@2@@ATL@@QBEIXZ PROC ; ATL::CAtlMap<ATL::CStringT<wchar_t,StrTraitMFC<wchar_t,ATL::ChTraitsCRT<wchar_t> > >,ssf::FontWrapper *,ATL::CStringElementTraits<ATL::CStringT<wchar_t,StrTraitMFC<wchar_t,ATL::ChTraitsCRT<wchar_t> > > >,ATL::CElementTraits<ssf::FontWrapper *> >::CNode::GetHash, COMDAT
; _this$ = eax

; 2022 : 			return( m_nHash );

	mov	eax, DWORD PTR [eax+12]

; 2023 : 		}

	ret	0
?GetHash@CNode@?$CAtlMap@V?$CStringT@_WV?$StrTraitMFC@_WV?$ChTraitsCRT@_W@ATL@@@@@ATL@@PAVFontWrapper@ssf@@V?$CStringElementTraits@V?$CStringT@_WV?$StrTraitMFC@_WV?$ChTraitsCRT@_W@ATL@@@@@ATL@@@2@V?$CElementTraits@PAVFontWrapper@ssf@@@2@@ATL@@QBEIXZ ENDP ; ATL::CAtlMap<ATL::CStringT<wchar_t,StrTraitMFC<wchar_t,ATL::ChTraitsCRT<wchar_t> > >,ssf::FontWrapper *,ATL::CStringElementTraits<ATL::CStringT<wchar_t,StrTraitMFC<wchar_t,ATL::ChTraitsCRT<wchar_t> > > >,ATL::CElementTraits<ssf::FontWrapper *> >::CNode::GetHash
; Function compile flags: /Ogtpy
_TEXT	ENDS
;	COMDAT ??_GCNode@?$CAtlList@PAVGlyph@ssf@@V?$CElementTraits@PAVGlyph@ssf@@@ATL@@@ATL@@QAEPAXI@Z
_TEXT	SEGMENT
??_GCNode@?$CAtlList@PAVGlyph@ssf@@V?$CElementTraits@PAVGlyph@ssf@@@ATL@@@ATL@@QAEPAXI@Z PROC ; ATL::CAtlList<ssf::Glyph *,ATL::CElementTraits<ssf::Glyph *> >::CNode::`scalar deleting destructor', COMDAT
; _this$ = eax
	ret	0
??_GCNode@?$CAtlList@PAVGlyph@ssf@@V?$CElementTraits@PAVGlyph@ssf@@@ATL@@@ATL@@QAEPAXI@Z ENDP ; ATL::CAtlList<ssf::Glyph *,ATL::CElementTraits<ssf::Glyph *> >::CNode::`scalar deleting destructor'
; Function compile flags: /Ogtpy
_TEXT	ENDS
;	COMDAT ?PickSize@?$CAtlMap@V?$CStringT@_WV?$StrTraitMFC@_WV?$ChTraitsCRT@_W@ATL@@@@@ATL@@VSubRect@ssf@@V?$CStringElementTraits@V?$CStringT@_WV?$StrTraitMFC@_WV?$ChTraitsCRT@_W@ATL@@@@@ATL@@@2@V?$CElementTraits@VSubRect@ssf@@@2@@ATL@@ABEII@Z
_TEXT	SEGMENT
tv200 = -10						; size = 2
tv202 = -8						; size = 4
tv197 = -8						; size = 4
tv195 = -8						; size = 8
?PickSize@?$CAtlMap@V?$CStringT@_WV?$StrTraitMFC@_WV?$ChTraitsCRT@_W@ATL@@@@@ATL@@VSubRect@ssf@@V?$CStringElementTraits@V?$CStringT@_WV?$StrTraitMFC@_WV?$ChTraitsCRT@_W@ATL@@@@@ATL@@@2@V?$CElementTraits@VSubRect@ssf@@@2@@ATL@@ABEII@Z PROC ; ATL::CAtlMap<ATL::CStringT<wchar_t,StrTraitMFC<wchar_t,ATL::ChTraitsCRT<wchar_t> > >,ssf::SubRect,ATL::CStringElementTraits<ATL::CStringT<wchar_t,StrTraitMFC<wchar_t,ATL::ChTraitsCRT<wchar_t> > > >,ATL::CElementTraits<ssf::SubRect> >::PickSize, COMDAT
; _this$ = ecx
; _nElements$ = eax

; 2262 : {

	sub	esp, 12					; 0000000cH

; 2263 : 	// List of primes such that s_anPrimes[i] is the smallest prime greater than 2^(5+i/3)
; 2264 : 	static const UINT s_anPrimes[] =
; 2265 : 	{
; 2266 : 		17, 23, 29, 37, 41, 53, 67, 83, 103, 131, 163, 211, 257, 331, 409, 521, 647, 821, 
; 2267 : 		1031, 1291, 1627, 2053, 2591, 3251, 4099, 5167, 6521, 8209, 10331, 
; 2268 : 		13007, 16411, 20663, 26017, 32771, 41299, 52021, 65537, 82571, 104033, 
; 2269 : 		131101, 165161, 208067, 262147, 330287, 416147, 524309, 660563, 
; 2270 : 		832291, 1048583, 1321139, 1664543, 2097169, 2642257, 3329023, 4194319, 
; 2271 : 		5284493, 6658049, 8388617, 10568993, 13316089, UINT_MAX
; 2272 : 	};
; 2273 : 
; 2274 : 	size_t nBins = (size_t)(nElements/m_fOptimalLoad);

	mov	DWORD PTR tv202[esp+12], eax
	fild	DWORD PTR tv202[esp+12]
	test	eax, eax
	jge	SHORT $LN11@PickSize@2
	fadd	DWORD PTR __real@4f800000
$LN11@PickSize@2:
	fdiv	DWORD PTR [ecx+12]
	fnstcw	WORD PTR tv200[esp+12]
	movzx	eax, WORD PTR tv200[esp+12]
	or	eax, 3072				; 00000c00H
	mov	DWORD PTR tv197[esp+12], eax
	fldcw	WORD PTR tv197[esp+12]
	fistp	QWORD PTR tv195[esp+12]
	mov	eax, DWORD PTR tv195[esp+12]
	fldcw	WORD PTR tv200[esp+12]

; 2275 : 	UINT nBinsEstimate = UINT(  UINT_MAX < nBins ? UINT_MAX : nBins );

	cmp	eax, -1
	jbe	SHORT $LN7@PickSize@2
	or	eax, -1
$LN7@PickSize@2:

; 2276 : 
; 2277 : 	// Find the smallest prime greater than our estimate
; 2278 : 	int iPrime = 0;

	xor	ecx, ecx

; 2279 : 	while( nBinsEstimate > s_anPrimes[iPrime] )

	cmp	eax, 17					; 00000011H
	jbe	SHORT $LN3@PickSize@2
	npad	7
$LL4@PickSize@2:

; 2280 : 	{
; 2281 : 		iPrime++;

	inc	ecx
	cmp	eax, DWORD PTR ?s_anPrimes@?1??PickSize@?$CAtlMap@V?$CStringT@_WV?$StrTraitMFC@_WV?$ChTraitsCRT@_W@ATL@@@@@ATL@@VSubRect@ssf@@V?$CStringElementTraits@V?$CStringT@_WV?$StrTraitMFC@_WV?$ChTraitsCRT@_W@ATL@@@@@ATL@@@2@V?$CElementTraits@VSubRect@ssf@@@2@@ATL@@ABEII@Z@4QBIB[ecx*4]
	ja	SHORT $LL4@PickSize@2
$LN3@PickSize@2:

; 2282 : 	}
; 2283 : 
; 2284 : 	if( s_anPrimes[iPrime] == UINT_MAX )

	mov	ecx, DWORD PTR ?s_anPrimes@?1??PickSize@?$CAtlMap@V?$CStringT@_WV?$StrTraitMFC@_WV?$ChTraitsCRT@_W@ATL@@@@@ATL@@VSubRect@ssf@@V?$CStringElementTraits@V?$CStringT@_WV?$StrTraitMFC@_WV?$ChTraitsCRT@_W@ATL@@@@@ATL@@@2@V?$CElementTraits@VSubRect@ssf@@@2@@ATL@@ABEII@Z@4QBIB[ecx*4]
	cmp	ecx, -1

; 2285 : 	{
; 2286 : 		return( nBinsEstimate );

	je	SHORT $LN1@PickSize@2

; 2287 : 	}
; 2288 : 	else
; 2289 : 	{
; 2290 : 		return( s_anPrimes[iPrime] );

	mov	eax, ecx
$LN1@PickSize@2:

; 2291 : 	}
; 2292 : }

	add	esp, 12					; 0000000cH
	ret	0
?PickSize@?$CAtlMap@V?$CStringT@_WV?$StrTraitMFC@_WV?$ChTraitsCRT@_W@ATL@@@@@ATL@@VSubRect@ssf@@V?$CStringElementTraits@V?$CStringT@_WV?$StrTraitMFC@_WV?$ChTraitsCRT@_W@ATL@@@@@ATL@@@2@V?$CElementTraits@VSubRect@ssf@@@2@@ATL@@ABEII@Z ENDP ; ATL::CAtlMap<ATL::CStringT<wchar_t,StrTraitMFC<wchar_t,ATL::ChTraitsCRT<wchar_t> > >,ssf::SubRect,ATL::CStringElementTraits<ATL::CStringT<wchar_t,StrTraitMFC<wchar_t,ATL::ChTraitsCRT<wchar_t> > > >,ATL::CElementTraits<ssf::SubRect> >::PickSize
; Function compile flags: /Ogtpy
_TEXT	ENDS
;	COMDAT ?IsLocked@?$CAtlMap@V?$CStringT@_WV?$StrTraitMFC@_WV?$ChTraitsCRT@_W@ATL@@@@@ATL@@VSubRect@ssf@@V?$CStringElementTraits@V?$CStringT@_WV?$StrTraitMFC@_WV?$ChTraitsCRT@_W@ATL@@@@@ATL@@@2@V?$CElementTraits@VSubRect@ssf@@@2@@ATL@@ABE_NXZ
_TEXT	SEGMENT
?IsLocked@?$CAtlMap@V?$CStringT@_WV?$StrTraitMFC@_WV?$ChTraitsCRT@_W@ATL@@@@@ATL@@VSubRect@ssf@@V?$CStringElementTraits@V?$CStringT@_WV?$StrTraitMFC@_WV?$ChTraitsCRT@_W@ATL@@@@@ATL@@@2@V?$CElementTraits@VSubRect@ssf@@@2@@ATL@@ABE_NXZ PROC ; ATL::CAtlMap<ATL::CStringT<wchar_t,StrTraitMFC<wchar_t,ATL::ChTraitsCRT<wchar_t> > >,ssf::SubRect,ATL::CStringElementTraits<ATL::CStringT<wchar_t,StrTraitMFC<wchar_t,ATL::ChTraitsCRT<wchar_t> > > >,ATL::CElementTraits<ssf::SubRect> >::IsLocked, COMDAT
; _this$ = ecx

; 2257 : 	return( m_nLockCount != 0 );

	xor	eax, eax
	cmp	DWORD PTR [ecx+32], eax
	setne	al

; 2258 : }

	ret	0
?IsLocked@?$CAtlMap@V?$CStringT@_WV?$StrTraitMFC@_WV?$ChTraitsCRT@_W@ATL@@@@@ATL@@VSubRect@ssf@@V?$CStringElementTraits@V?$CStringT@_WV?$StrTraitMFC@_WV?$ChTraitsCRT@_W@ATL@@@@@ATL@@@2@V?$CElementTraits@VSubRect@ssf@@@2@@ATL@@ABE_NXZ ENDP ; ATL::CAtlMap<ATL::CStringT<wchar_t,StrTraitMFC<wchar_t,ATL::ChTraitsCRT<wchar_t> > >,ssf::SubRect,ATL::CStringElementTraits<ATL::CStringT<wchar_t,StrTraitMFC<wchar_t,ATL::ChTraitsCRT<wchar_t> > > >,ATL::CElementTraits<ssf::SubRect> >::IsLocked
; Function compile flags: /Ogtpy
_TEXT	ENDS
;	COMDAT ?DisableAutoRehash@?$CAtlMap@V?$CStringT@_WV?$StrTraitMFC@_WV?$ChTraitsCRT@_W@ATL@@@@@ATL@@VSubRect@ssf@@V?$CStringElementTraits@V?$CStringT@_WV?$StrTraitMFC@_WV?$ChTraitsCRT@_W@ATL@@@@@ATL@@@2@V?$CElementTraits@VSubRect@ssf@@@2@@ATL@@QAEXXZ
_TEXT	SEGMENT
?DisableAutoRehash@?$CAtlMap@V?$CStringT@_WV?$StrTraitMFC@_WV?$ChTraitsCRT@_W@ATL@@@@@ATL@@VSubRect@ssf@@V?$CStringElementTraits@V?$CStringT@_WV?$StrTraitMFC@_WV?$ChTraitsCRT@_W@ATL@@@@@ATL@@@2@V?$CElementTraits@VSubRect@ssf@@@2@@ATL@@QAEXXZ PROC ; ATL::CAtlMap<ATL::CStringT<wchar_t,StrTraitMFC<wchar_t,ATL::ChTraitsCRT<wchar_t> > >,ssf::SubRect,ATL::CStringElementTraits<ATL::CStringT<wchar_t,StrTraitMFC<wchar_t,ATL::ChTraitsCRT<wchar_t> > > >,ATL::CElementTraits<ssf::SubRect> >::DisableAutoRehash, COMDAT
; _this$ = eax

; 2244 : 	m_nLockCount++;

	inc	DWORD PTR [eax+32]

; 2245 : }

	ret	0
?DisableAutoRehash@?$CAtlMap@V?$CStringT@_WV?$StrTraitMFC@_WV?$ChTraitsCRT@_W@ATL@@@@@ATL@@VSubRect@ssf@@V?$CStringElementTraits@V?$CStringT@_WV?$StrTraitMFC@_WV?$ChTraitsCRT@_W@ATL@@@@@ATL@@@2@V?$CElementTraits@VSubRect@ssf@@@2@@ATL@@QAEXXZ ENDP ; ATL::CAtlMap<ATL::CStringT<wchar_t,StrTraitMFC<wchar_t,ATL::ChTraitsCRT<wchar_t> > >,ssf::SubRect,ATL::CStringElementTraits<ATL::CStringT<wchar_t,StrTraitMFC<wchar_t,ATL::ChTraitsCRT<wchar_t> > > >,ATL::CElementTraits<ssf::SubRect> >::DisableAutoRehash
; Function compile flags: /Ogtpy
_TEXT	ENDS
;	COMDAT ?EnableAutoRehash@?$CAtlMap@V?$CStringT@_WV?$StrTraitMFC@_WV?$ChTraitsCRT@_W@ATL@@@@@ATL@@VSubRect@ssf@@V?$CStringElementTraits@V?$CStringT@_WV?$StrTraitMFC@_WV?$ChTraitsCRT@_W@ATL@@@@@ATL@@@2@V?$CElementTraits@VSubRect@ssf@@@2@@ATL@@QAEXXZ
_TEXT	SEGMENT
?EnableAutoRehash@?$CAtlMap@V?$CStringT@_WV?$StrTraitMFC@_WV?$ChTraitsCRT@_W@ATL@@@@@ATL@@VSubRect@ssf@@V?$CStringElementTraits@V?$CStringT@_WV?$StrTraitMFC@_WV?$ChTraitsCRT@_W@ATL@@@@@ATL@@@2@V?$CElementTraits@VSubRect@ssf@@@2@@ATL@@QAEXXZ PROC ; ATL::CAtlMap<ATL::CStringT<wchar_t,StrTraitMFC<wchar_t,ATL::ChTraitsCRT<wchar_t> > >,ssf::SubRect,ATL::CStringElementTraits<ATL::CStringT<wchar_t,StrTraitMFC<wchar_t,ATL::ChTraitsCRT<wchar_t> > > >,ATL::CElementTraits<ssf::SubRect> >::EnableAutoRehash, COMDAT
; _this$ = eax

; 2250 : 	ATLASSUME( m_nLockCount > 0 );
; 2251 : 	m_nLockCount--;

	dec	DWORD PTR [eax+32]

; 2252 : }

	ret	0
?EnableAutoRehash@?$CAtlMap@V?$CStringT@_WV?$StrTraitMFC@_WV?$ChTraitsCRT@_W@ATL@@@@@ATL@@VSubRect@ssf@@V?$CStringElementTraits@V?$CStringT@_WV?$StrTraitMFC@_WV?$ChTraitsCRT@_W@ATL@@@@@ATL@@@2@V?$CElementTraits@VSubRect@ssf@@@2@@ATL@@QAEXXZ ENDP ; ATL::CAtlMap<ATL::CStringT<wchar_t,StrTraitMFC<wchar_t,ATL::ChTraitsCRT<wchar_t> > >,ssf::SubRect,ATL::CStringElementTraits<ATL::CStringT<wchar_t,StrTraitMFC<wchar_t,ATL::ChTraitsCRT<wchar_t> > > >,ATL::CElementTraits<ssf::SubRect> >::EnableAutoRehash
_TEXT	ENDS
;	COMDAT xdata$x
xdata$x	SEGMENT
__unwindtable$?InitHashTable@?$CAtlMap@V?$CStringT@_WV?$StrTraitMFC@_WV?$ChTraitsCRT@_W@ATL@@@@@ATL@@VSubRect@ssf@@V?$CStringElementTraits@V?$CStringT@_WV?$StrTraitMFC@_WV?$ChTraitsCRT@_W@ATL@@@@@ATL@@@2@V?$CElementTraits@VSubRect@ssf@@@2@@ATL@@QAE_NI_N@Z DD 0ffffffffH
	DD	00H
	DD	0ffffffffH
	DD	00H
__catchsym$?InitHashTable@?$CAtlMap@V?$CStringT@_WV?$StrTraitMFC@_WV?$ChTraitsCRT@_W@ATL@@@@@ATL@@VSubRect@ssf@@V?$CStringElementTraits@V?$CStringT@_WV?$StrTraitMFC@_WV?$ChTraitsCRT@_W@ATL@@@@@ATL@@@2@V?$CElementTraits@VSubRect@ssf@@@2@@ATL@@QAE_NI_N@Z$2 DD 00H
	DD	FLAT:??_R0PAVCException@@@8
	DD	0ffffffecH
	DD	FLAT:__catch$?InitHashTable@?$CAtlMap@V?$CStringT@_WV?$StrTraitMFC@_WV?$ChTraitsCRT@_W@ATL@@@@@ATL@@VSubRect@ssf@@V?$CStringElementTraits@V?$CStringT@_WV?$StrTraitMFC@_WV?$ChTraitsCRT@_W@ATL@@@@@ATL@@@2@V?$CElementTraits@VSubRect@ssf@@@2@@ATL@@QAE_NI_N@Z$0
__tryblocktable$?InitHashTable@?$CAtlMap@V?$CStringT@_WV?$StrTraitMFC@_WV?$ChTraitsCRT@_W@ATL@@@@@ATL@@VSubRect@ssf@@V?$CStringElementTraits@V?$CStringT@_WV?$StrTraitMFC@_WV?$ChTraitsCRT@_W@ATL@@@@@ATL@@@2@V?$CElementTraits@VSubRect@ssf@@@2@@ATL@@QAE_NI_N@Z DD 00H
	DD	00H
	DD	01H
	DD	01H
	DD	FLAT:__catchsym$?InitHashTable@?$CAtlMap@V?$CStringT@_WV?$StrTraitMFC@_WV?$ChTraitsCRT@_W@ATL@@@@@ATL@@VSubRect@ssf@@V?$CStringElementTraits@V?$CStringT@_WV?$StrTraitMFC@_WV?$ChTraitsCRT@_W@ATL@@@@@ATL@@@2@V?$CElementTraits@VSubRect@ssf@@@2@@ATL@@QAE_NI_N@Z$2
__ehfuncinfo$?InitHashTable@?$CAtlMap@V?$CStringT@_WV?$StrTraitMFC@_WV?$ChTraitsCRT@_W@ATL@@@@@ATL@@VSubRect@ssf@@V?$CStringElementTraits@V?$CStringT@_WV?$StrTraitMFC@_WV?$ChTraitsCRT@_W@ATL@@@@@ATL@@@2@V?$CElementTraits@VSubRect@ssf@@@2@@ATL@@QAE_NI_N@Z DD 019930522H
	DD	02H
	DD	FLAT:__unwindtable$?InitHashTable@?$CAtlMap@V?$CStringT@_WV?$StrTraitMFC@_WV?$ChTraitsCRT@_W@ATL@@@@@ATL@@VSubRect@ssf@@V?$CStringElementTraits@V?$CStringT@_WV?$StrTraitMFC@_WV?$ChTraitsCRT@_W@ATL@@@@@ATL@@@2@V?$CElementTraits@VSubRect@ssf@@@2@@ATL@@QAE_NI_N@Z
	DD	01H
	DD	FLAT:__tryblocktable$?InitHashTable@?$CAtlMap@V?$CStringT@_WV?$StrTraitMFC@_WV?$ChTraitsCRT@_W@ATL@@@@@ATL@@VSubRect@ssf@@V?$CStringElementTraits@V?$CStringT@_WV?$StrTraitMFC@_WV?$ChTraitsCRT@_W@ATL@@@@@ATL@@@2@V?$CElementTraits@VSubRect@ssf@@@2@@ATL@@QAE_NI_N@Z
	DD	2 DUP(00H)
	DD	00H
	DD	01H
; Function compile flags: /Ogtpy
xdata$x	ENDS
;	COMDAT ?InitHashTable@?$CAtlMap@V?$CStringT@_WV?$StrTraitMFC@_WV?$ChTraitsCRT@_W@ATL@@@@@ATL@@VSubRect@ssf@@V?$CStringElementTraits@V?$CStringT@_WV?$StrTraitMFC@_WV?$ChTraitsCRT@_W@ATL@@@@@ATL@@@2@V?$CElementTraits@VSubRect@ssf@@@2@@ATL@@QAE_NI_N@Z
_TEXT	SEGMENT
_e$130656 = -20						; size = 4
__$EHRec$ = -16						; size = 16
_this$ = 8						; size = 4
_nBins$ = 12						; size = 4
_bAllocNow$ = 16					; size = 1
?InitHashTable@?$CAtlMap@V?$CStringT@_WV?$StrTraitMFC@_WV?$ChTraitsCRT@_W@ATL@@@@@ATL@@VSubRect@ssf@@V?$CStringElementTraits@V?$CStringT@_WV?$StrTraitMFC@_WV?$ChTraitsCRT@_W@ATL@@@@@ATL@@@2@V?$CElementTraits@VSubRect@ssf@@@2@@ATL@@QAE_NI_N@Z PROC ; ATL::CAtlMap<ATL::CStringT<wchar_t,StrTraitMFC<wchar_t,ATL::ChTraitsCRT<wchar_t> > >,ssf::SubRect,ATL::CStringElementTraits<ATL::CStringT<wchar_t,StrTraitMFC<wchar_t,ATL::ChTraitsCRT<wchar_t> > > >,ATL::CElementTraits<ssf::SubRect> >::InitHashTable, COMDAT

; 2432 : {

	push	ebp
	mov	ebp, esp
	push	-1
	push	__ehhandler$?InitHashTable@?$CAtlMap@V?$CStringT@_WV?$StrTraitMFC@_WV?$ChTraitsCRT@_W@ATL@@@@@ATL@@VSubRect@ssf@@V?$CStringElementTraits@V?$CStringT@_WV?$StrTraitMFC@_WV?$ChTraitsCRT@_W@ATL@@@@@ATL@@@2@V?$CElementTraits@VSubRect@ssf@@@2@@ATL@@QAE_NI_N@Z
	mov	eax, DWORD PTR fs:0
	push	eax
	mov	DWORD PTR fs:0, esp
	sub	esp, 8
	push	ebx
	push	esi
	mov	esi, DWORD PTR _this$[ebp]

; 2433 : 	ATLASSUME( m_nElements == 0 );
; 2434 : 	ATLASSERT( nBins > 0 );
; 2435 : 
; 2436 : 	if( m_ppBins != NULL )

	mov	eax, DWORD PTR [esi]
	push	edi
	mov	edi, DWORD PTR _nBins$[ebp]
	mov	DWORD PTR __$EHRec$[ebp], esp
	test	eax, eax
	je	SHORT $LN4@InitHashTa@2

; 2437 : 	{
; 2438 : 		delete[] m_ppBins;

	push	eax
	call	??_V@YAXPAX@Z				; operator delete[]
	add	esp, 4

; 2439 : 		m_ppBins = NULL;

	mov	DWORD PTR [esi], 0
$LN4@InitHashTa@2:

; 2440 : 	}
; 2441 : 
; 2442 : 	if( bAllocNow )

	cmp	BYTE PTR _bAllocNow$[ebp], 0
	je	SHORT $LN3@InitHashTa@2

; 2443 : 	{
; 2444 : 		ATLTRY( m_ppBins = new CNode*[nBins] );

	xor	ecx, ecx
	mov	eax, edi
	mov	edx, 4
	mul	edx
	seto	cl
	mov	DWORD PTR __$EHRec$[ebp+12], 0
	neg	ecx
	or	ecx, eax
	push	ecx
	call	??_U@YAPAXI@Z				; operator new[]
	add	esp, 4
	mov	DWORD PTR [esi], eax
	jmp	SHORT $LN16@InitHashTa@2
__catch$?InitHashTable@?$CAtlMap@V?$CStringT@_WV?$StrTraitMFC@_WV?$ChTraitsCRT@_W@ATL@@@@@ATL@@VSubRect@ssf@@V?$CStringElementTraits@V?$CStringT@_WV?$StrTraitMFC@_WV?$ChTraitsCRT@_W@ATL@@@@@ATL@@@2@V?$CElementTraits@VSubRect@ssf@@@2@@ATL@@QAE_NI_N@Z$0:
	mov	ecx, DWORD PTR _e$130656[ebp]
	call	?Delete@CException@@QAEXXZ		; CException::Delete
	mov	eax, $LN18@InitHashTa@2
	ret	0
$LN18@InitHashTa@2:
	mov	esi, DWORD PTR _this$[ebp]
	mov	edi, DWORD PTR _nBins$[ebp]
$LN16@InitHashTa@2:

; 2445 : 		if( m_ppBins == NULL )

	mov	eax, DWORD PTR [esi]
	test	eax, eax
	jne	SHORT $LN1@InitHashTa@2

; 2446 : 		{
; 2447 : 			return false;

	xor	al, al

; 2454 : 
; 2455 : 	return true;
; 2456 : }

	mov	ecx, DWORD PTR __$EHRec$[ebp+4]
	mov	DWORD PTR fs:0, ecx
	pop	edi
	pop	esi
	pop	ebx
	mov	esp, ebp
	pop	ebp
	ret	12					; 0000000cH
$LN1@InitHashTa@2:

; 2448 : 		}
; 2449 : 		memset( m_ppBins, 0, sizeof( CNode* )*nBins );

	lea	ecx, DWORD PTR [edi*4]
	push	ecx
	push	0
	push	eax
	call	_memset
	add	esp, 12					; 0000000cH
$LN3@InitHashTa@2:

; 2450 : 	}
; 2451 : 	m_nBins = nBins;
; 2452 : 
; 2453 : 	UpdateRehashThresholds();

	mov	ecx, esi
	mov	DWORD PTR [esi+8], edi
	call	?UpdateRehashThresholds@?$CAtlMap@V?$CStringT@_WV?$StrTraitMFC@_WV?$ChTraitsCRT@_W@ATL@@@@@ATL@@VSubRect@ssf@@V?$CStringElementTraits@V?$CStringT@_WV?$StrTraitMFC@_WV?$ChTraitsCRT@_W@ATL@@@@@ATL@@@2@V?$CElementTraits@VSubRect@ssf@@@2@@ATL@@AAEXXZ ; ATL::CAtlMap<ATL::CStringT<wchar_t,StrTraitMFC<wchar_t,ATL::ChTraitsCRT<wchar_t> > >,ssf::SubRect,ATL::CStringElementTraits<ATL::CStringT<wchar_t,StrTraitMFC<wchar_t,ATL::ChTraitsCRT<wchar_t> > > >,ATL::CElementTraits<ssf::SubRect> >::UpdateRehashThresholds

; 2454 : 
; 2455 : 	return true;
; 2456 : }

	mov	ecx, DWORD PTR __$EHRec$[ebp+4]
	pop	edi
	pop	esi
	mov	al, 1
	mov	DWORD PTR fs:0, ecx
	pop	ebx
	mov	esp, ebp
	pop	ebp
	ret	12					; 0000000cH
_TEXT	ENDS
;	COMDAT text$x
text$x	SEGMENT
__ehhandler$?InitHashTable@?$CAtlMap@V?$CStringT@_WV?$StrTraitMFC@_WV?$ChTraitsCRT@_W@ATL@@@@@ATL@@VSubRect@ssf@@V?$CStringElementTraits@V?$CStringT@_WV?$StrTraitMFC@_WV?$ChTraitsCRT@_W@ATL@@@@@ATL@@@2@V?$CElementTraits@VSubRect@ssf@@@2@@ATL@@QAE_NI_N@Z:
	mov	eax, OFFSET __ehfuncinfo$?InitHashTable@?$CAtlMap@V?$CStringT@_WV?$StrTraitMFC@_WV?$ChTraitsCRT@_W@ATL@@@@@ATL@@VSubRect@ssf@@V?$CStringElementTraits@V?$CStringT@_WV?$StrTraitMFC@_WV?$ChTraitsCRT@_W@ATL@@@@@ATL@@@2@V?$CElementTraits@VSubRect@ssf@@@2@@ATL@@QAE_NI_N@Z
	jmp	___CxxFrameHandler3
text$x	ENDS
?InitHashTable@?$CAtlMap@V?$CStringT@_WV?$StrTraitMFC@_WV?$ChTraitsCRT@_W@ATL@@@@@ATL@@VSubRect@ssf@@V?$CStringElementTraits@V?$CStringT@_WV?$StrTraitMFC@_WV?$ChTraitsCRT@_W@ATL@@@@@ATL@@@2@V?$CElementTraits@VSubRect@ssf@@@2@@ATL@@QAE_NI_N@Z ENDP ; ATL::CAtlMap<ATL::CStringT<wchar_t,StrTraitMFC<wchar_t,ATL::ChTraitsCRT<wchar_t> > >,ssf::SubRect,ATL::CStringElementTraits<ATL::CStringT<wchar_t,StrTraitMFC<wchar_t,ATL::ChTraitsCRT<wchar_t> > > >,ATL::CElementTraits<ssf::SubRect> >::InitHashTable
; Function compile flags: /Ogtpy
;	COMDAT ?IsEmpty@?$CAtlMap@V?$CStringT@_WV?$StrTraitMFC@_WV?$ChTraitsCRT@_W@ATL@@@@@ATL@@VSubRect@ssf@@V?$CStringElementTraits@V?$CStringT@_WV?$StrTraitMFC@_WV?$ChTraitsCRT@_W@ATL@@@@@ATL@@@2@V?$CElementTraits@VSubRect@ssf@@@2@@ATL@@QBE_NXZ
_TEXT	SEGMENT
?IsEmpty@?$CAtlMap@V?$CStringT@_WV?$StrTraitMFC@_WV?$ChTraitsCRT@_W@ATL@@@@@ATL@@VSubRect@ssf@@V?$CStringElementTraits@V?$CStringT@_WV?$StrTraitMFC@_WV?$ChTraitsCRT@_W@ATL@@@@@ATL@@@2@V?$CElementTraits@VSubRect@ssf@@@2@@ATL@@QBE_NXZ PROC ; ATL::CAtlMap<ATL::CStringT<wchar_t,StrTraitMFC<wchar_t,ATL::ChTraitsCRT<wchar_t> > >,ssf::SubRect,ATL::CStringElementTraits<ATL::CStringT<wchar_t,StrTraitMFC<wchar_t,ATL::ChTraitsCRT<wchar_t> > > >,ATL::CElementTraits<ssf::SubRect> >::IsEmpty, COMDAT
; _this$ = ecx

; 2158 : 	return( m_nElements == 0 );

	xor	eax, eax
	cmp	DWORD PTR [ecx+4], eax
	sete	al

; 2159 : }

	ret	0
?IsEmpty@?$CAtlMap@V?$CStringT@_WV?$StrTraitMFC@_WV?$ChTraitsCRT@_W@ATL@@@@@ATL@@VSubRect@ssf@@V?$CStringElementTraits@V?$CStringT@_WV?$StrTraitMFC@_WV?$ChTraitsCRT@_W@ATL@@@@@ATL@@@2@V?$CElementTraits@VSubRect@ssf@@@2@@ATL@@QBE_NXZ ENDP ; ATL::CAtlMap<ATL::CStringT<wchar_t,StrTraitMFC<wchar_t,ATL::ChTraitsCRT<wchar_t> > >,ssf::SubRect,ATL::CStringElementTraits<ATL::CStringT<wchar_t,StrTraitMFC<wchar_t,ATL::ChTraitsCRT<wchar_t> > > >,ATL::CElementTraits<ssf::SubRect> >::IsEmpty
; Function compile flags: /Ogtpy
_TEXT	ENDS
;	COMDAT ?FindNextNode@?$CAtlMap@V?$CStringT@_WV?$StrTraitMFC@_WV?$ChTraitsCRT@_W@ATL@@@@@ATL@@PAVRenderedSubtitle@ssf@@V?$CStringElementTraits@V?$CStringT@_WV?$StrTraitMFC@_WV?$ChTraitsCRT@_W@ATL@@@@@ATL@@@2@V?$CElementTraits@PAVRenderedSubtitle@ssf@@@2@@ATL@@ABEPAVCNode@12@PAV312@@Z
_TEXT	SEGMENT
?FindNextNode@?$CAtlMap@V?$CStringT@_WV?$StrTraitMFC@_WV?$ChTraitsCRT@_W@ATL@@@@@ATL@@PAVRenderedSubtitle@ssf@@V?$CStringElementTraits@V?$CStringT@_WV?$StrTraitMFC@_WV?$ChTraitsCRT@_W@ATL@@@@@ATL@@@2@V?$CElementTraits@PAVRenderedSubtitle@ssf@@@2@@ATL@@ABEPAVCNode@12@PAV312@@Z PROC ; ATL::CAtlMap<ATL::CStringT<wchar_t,StrTraitMFC<wchar_t,ATL::ChTraitsCRT<wchar_t> > >,ssf::RenderedSubtitle *,ATL::CStringElementTraits<ATL::CStringT<wchar_t,StrTraitMFC<wchar_t,ATL::ChTraitsCRT<wchar_t> > > >,ATL::CElementTraits<ssf::RenderedSubtitle *> >::FindNextNode, COMDAT
; _this$ = edi
; _pNode$ = eax

; 2902 : 	CNode* pNext;
; 2903 : 	
; 2904 : 	if(pNode == NULL)

	test	eax, eax
	jne	SHORT $LN6@FindNextNo

; 2932 : }

	ret	0
$LN6@FindNextNo:

; 2905 : 	{
; 2906 : 		ATLASSERT(FALSE);
; 2907 : 		return NULL;
; 2908 : 	}
; 2909 : 	
; 2910 : 	if( pNode->m_pNext != NULL )

	mov	ecx, DWORD PTR [eax+8]
	test	ecx, ecx

; 2911 : 	{
; 2912 : 		pNext = pNode->m_pNext;
; 2913 : 	}
; 2914 : 	else

	jne	SHORT $LN2@FindNextNo

; 2915 : 	{
; 2916 : 		UINT iBin;
; 2917 : 
; 2918 : 		pNext = NULL;
; 2919 : 		iBin = (pNode->GetHash()%m_nBins)+1;

	mov	eax, DWORD PTR [eax+12]
	push	esi
	mov	esi, DWORD PTR [edi+8]
	xor	edx, edx
	div	esi
	inc	edx
$LL3@FindNextNo:

; 2920 : 		while( (pNext == NULL) && (iBin < m_nBins) )

	cmp	edx, esi
	jae	SHORT $LN13@FindNextNo
	mov	eax, DWORD PTR [edi]

; 2921 : 		{
; 2922 : 			if( m_ppBins[iBin] != NULL )

	cmp	DWORD PTR [eax+edx*4], 0
	lea	eax, DWORD PTR [eax+edx*4]
	je	SHORT $LN1@FindNextNo

; 2923 : 			{
; 2924 : 				pNext = m_ppBins[iBin];

	mov	ecx, DWORD PTR [eax]
$LN1@FindNextNo:

; 2925 : 			}
; 2926 : 
; 2927 : 			iBin++;

	inc	edx
	test	ecx, ecx
	je	SHORT $LL3@FindNextNo
$LN13@FindNextNo:
	pop	esi
$LN2@FindNextNo:

; 2928 : 		}
; 2929 : 	}
; 2930 : 
; 2931 : 	return( pNext );

	mov	eax, ecx

; 2932 : }

	ret	0
?FindNextNode@?$CAtlMap@V?$CStringT@_WV?$StrTraitMFC@_WV?$ChTraitsCRT@_W@ATL@@@@@ATL@@PAVRenderedSubtitle@ssf@@V?$CStringElementTraits@V?$CStringT@_WV?$StrTraitMFC@_WV?$ChTraitsCRT@_W@ATL@@@@@ATL@@@2@V?$CElementTraits@PAVRenderedSubtitle@ssf@@@2@@ATL@@ABEPAVCNode@12@PAV312@@Z ENDP ; ATL::CAtlMap<ATL::CStringT<wchar_t,StrTraitMFC<wchar_t,ATL::ChTraitsCRT<wchar_t> > >,ssf::RenderedSubtitle *,ATL::CStringElementTraits<ATL::CStringT<wchar_t,StrTraitMFC<wchar_t,ATL::ChTraitsCRT<wchar_t> > > >,ATL::CElementTraits<ssf::RenderedSubtitle *> >::FindNextNode
; Function compile flags: /Ogtpy
_TEXT	ENDS
;	COMDAT ?PickSize@?$CAtlMap@V?$CStringT@_WV?$StrTraitMFC@_WV?$ChTraitsCRT@_W@ATL@@@@@ATL@@PAVRenderedSubtitle@ssf@@V?$CStringElementTraits@V?$CStringT@_WV?$StrTraitMFC@_WV?$ChTraitsCRT@_W@ATL@@@@@ATL@@@2@V?$CElementTraits@PAVRenderedSubtitle@ssf@@@2@@ATL@@ABEII@Z
_TEXT	SEGMENT
tv200 = -10						; size = 2
tv202 = -8						; size = 4
tv197 = -8						; size = 4
tv195 = -8						; size = 8
?PickSize@?$CAtlMap@V?$CStringT@_WV?$StrTraitMFC@_WV?$ChTraitsCRT@_W@ATL@@@@@ATL@@PAVRenderedSubtitle@ssf@@V?$CStringElementTraits@V?$CStringT@_WV?$StrTraitMFC@_WV?$ChTraitsCRT@_W@ATL@@@@@ATL@@@2@V?$CElementTraits@PAVRenderedSubtitle@ssf@@@2@@ATL@@ABEII@Z PROC ; ATL::CAtlMap<ATL::CStringT<wchar_t,StrTraitMFC<wchar_t,ATL::ChTraitsCRT<wchar_t> > >,ssf::RenderedSubtitle *,ATL::CStringElementTraits<ATL::CStringT<wchar_t,StrTraitMFC<wchar_t,ATL::ChTraitsCRT<wchar_t> > > >,ATL::CElementTraits<ssf::RenderedSubtitle *> >::PickSize, COMDAT
; _this$ = ecx
; _nElements$ = eax

; 2262 : {

	sub	esp, 12					; 0000000cH

; 2263 : 	// List of primes such that s_anPrimes[i] is the smallest prime greater than 2^(5+i/3)
; 2264 : 	static const UINT s_anPrimes[] =
; 2265 : 	{
; 2266 : 		17, 23, 29, 37, 41, 53, 67, 83, 103, 131, 163, 211, 257, 331, 409, 521, 647, 821, 
; 2267 : 		1031, 1291, 1627, 2053, 2591, 3251, 4099, 5167, 6521, 8209, 10331, 
; 2268 : 		13007, 16411, 20663, 26017, 32771, 41299, 52021, 65537, 82571, 104033, 
; 2269 : 		131101, 165161, 208067, 262147, 330287, 416147, 524309, 660563, 
; 2270 : 		832291, 1048583, 1321139, 1664543, 2097169, 2642257, 3329023, 4194319, 
; 2271 : 		5284493, 6658049, 8388617, 10568993, 13316089, UINT_MAX
; 2272 : 	};
; 2273 : 
; 2274 : 	size_t nBins = (size_t)(nElements/m_fOptimalLoad);

	mov	DWORD PTR tv202[esp+12], eax
	fild	DWORD PTR tv202[esp+12]
	test	eax, eax
	jge	SHORT $LN11@PickSize@3
	fadd	DWORD PTR __real@4f800000
$LN11@PickSize@3:
	fdiv	DWORD PTR [ecx+12]
	fnstcw	WORD PTR tv200[esp+12]
	movzx	eax, WORD PTR tv200[esp+12]
	or	eax, 3072				; 00000c00H
	mov	DWORD PTR tv197[esp+12], eax
	fldcw	WORD PTR tv197[esp+12]
	fistp	QWORD PTR tv195[esp+12]
	mov	eax, DWORD PTR tv195[esp+12]
	fldcw	WORD PTR tv200[esp+12]

; 2275 : 	UINT nBinsEstimate = UINT(  UINT_MAX < nBins ? UINT_MAX : nBins );

	cmp	eax, -1
	jbe	SHORT $LN7@PickSize@3
	or	eax, -1
$LN7@PickSize@3:

; 2276 : 
; 2277 : 	// Find the smallest prime greater than our estimate
; 2278 : 	int iPrime = 0;

	xor	ecx, ecx

; 2279 : 	while( nBinsEstimate > s_anPrimes[iPrime] )

	cmp	eax, 17					; 00000011H
	jbe	SHORT $LN3@PickSize@3
	npad	7
$LL4@PickSize@3:

; 2280 : 	{
; 2281 : 		iPrime++;

	inc	ecx
	cmp	eax, DWORD PTR ?s_anPrimes@?1??PickSize@?$CAtlMap@V?$CStringT@_WV?$StrTraitMFC@_WV?$ChTraitsCRT@_W@ATL@@@@@ATL@@PAVRenderedSubtitle@ssf@@V?$CStringElementTraits@V?$CStringT@_WV?$StrTraitMFC@_WV?$ChTraitsCRT@_W@ATL@@@@@ATL@@@2@V?$CElementTraits@PAVRenderedSubtitle@ssf@@@2@@ATL@@ABEII@Z@4QBIB[ecx*4]
	ja	SHORT $LL4@PickSize@3
$LN3@PickSize@3:

; 2282 : 	}
; 2283 : 
; 2284 : 	if( s_anPrimes[iPrime] == UINT_MAX )

	mov	ecx, DWORD PTR ?s_anPrimes@?1??PickSize@?$CAtlMap@V?$CStringT@_WV?$StrTraitMFC@_WV?$ChTraitsCRT@_W@ATL@@@@@ATL@@PAVRenderedSubtitle@ssf@@V?$CStringElementTraits@V?$CStringT@_WV?$StrTraitMFC@_WV?$ChTraitsCRT@_W@ATL@@@@@ATL@@@2@V?$CElementTraits@PAVRenderedSubtitle@ssf@@@2@@ATL@@ABEII@Z@4QBIB[ecx*4]
	cmp	ecx, -1

; 2285 : 	{
; 2286 : 		return( nBinsEstimate );

	je	SHORT $LN1@PickSize@3

; 2287 : 	}
; 2288 : 	else
; 2289 : 	{
; 2290 : 		return( s_anPrimes[iPrime] );

	mov	eax, ecx
$LN1@PickSize@3:

; 2291 : 	}
; 2292 : }

	add	esp, 12					; 0000000cH
	ret	0
?PickSize@?$CAtlMap@V?$CStringT@_WV?$StrTraitMFC@_WV?$ChTraitsCRT@_W@ATL@@@@@ATL@@PAVRenderedSubtitle@ssf@@V?$CStringElementTraits@V?$CStringT@_WV?$StrTraitMFC@_WV?$ChTraitsCRT@_W@ATL@@@@@ATL@@@2@V?$CElementTraits@PAVRenderedSubtitle@ssf@@@2@@ATL@@ABEII@Z ENDP ; ATL::CAtlMap<ATL::CStringT<wchar_t,StrTraitMFC<wchar_t,ATL::ChTraitsCRT<wchar_t> > >,ssf::RenderedSubtitle *,ATL::CStringElementTraits<ATL::CStringT<wchar_t,StrTraitMFC<wchar_t,ATL::ChTraitsCRT<wchar_t> > > >,ATL::CElementTraits<ssf::RenderedSubtitle *> >::PickSize
; Function compile flags: /Ogtpy
_TEXT	ENDS
;	COMDAT ?IsLocked@?$CAtlMap@V?$CStringT@_WV?$StrTraitMFC@_WV?$ChTraitsCRT@_W@ATL@@@@@ATL@@PAVRenderedSubtitle@ssf@@V?$CStringElementTraits@V?$CStringT@_WV?$StrTraitMFC@_WV?$ChTraitsCRT@_W@ATL@@@@@ATL@@@2@V?$CElementTraits@PAVRenderedSubtitle@ssf@@@2@@ATL@@ABE_NXZ
_TEXT	SEGMENT
?IsLocked@?$CAtlMap@V?$CStringT@_WV?$StrTraitMFC@_WV?$ChTraitsCRT@_W@ATL@@@@@ATL@@PAVRenderedSubtitle@ssf@@V?$CStringElementTraits@V?$CStringT@_WV?$StrTraitMFC@_WV?$ChTraitsCRT@_W@ATL@@@@@ATL@@@2@V?$CElementTraits@PAVRenderedSubtitle@ssf@@@2@@ATL@@ABE_NXZ PROC ; ATL::CAtlMap<ATL::CStringT<wchar_t,StrTraitMFC<wchar_t,ATL::ChTraitsCRT<wchar_t> > >,ssf::RenderedSubtitle *,ATL::CStringElementTraits<ATL::CStringT<wchar_t,StrTraitMFC<wchar_t,ATL::ChTraitsCRT<wchar_t> > > >,ATL::CElementTraits<ssf::RenderedSubtitle *> >::IsLocked, COMDAT
; _this$ = ecx

; 2257 : 	return( m_nLockCount != 0 );

	xor	eax, eax
	cmp	DWORD PTR [ecx+32], eax
	setne	al

; 2258 : }

	ret	0
?IsLocked@?$CAtlMap@V?$CStringT@_WV?$StrTraitMFC@_WV?$ChTraitsCRT@_W@ATL@@@@@ATL@@PAVRenderedSubtitle@ssf@@V?$CStringElementTraits@V?$CStringT@_WV?$StrTraitMFC@_WV?$ChTraitsCRT@_W@ATL@@@@@ATL@@@2@V?$CElementTraits@PAVRenderedSubtitle@ssf@@@2@@ATL@@ABE_NXZ ENDP ; ATL::CAtlMap<ATL::CStringT<wchar_t,StrTraitMFC<wchar_t,ATL::ChTraitsCRT<wchar_t> > >,ssf::RenderedSubtitle *,ATL::CStringElementTraits<ATL::CStringT<wchar_t,StrTraitMFC<wchar_t,ATL::ChTraitsCRT<wchar_t> > > >,ATL::CElementTraits<ssf::RenderedSubtitle *> >::IsLocked
; Function compile flags: /Ogtpy
_TEXT	ENDS
;	COMDAT ?DisableAutoRehash@?$CAtlMap@V?$CStringT@_WV?$StrTraitMFC@_WV?$ChTraitsCRT@_W@ATL@@@@@ATL@@PAVRenderedSubtitle@ssf@@V?$CStringElementTraits@V?$CStringT@_WV?$StrTraitMFC@_WV?$ChTraitsCRT@_W@ATL@@@@@ATL@@@2@V?$CElementTraits@PAVRenderedSubtitle@ssf@@@2@@ATL@@QAEXXZ
_TEXT	SEGMENT
?DisableAutoRehash@?$CAtlMap@V?$CStringT@_WV?$StrTraitMFC@_WV?$ChTraitsCRT@_W@ATL@@@@@ATL@@PAVRenderedSubtitle@ssf@@V?$CStringElementTraits@V?$CStringT@_WV?$StrTraitMFC@_WV?$ChTraitsCRT@_W@ATL@@@@@ATL@@@2@V?$CElementTraits@PAVRenderedSubtitle@ssf@@@2@@ATL@@QAEXXZ PROC ; ATL::CAtlMap<ATL::CStringT<wchar_t,StrTraitMFC<wchar_t,ATL::ChTraitsCRT<wchar_t> > >,ssf::RenderedSubtitle *,ATL::CStringElementTraits<ATL::CStringT<wchar_t,StrTraitMFC<wchar_t,ATL::ChTraitsCRT<wchar_t> > > >,ATL::CElementTraits<ssf::RenderedSubtitle *> >::DisableAutoRehash, COMDAT
; _this$ = eax

; 2244 : 	m_nLockCount++;

	inc	DWORD PTR [eax+32]

; 2245 : }

	ret	0
?DisableAutoRehash@?$CAtlMap@V?$CStringT@_WV?$StrTraitMFC@_WV?$ChTraitsCRT@_W@ATL@@@@@ATL@@PAVRenderedSubtitle@ssf@@V?$CStringElementTraits@V?$CStringT@_WV?$StrTraitMFC@_WV?$ChTraitsCRT@_W@ATL@@@@@ATL@@@2@V?$CElementTraits@PAVRenderedSubtitle@ssf@@@2@@ATL@@QAEXXZ ENDP ; ATL::CAtlMap<ATL::CStringT<wchar_t,StrTraitMFC<wchar_t,ATL::ChTraitsCRT<wchar_t> > >,ssf::RenderedSubtitle *,ATL::CStringElementTraits<ATL::CStringT<wchar_t,StrTraitMFC<wchar_t,ATL::ChTraitsCRT<wchar_t> > > >,ATL::CElementTraits<ssf::RenderedSubtitle *> >::DisableAutoRehash
; Function compile flags: /Ogtpy
_TEXT	ENDS
;	COMDAT ?EnableAutoRehash@?$CAtlMap@V?$CStringT@_WV?$StrTraitMFC@_WV?$ChTraitsCRT@_W@ATL@@@@@ATL@@PAVRenderedSubtitle@ssf@@V?$CStringElementTraits@V?$CStringT@_WV?$StrTraitMFC@_WV?$ChTraitsCRT@_W@ATL@@@@@ATL@@@2@V?$CElementTraits@PAVRenderedSubtitle@ssf@@@2@@ATL@@QAEXXZ
_TEXT	SEGMENT
?EnableAutoRehash@?$CAtlMap@V?$CStringT@_WV?$StrTraitMFC@_WV?$ChTraitsCRT@_W@ATL@@@@@ATL@@PAVRenderedSubtitle@ssf@@V?$CStringElementTraits@V?$CStringT@_WV?$StrTraitMFC@_WV?$ChTraitsCRT@_W@ATL@@@@@ATL@@@2@V?$CElementTraits@PAVRenderedSubtitle@ssf@@@2@@ATL@@QAEXXZ PROC ; ATL::CAtlMap<ATL::CStringT<wchar_t,StrTraitMFC<wchar_t,ATL::ChTraitsCRT<wchar_t> > >,ssf::RenderedSubtitle *,ATL::CStringElementTraits<ATL::CStringT<wchar_t,StrTraitMFC<wchar_t,ATL::ChTraitsCRT<wchar_t> > > >,ATL::CElementTraits<ssf::RenderedSubtitle *> >::EnableAutoRehash, COMDAT
; _this$ = eax

; 2250 : 	ATLASSUME( m_nLockCount > 0 );
; 2251 : 	m_nLockCount--;

	dec	DWORD PTR [eax+32]

; 2252 : }

	ret	0
?EnableAutoRehash@?$CAtlMap@V?$CStringT@_WV?$StrTraitMFC@_WV?$ChTraitsCRT@_W@ATL@@@@@ATL@@PAVRenderedSubtitle@ssf@@V?$CStringElementTraits@V?$CStringT@_WV?$StrTraitMFC@_WV?$ChTraitsCRT@_W@ATL@@@@@ATL@@@2@V?$CElementTraits@PAVRenderedSubtitle@ssf@@@2@@ATL@@QAEXXZ ENDP ; ATL::CAtlMap<ATL::CStringT<wchar_t,StrTraitMFC<wchar_t,ATL::ChTraitsCRT<wchar_t> > >,ssf::RenderedSubtitle *,ATL::CStringElementTraits<ATL::CStringT<wchar_t,StrTraitMFC<wchar_t,ATL::ChTraitsCRT<wchar_t> > > >,ATL::CElementTraits<ssf::RenderedSubtitle *> >::EnableAutoRehash
_TEXT	ENDS
;	COMDAT xdata$x
xdata$x	SEGMENT
__unwindtable$?InitHashTable@?$CAtlMap@V?$CStringT@_WV?$StrTraitMFC@_WV?$ChTraitsCRT@_W@ATL@@@@@ATL@@PAVRenderedSubtitle@ssf@@V?$CStringElementTraits@V?$CStringT@_WV?$StrTraitMFC@_WV?$ChTraitsCRT@_W@ATL@@@@@ATL@@@2@V?$CElementTraits@PAVRenderedSubtitle@ssf@@@2@@ATL@@QAE_NI_N@Z DD 0ffffffffH
	DD	00H
	DD	0ffffffffH
	DD	00H
__catchsym$?InitHashTable@?$CAtlMap@V?$CStringT@_WV?$StrTraitMFC@_WV?$ChTraitsCRT@_W@ATL@@@@@ATL@@PAVRenderedSubtitle@ssf@@V?$CStringElementTraits@V?$CStringT@_WV?$StrTraitMFC@_WV?$ChTraitsCRT@_W@ATL@@@@@ATL@@@2@V?$CElementTraits@PAVRenderedSubtitle@ssf@@@2@@ATL@@QAE_NI_N@Z$2 DD 00H
	DD	FLAT:??_R0PAVCException@@@8
	DD	0ffffffecH
	DD	FLAT:__catch$?InitHashTable@?$CAtlMap@V?$CStringT@_WV?$StrTraitMFC@_WV?$ChTraitsCRT@_W@ATL@@@@@ATL@@PAVRenderedSubtitle@ssf@@V?$CStringElementTraits@V?$CStringT@_WV?$StrTraitMFC@_WV?$ChTraitsCRT@_W@ATL@@@@@ATL@@@2@V?$CElementTraits@PAVRenderedSubtitle@ssf@@@2@@ATL@@QAE_NI_N@Z$0
__tryblocktable$?InitHashTable@?$CAtlMap@V?$CStringT@_WV?$StrTraitMFC@_WV?$ChTraitsCRT@_W@ATL@@@@@ATL@@PAVRenderedSubtitle@ssf@@V?$CStringElementTraits@V?$CStringT@_WV?$StrTraitMFC@_WV?$ChTraitsCRT@_W@ATL@@@@@ATL@@@2@V?$CElementTraits@PAVRenderedSubtitle@ssf@@@2@@ATL@@QAE_NI_N@Z DD 00H
	DD	00H
	DD	01H
	DD	01H
	DD	FLAT:__catchsym$?InitHashTable@?$CAtlMap@V?$CStringT@_WV?$StrTraitMFC@_WV?$ChTraitsCRT@_W@ATL@@@@@ATL@@PAVRenderedSubtitle@ssf@@V?$CStringElementTraits@V?$CStringT@_WV?$StrTraitMFC@_WV?$ChTraitsCRT@_W@ATL@@@@@ATL@@@2@V?$CElementTraits@PAVRenderedSubtitle@ssf@@@2@@ATL@@QAE_NI_N@Z$2
__ehfuncinfo$?InitHashTable@?$CAtlMap@V?$CStringT@_WV?$StrTraitMFC@_WV?$ChTraitsCRT@_W@ATL@@@@@ATL@@PAVRenderedSubtitle@ssf@@V?$CStringElementTraits@V?$CStringT@_WV?$StrTraitMFC@_WV?$ChTraitsCRT@_W@ATL@@@@@ATL@@@2@V?$CElementTraits@PAVRenderedSubtitle@ssf@@@2@@ATL@@QAE_NI_N@Z DD 019930522H
	DD	02H
	DD	FLAT:__unwindtable$?InitHashTable@?$CAtlMap@V?$CStringT@_WV?$StrTraitMFC@_WV?$ChTraitsCRT@_W@ATL@@@@@ATL@@PAVRenderedSubtitle@ssf@@V?$CStringElementTraits@V?$CStringT@_WV?$StrTraitMFC@_WV?$ChTraitsCRT@_W@ATL@@@@@ATL@@@2@V?$CElementTraits@PAVRenderedSubtitle@ssf@@@2@@ATL@@QAE_NI_N@Z
	DD	01H
	DD	FLAT:__tryblocktable$?InitHashTable@?$CAtlMap@V?$CStringT@_WV?$StrTraitMFC@_WV?$ChTraitsCRT@_W@ATL@@@@@ATL@@PAVRenderedSubtitle@ssf@@V?$CStringElementTraits@V?$CStringT@_WV?$StrTraitMFC@_WV?$ChTraitsCRT@_W@ATL@@@@@ATL@@@2@V?$CElementTraits@PAVRenderedSubtitle@ssf@@@2@@ATL@@QAE_NI_N@Z
	DD	2 DUP(00H)
	DD	00H
	DD	01H
; Function compile flags: /Ogtpy
xdata$x	ENDS
;	COMDAT ?InitHashTable@?$CAtlMap@V?$CStringT@_WV?$StrTraitMFC@_WV?$ChTraitsCRT@_W@ATL@@@@@ATL@@PAVRenderedSubtitle@ssf@@V?$CStringElementTraits@V?$CStringT@_WV?$StrTraitMFC@_WV?$ChTraitsCRT@_W@ATL@@@@@ATL@@@2@V?$CElementTraits@PAVRenderedSubtitle@ssf@@@2@@ATL@@QAE_NI_N@Z
_TEXT	SEGMENT
_e$130386 = -20						; size = 4
__$EHRec$ = -16						; size = 16
_this$ = 8						; size = 4
_nBins$ = 12						; size = 4
_bAllocNow$ = 16					; size = 1
?InitHashTable@?$CAtlMap@V?$CStringT@_WV?$StrTraitMFC@_WV?$ChTraitsCRT@_W@ATL@@@@@ATL@@PAVRenderedSubtitle@ssf@@V?$CStringElementTraits@V?$CStringT@_WV?$StrTraitMFC@_WV?$ChTraitsCRT@_W@ATL@@@@@ATL@@@2@V?$CElementTraits@PAVRenderedSubtitle@ssf@@@2@@ATL@@QAE_NI_N@Z PROC ; ATL::CAtlMap<ATL::CStringT<wchar_t,StrTraitMFC<wchar_t,ATL::ChTraitsCRT<wchar_t> > >,ssf::RenderedSubtitle *,ATL::CStringElementTraits<ATL::CStringT<wchar_t,StrTraitMFC<wchar_t,ATL::ChTraitsCRT<wchar_t> > > >,ATL::CElementTraits<ssf::RenderedSubtitle *> >::InitHashTable, COMDAT

; 2432 : {

	push	ebp
	mov	ebp, esp
	push	-1
	push	__ehhandler$?InitHashTable@?$CAtlMap@V?$CStringT@_WV?$StrTraitMFC@_WV?$ChTraitsCRT@_W@ATL@@@@@ATL@@PAVRenderedSubtitle@ssf@@V?$CStringElementTraits@V?$CStringT@_WV?$StrTraitMFC@_WV?$ChTraitsCRT@_W@ATL@@@@@ATL@@@2@V?$CElementTraits@PAVRenderedSubtitle@ssf@@@2@@ATL@@QAE_NI_N@Z
	mov	eax, DWORD PTR fs:0
	push	eax
	mov	DWORD PTR fs:0, esp
	sub	esp, 8
	push	ebx
	push	esi
	mov	esi, DWORD PTR _this$[ebp]

; 2433 : 	ATLASSUME( m_nElements == 0 );
; 2434 : 	ATLASSERT( nBins > 0 );
; 2435 : 
; 2436 : 	if( m_ppBins != NULL )

	mov	eax, DWORD PTR [esi]
	push	edi
	mov	edi, DWORD PTR _nBins$[ebp]
	mov	DWORD PTR __$EHRec$[ebp], esp
	test	eax, eax
	je	SHORT $LN4@InitHashTa@3

; 2437 : 	{
; 2438 : 		delete[] m_ppBins;

	push	eax
	call	??_V@YAXPAX@Z				; operator delete[]
	add	esp, 4

; 2439 : 		m_ppBins = NULL;

	mov	DWORD PTR [esi], 0
$LN4@InitHashTa@3:

; 2440 : 	}
; 2441 : 
; 2442 : 	if( bAllocNow )

	cmp	BYTE PTR _bAllocNow$[ebp], 0
	je	SHORT $LN3@InitHashTa@3

; 2443 : 	{
; 2444 : 		ATLTRY( m_ppBins = new CNode*[nBins] );

	xor	ecx, ecx
	mov	eax, edi
	mov	edx, 4
	mul	edx
	seto	cl
	mov	DWORD PTR __$EHRec$[ebp+12], 0
	neg	ecx
	or	ecx, eax
	push	ecx
	call	??_U@YAPAXI@Z				; operator new[]
	add	esp, 4
	mov	DWORD PTR [esi], eax
	jmp	SHORT $LN16@InitHashTa@3
__catch$?InitHashTable@?$CAtlMap@V?$CStringT@_WV?$StrTraitMFC@_WV?$ChTraitsCRT@_W@ATL@@@@@ATL@@PAVRenderedSubtitle@ssf@@V?$CStringElementTraits@V?$CStringT@_WV?$StrTraitMFC@_WV?$ChTraitsCRT@_W@ATL@@@@@ATL@@@2@V?$CElementTraits@PAVRenderedSubtitle@ssf@@@2@@ATL@@QAE_NI_N@Z$0:
	mov	ecx, DWORD PTR _e$130386[ebp]
	call	?Delete@CException@@QAEXXZ		; CException::Delete
	mov	eax, $LN18@InitHashTa@3
	ret	0
$LN18@InitHashTa@3:
	mov	esi, DWORD PTR _this$[ebp]
	mov	edi, DWORD PTR _nBins$[ebp]
$LN16@InitHashTa@3:

; 2445 : 		if( m_ppBins == NULL )

	mov	eax, DWORD PTR [esi]
	test	eax, eax
	jne	SHORT $LN1@InitHashTa@3

; 2446 : 		{
; 2447 : 			return false;

	xor	al, al

; 2454 : 
; 2455 : 	return true;
; 2456 : }

	mov	ecx, DWORD PTR __$EHRec$[ebp+4]
	mov	DWORD PTR fs:0, ecx
	pop	edi
	pop	esi
	pop	ebx
	mov	esp, ebp
	pop	ebp
	ret	12					; 0000000cH
$LN1@InitHashTa@3:

; 2448 : 		}
; 2449 : 		memset( m_ppBins, 0, sizeof( CNode* )*nBins );

	lea	ecx, DWORD PTR [edi*4]
	push	ecx
	push	0
	push	eax
	call	_memset
	add	esp, 12					; 0000000cH
$LN3@InitHashTa@3:

; 2450 : 	}
; 2451 : 	m_nBins = nBins;
; 2452 : 
; 2453 : 	UpdateRehashThresholds();

	mov	ecx, esi
	mov	DWORD PTR [esi+8], edi
	call	?UpdateRehashThresholds@?$CAtlMap@V?$CStringT@_WV?$StrTraitMFC@_WV?$ChTraitsCRT@_W@ATL@@@@@ATL@@PAVRenderedSubtitle@ssf@@V?$CStringElementTraits@V?$CStringT@_WV?$StrTraitMFC@_WV?$ChTraitsCRT@_W@ATL@@@@@ATL@@@2@V?$CElementTraits@PAVRenderedSubtitle@ssf@@@2@@ATL@@AAEXXZ ; ATL::CAtlMap<ATL::CStringT<wchar_t,StrTraitMFC<wchar_t,ATL::ChTraitsCRT<wchar_t> > >,ssf::RenderedSubtitle *,ATL::CStringElementTraits<ATL::CStringT<wchar_t,StrTraitMFC<wchar_t,ATL::ChTraitsCRT<wchar_t> > > >,ATL::CElementTraits<ssf::RenderedSubtitle *> >::UpdateRehashThresholds

; 2454 : 
; 2455 : 	return true;
; 2456 : }

	mov	ecx, DWORD PTR __$EHRec$[ebp+4]
	pop	edi
	pop	esi
	mov	al, 1
	mov	DWORD PTR fs:0, ecx
	pop	ebx
	mov	esp, ebp
	pop	ebp
	ret	12					; 0000000cH
_TEXT	ENDS
;	COMDAT text$x
text$x	SEGMENT
__ehhandler$?InitHashTable@?$CAtlMap@V?$CStringT@_WV?$StrTraitMFC@_WV?$ChTraitsCRT@_W@ATL@@@@@ATL@@PAVRenderedSubtitle@ssf@@V?$CStringElementTraits@V?$CStringT@_WV?$StrTraitMFC@_WV?$ChTraitsCRT@_W@ATL@@@@@ATL@@@2@V?$CElementTraits@PAVRenderedSubtitle@ssf@@@2@@ATL@@QAE_NI_N@Z:
	mov	eax, OFFSET __ehfuncinfo$?InitHashTable@?$CAtlMap@V?$CStringT@_WV?$StrTraitMFC@_WV?$ChTraitsCRT@_W@ATL@@@@@ATL@@PAVRenderedSubtitle@ssf@@V?$CStringElementTraits@V?$CStringT@_WV?$StrTraitMFC@_WV?$ChTraitsCRT@_W@ATL@@@@@ATL@@@2@V?$CElementTraits@PAVRenderedSubtitle@ssf@@@2@@ATL@@QAE_NI_N@Z
	jmp	___CxxFrameHandler3
text$x	ENDS
?InitHashTable@?$CAtlMap@V?$CStringT@_WV?$StrTraitMFC@_WV?$ChTraitsCRT@_W@ATL@@@@@ATL@@PAVRenderedSubtitle@ssf@@V?$CStringElementTraits@V?$CStringT@_WV?$StrTraitMFC@_WV?$ChTraitsCRT@_W@ATL@@@@@ATL@@@2@V?$CElementTraits@PAVRenderedSubtitle@ssf@@@2@@ATL@@QAE_NI_N@Z ENDP ; ATL::CAtlMap<ATL::CStringT<wchar_t,StrTraitMFC<wchar_t,ATL::ChTraitsCRT<wchar_t> > >,ssf::RenderedSubtitle *,ATL::CStringElementTraits<ATL::CStringT<wchar_t,StrTraitMFC<wchar_t,ATL::ChTraitsCRT<wchar_t> > > >,ATL::CElementTraits<ssf::RenderedSubtitle *> >::InitHashTable
; Function compile flags: /Ogtpy
;	COMDAT ?IsEmpty@?$CAtlMap@V?$CStringT@_WV?$StrTraitMFC@_WV?$ChTraitsCRT@_W@ATL@@@@@ATL@@PAVRenderedSubtitle@ssf@@V?$CStringElementTraits@V?$CStringT@_WV?$StrTraitMFC@_WV?$ChTraitsCRT@_W@ATL@@@@@ATL@@@2@V?$CElementTraits@PAVRenderedSubtitle@ssf@@@2@@ATL@@QBE_NXZ
_TEXT	SEGMENT
?IsEmpty@?$CAtlMap@V?$CStringT@_WV?$StrTraitMFC@_WV?$ChTraitsCRT@_W@ATL@@@@@ATL@@PAVRenderedSubtitle@ssf@@V?$CStringElementTraits@V?$CStringT@_WV?$StrTraitMFC@_WV?$ChTraitsCRT@_W@ATL@@@@@ATL@@@2@V?$CElementTraits@PAVRenderedSubtitle@ssf@@@2@@ATL@@QBE_NXZ PROC ; ATL::CAtlMap<ATL::CStringT<wchar_t,StrTraitMFC<wchar_t,ATL::ChTraitsCRT<wchar_t> > >,ssf::RenderedSubtitle *,ATL::CStringElementTraits<ATL::CStringT<wchar_t,StrTraitMFC<wchar_t,ATL::ChTraitsCRT<wchar_t> > > >,ATL::CElementTraits<ssf::RenderedSubtitle *> >::IsEmpty, COMDAT
; _this$ = ecx

; 2158 : 	return( m_nElements == 0 );

	xor	eax, eax
	cmp	DWORD PTR [ecx+4], eax
	sete	al

; 2159 : }

	ret	0
?IsEmpty@?$CAtlMap@V?$CStringT@_WV?$StrTraitMFC@_WV?$ChTraitsCRT@_W@ATL@@@@@ATL@@PAVRenderedSubtitle@ssf@@V?$CStringElementTraits@V?$CStringT@_WV?$StrTraitMFC@_WV?$ChTraitsCRT@_W@ATL@@@@@ATL@@@2@V?$CElementTraits@PAVRenderedSubtitle@ssf@@@2@@ATL@@QBE_NXZ ENDP ; ATL::CAtlMap<ATL::CStringT<wchar_t,StrTraitMFC<wchar_t,ATL::ChTraitsCRT<wchar_t> > >,ssf::RenderedSubtitle *,ATL::CStringElementTraits<ATL::CStringT<wchar_t,StrTraitMFC<wchar_t,ATL::ChTraitsCRT<wchar_t> > > >,ATL::CElementTraits<ssf::RenderedSubtitle *> >::IsEmpty
; Function compile flags: /Ogtpy
_TEXT	ENDS
;	COMDAT ?FindNextNode@?$CAtlMap@V?$CStringT@_WV?$StrTraitMFC@_WV?$ChTraitsCRT@_W@ATL@@@@@ATL@@PAVGlyphPath@ssf@@V?$CStringElementTraits@V?$CStringT@_WV?$StrTraitMFC@_WV?$ChTraitsCRT@_W@ATL@@@@@ATL@@@2@V?$CElementTraits@PAVGlyphPath@ssf@@@2@@ATL@@ABEPAVCNode@12@PAV312@@Z
_TEXT	SEGMENT
?FindNextNode@?$CAtlMap@V?$CStringT@_WV?$StrTraitMFC@_WV?$ChTraitsCRT@_W@ATL@@@@@ATL@@PAVGlyphPath@ssf@@V?$CStringElementTraits@V?$CStringT@_WV?$StrTraitMFC@_WV?$ChTraitsCRT@_W@ATL@@@@@ATL@@@2@V?$CElementTraits@PAVGlyphPath@ssf@@@2@@ATL@@ABEPAVCNode@12@PAV312@@Z PROC ; ATL::CAtlMap<ATL::CStringT<wchar_t,StrTraitMFC<wchar_t,ATL::ChTraitsCRT<wchar_t> > >,ssf::GlyphPath *,ATL::CStringElementTraits<ATL::CStringT<wchar_t,StrTraitMFC<wchar_t,ATL::ChTraitsCRT<wchar_t> > > >,ATL::CElementTraits<ssf::GlyphPath *> >::FindNextNode, COMDAT
; _this$ = edi
; _pNode$ = eax

; 2902 : 	CNode* pNext;
; 2903 : 	
; 2904 : 	if(pNode == NULL)

	test	eax, eax
	jne	SHORT $LN6@FindNextNo@2

; 2932 : }

	ret	0
$LN6@FindNextNo@2:

; 2905 : 	{
; 2906 : 		ATLASSERT(FALSE);
; 2907 : 		return NULL;
; 2908 : 	}
; 2909 : 	
; 2910 : 	if( pNode->m_pNext != NULL )

	mov	ecx, DWORD PTR [eax+8]
	test	ecx, ecx

; 2911 : 	{
; 2912 : 		pNext = pNode->m_pNext;
; 2913 : 	}
; 2914 : 	else

	jne	SHORT $LN2@FindNextNo@2

; 2915 : 	{
; 2916 : 		UINT iBin;
; 2917 : 
; 2918 : 		pNext = NULL;
; 2919 : 		iBin = (pNode->GetHash()%m_nBins)+1;

	mov	eax, DWORD PTR [eax+12]
	push	esi
	mov	esi, DWORD PTR [edi+8]
	xor	edx, edx
	div	esi
	inc	edx
$LL3@FindNextNo@2:

; 2920 : 		while( (pNext == NULL) && (iBin < m_nBins) )

	cmp	edx, esi
	jae	SHORT $LN13@FindNextNo@2
	mov	eax, DWORD PTR [edi]

; 2921 : 		{
; 2922 : 			if( m_ppBins[iBin] != NULL )

	cmp	DWORD PTR [eax+edx*4], 0
	lea	eax, DWORD PTR [eax+edx*4]
	je	SHORT $LN1@FindNextNo@2

; 2923 : 			{
; 2924 : 				pNext = m_ppBins[iBin];

	mov	ecx, DWORD PTR [eax]
$LN1@FindNextNo@2:

; 2925 : 			}
; 2926 : 
; 2927 : 			iBin++;

	inc	edx
	test	ecx, ecx
	je	SHORT $LL3@FindNextNo@2
$LN13@FindNextNo@2:
	pop	esi
$LN2@FindNextNo@2:

; 2928 : 		}
; 2929 : 	}
; 2930 : 
; 2931 : 	return( pNext );

	mov	eax, ecx

; 2932 : }

	ret	0
?FindNextNode@?$CAtlMap@V?$CStringT@_WV?$StrTraitMFC@_WV?$ChTraitsCRT@_W@ATL@@@@@ATL@@PAVGlyphPath@ssf@@V?$CStringElementTraits@V?$CStringT@_WV?$StrTraitMFC@_WV?$ChTraitsCRT@_W@ATL@@@@@ATL@@@2@V?$CElementTraits@PAVGlyphPath@ssf@@@2@@ATL@@ABEPAVCNode@12@PAV312@@Z ENDP ; ATL::CAtlMap<ATL::CStringT<wchar_t,StrTraitMFC<wchar_t,ATL::ChTraitsCRT<wchar_t> > >,ssf::GlyphPath *,ATL::CStringElementTraits<ATL::CStringT<wchar_t,StrTraitMFC<wchar_t,ATL::ChTraitsCRT<wchar_t> > > >,ATL::CElementTraits<ssf::GlyphPath *> >::FindNextNode
; Function compile flags: /Ogtpy
_TEXT	ENDS
;	COMDAT ?PickSize@?$CAtlMap@V?$CStringT@_WV?$StrTraitMFC@_WV?$ChTraitsCRT@_W@ATL@@@@@ATL@@PAVGlyphPath@ssf@@V?$CStringElementTraits@V?$CStringT@_WV?$StrTraitMFC@_WV?$ChTraitsCRT@_W@ATL@@@@@ATL@@@2@V?$CElementTraits@PAVGlyphPath@ssf@@@2@@ATL@@ABEII@Z
_TEXT	SEGMENT
tv200 = -10						; size = 2
tv202 = -8						; size = 4
tv197 = -8						; size = 4
tv195 = -8						; size = 8
?PickSize@?$CAtlMap@V?$CStringT@_WV?$StrTraitMFC@_WV?$ChTraitsCRT@_W@ATL@@@@@ATL@@PAVGlyphPath@ssf@@V?$CStringElementTraits@V?$CStringT@_WV?$StrTraitMFC@_WV?$ChTraitsCRT@_W@ATL@@@@@ATL@@@2@V?$CElementTraits@PAVGlyphPath@ssf@@@2@@ATL@@ABEII@Z PROC ; ATL::CAtlMap<ATL::CStringT<wchar_t,StrTraitMFC<wchar_t,ATL::ChTraitsCRT<wchar_t> > >,ssf::GlyphPath *,ATL::CStringElementTraits<ATL::CStringT<wchar_t,StrTraitMFC<wchar_t,ATL::ChTraitsCRT<wchar_t> > > >,ATL::CElementTraits<ssf::GlyphPath *> >::PickSize, COMDAT
; _this$ = ecx
; _nElements$ = eax

; 2262 : {

	sub	esp, 12					; 0000000cH

; 2263 : 	// List of primes such that s_anPrimes[i] is the smallest prime greater than 2^(5+i/3)
; 2264 : 	static const UINT s_anPrimes[] =
; 2265 : 	{
; 2266 : 		17, 23, 29, 37, 41, 53, 67, 83, 103, 131, 163, 211, 257, 331, 409, 521, 647, 821, 
; 2267 : 		1031, 1291, 1627, 2053, 2591, 3251, 4099, 5167, 6521, 8209, 10331, 
; 2268 : 		13007, 16411, 20663, 26017, 32771, 41299, 52021, 65537, 82571, 104033, 
; 2269 : 		131101, 165161, 208067, 262147, 330287, 416147, 524309, 660563, 
; 2270 : 		832291, 1048583, 1321139, 1664543, 2097169, 2642257, 3329023, 4194319, 
; 2271 : 		5284493, 6658049, 8388617, 10568993, 13316089, UINT_MAX
; 2272 : 	};
; 2273 : 
; 2274 : 	size_t nBins = (size_t)(nElements/m_fOptimalLoad);

	mov	DWORD PTR tv202[esp+12], eax
	fild	DWORD PTR tv202[esp+12]
	test	eax, eax
	jge	SHORT $LN11@PickSize@4
	fadd	DWORD PTR __real@4f800000
$LN11@PickSize@4:
	fdiv	DWORD PTR [ecx+12]
	fnstcw	WORD PTR tv200[esp+12]
	movzx	eax, WORD PTR tv200[esp+12]
	or	eax, 3072				; 00000c00H
	mov	DWORD PTR tv197[esp+12], eax
	fldcw	WORD PTR tv197[esp+12]
	fistp	QWORD PTR tv195[esp+12]
	mov	eax, DWORD PTR tv195[esp+12]
	fldcw	WORD PTR tv200[esp+12]

; 2275 : 	UINT nBinsEstimate = UINT(  UINT_MAX < nBins ? UINT_MAX : nBins );

	cmp	eax, -1
	jbe	SHORT $LN7@PickSize@4
	or	eax, -1
$LN7@PickSize@4:

; 2276 : 
; 2277 : 	// Find the smallest prime greater than our estimate
; 2278 : 	int iPrime = 0;

	xor	ecx, ecx

; 2279 : 	while( nBinsEstimate > s_anPrimes[iPrime] )

	cmp	eax, 17					; 00000011H
	jbe	SHORT $LN3@PickSize@4
	npad	7
$LL4@PickSize@4:

; 2280 : 	{
; 2281 : 		iPrime++;

	inc	ecx
	cmp	eax, DWORD PTR ?s_anPrimes@?1??PickSize@?$CAtlMap@V?$CStringT@_WV?$StrTraitMFC@_WV?$ChTraitsCRT@_W@ATL@@@@@ATL@@PAVGlyphPath@ssf@@V?$CStringElementTraits@V?$CStringT@_WV?$StrTraitMFC@_WV?$ChTraitsCRT@_W@ATL@@@@@ATL@@@2@V?$CElementTraits@PAVGlyphPath@ssf@@@2@@ATL@@ABEII@Z@4QBIB[ecx*4]
	ja	SHORT $LL4@PickSize@4
$LN3@PickSize@4:

; 2282 : 	}
; 2283 : 
; 2284 : 	if( s_anPrimes[iPrime] == UINT_MAX )

	mov	ecx, DWORD PTR ?s_anPrimes@?1??PickSize@?$CAtlMap@V?$CStringT@_WV?$StrTraitMFC@_WV?$ChTraitsCRT@_W@ATL@@@@@ATL@@PAVGlyphPath@ssf@@V?$CStringElementTraits@V?$CStringT@_WV?$StrTraitMFC@_WV?$ChTraitsCRT@_W@ATL@@@@@ATL@@@2@V?$CElementTraits@PAVGlyphPath@ssf@@@2@@ATL@@ABEII@Z@4QBIB[ecx*4]
	cmp	ecx, -1

; 2285 : 	{
; 2286 : 		return( nBinsEstimate );

	je	SHORT $LN1@PickSize@4

; 2287 : 	}
; 2288 : 	else
; 2289 : 	{
; 2290 : 		return( s_anPrimes[iPrime] );

	mov	eax, ecx
$LN1@PickSize@4:

; 2291 : 	}
; 2292 : }

	add	esp, 12					; 0000000cH
	ret	0
?PickSize@?$CAtlMap@V?$CStringT@_WV?$StrTraitMFC@_WV?$ChTraitsCRT@_W@ATL@@@@@ATL@@PAVGlyphPath@ssf@@V?$CStringElementTraits@V?$CStringT@_WV?$StrTraitMFC@_WV?$ChTraitsCRT@_W@ATL@@@@@ATL@@@2@V?$CElementTraits@PAVGlyphPath@ssf@@@2@@ATL@@ABEII@Z ENDP ; ATL::CAtlMap<ATL::CStringT<wchar_t,StrTraitMFC<wchar_t,ATL::ChTraitsCRT<wchar_t> > >,ssf::GlyphPath *,ATL::CStringElementTraits<ATL::CStringT<wchar_t,StrTraitMFC<wchar_t,ATL::ChTraitsCRT<wchar_t> > > >,ATL::CElementTraits<ssf::GlyphPath *> >::PickSize
; Function compile flags: /Ogtpy
_TEXT	ENDS
;	COMDAT ?IsLocked@?$CAtlMap@V?$CStringT@_WV?$StrTraitMFC@_WV?$ChTraitsCRT@_W@ATL@@@@@ATL@@PAVGlyphPath@ssf@@V?$CStringElementTraits@V?$CStringT@_WV?$StrTraitMFC@_WV?$ChTraitsCRT@_W@ATL@@@@@ATL@@@2@V?$CElementTraits@PAVGlyphPath@ssf@@@2@@ATL@@ABE_NXZ
_TEXT	SEGMENT
?IsLocked@?$CAtlMap@V?$CStringT@_WV?$StrTraitMFC@_WV?$ChTraitsCRT@_W@ATL@@@@@ATL@@PAVGlyphPath@ssf@@V?$CStringElementTraits@V?$CStringT@_WV?$StrTraitMFC@_WV?$ChTraitsCRT@_W@ATL@@@@@ATL@@@2@V?$CElementTraits@PAVGlyphPath@ssf@@@2@@ATL@@ABE_NXZ PROC ; ATL::CAtlMap<ATL::CStringT<wchar_t,StrTraitMFC<wchar_t,ATL::ChTraitsCRT<wchar_t> > >,ssf::GlyphPath *,ATL::CStringElementTraits<ATL::CStringT<wchar_t,StrTraitMFC<wchar_t,ATL::ChTraitsCRT<wchar_t> > > >,ATL::CElementTraits<ssf::GlyphPath *> >::IsLocked, COMDAT
; _this$ = ecx

; 2257 : 	return( m_nLockCount != 0 );

	xor	eax, eax
	cmp	DWORD PTR [ecx+32], eax
	setne	al

; 2258 : }

	ret	0
?IsLocked@?$CAtlMap@V?$CStringT@_WV?$StrTraitMFC@_WV?$ChTraitsCRT@_W@ATL@@@@@ATL@@PAVGlyphPath@ssf@@V?$CStringElementTraits@V?$CStringT@_WV?$StrTraitMFC@_WV?$ChTraitsCRT@_W@ATL@@@@@ATL@@@2@V?$CElementTraits@PAVGlyphPath@ssf@@@2@@ATL@@ABE_NXZ ENDP ; ATL::CAtlMap<ATL::CStringT<wchar_t,StrTraitMFC<wchar_t,ATL::ChTraitsCRT<wchar_t> > >,ssf::GlyphPath *,ATL::CStringElementTraits<ATL::CStringT<wchar_t,StrTraitMFC<wchar_t,ATL::ChTraitsCRT<wchar_t> > > >,ATL::CElementTraits<ssf::GlyphPath *> >::IsLocked
; Function compile flags: /Ogtpy
_TEXT	ENDS
;	COMDAT ?DisableAutoRehash@?$CAtlMap@V?$CStringT@_WV?$StrTraitMFC@_WV?$ChTraitsCRT@_W@ATL@@@@@ATL@@PAVGlyphPath@ssf@@V?$CStringElementTraits@V?$CStringT@_WV?$StrTraitMFC@_WV?$ChTraitsCRT@_W@ATL@@@@@ATL@@@2@V?$CElementTraits@PAVGlyphPath@ssf@@@2@@ATL@@QAEXXZ
_TEXT	SEGMENT
?DisableAutoRehash@?$CAtlMap@V?$CStringT@_WV?$StrTraitMFC@_WV?$ChTraitsCRT@_W@ATL@@@@@ATL@@PAVGlyphPath@ssf@@V?$CStringElementTraits@V?$CStringT@_WV?$StrTraitMFC@_WV?$ChTraitsCRT@_W@ATL@@@@@ATL@@@2@V?$CElementTraits@PAVGlyphPath@ssf@@@2@@ATL@@QAEXXZ PROC ; ATL::CAtlMap<ATL::CStringT<wchar_t,StrTraitMFC<wchar_t,ATL::ChTraitsCRT<wchar_t> > >,ssf::GlyphPath *,ATL::CStringElementTraits<ATL::CStringT<wchar_t,StrTraitMFC<wchar_t,ATL::ChTraitsCRT<wchar_t> > > >,ATL::CElementTraits<ssf::GlyphPath *> >::DisableAutoRehash, COMDAT
; _this$ = eax

; 2244 : 	m_nLockCount++;

	inc	DWORD PTR [eax+32]

; 2245 : }

	ret	0
?DisableAutoRehash@?$CAtlMap@V?$CStringT@_WV?$StrTraitMFC@_WV?$ChTraitsCRT@_W@ATL@@@@@ATL@@PAVGlyphPath@ssf@@V?$CStringElementTraits@V?$CStringT@_WV?$StrTraitMFC@_WV?$ChTraitsCRT@_W@ATL@@@@@ATL@@@2@V?$CElementTraits@PAVGlyphPath@ssf@@@2@@ATL@@QAEXXZ ENDP ; ATL::CAtlMap<ATL::CStringT<wchar_t,StrTraitMFC<wchar_t,ATL::ChTraitsCRT<wchar_t> > >,ssf::GlyphPath *,ATL::CStringElementTraits<ATL::CStringT<wchar_t,StrTraitMFC<wchar_t,ATL::ChTraitsCRT<wchar_t> > > >,ATL::CElementTraits<ssf::GlyphPath *> >::DisableAutoRehash
; Function compile flags: /Ogtpy
_TEXT	ENDS
;	COMDAT ?EnableAutoRehash@?$CAtlMap@V?$CStringT@_WV?$StrTraitMFC@_WV?$ChTraitsCRT@_W@ATL@@@@@ATL@@PAVGlyphPath@ssf@@V?$CStringElementTraits@V?$CStringT@_WV?$StrTraitMFC@_WV?$ChTraitsCRT@_W@ATL@@@@@ATL@@@2@V?$CElementTraits@PAVGlyphPath@ssf@@@2@@ATL@@QAEXXZ
_TEXT	SEGMENT
?EnableAutoRehash@?$CAtlMap@V?$CStringT@_WV?$StrTraitMFC@_WV?$ChTraitsCRT@_W@ATL@@@@@ATL@@PAVGlyphPath@ssf@@V?$CStringElementTraits@V?$CStringT@_WV?$StrTraitMFC@_WV?$ChTraitsCRT@_W@ATL@@@@@ATL@@@2@V?$CElementTraits@PAVGlyphPath@ssf@@@2@@ATL@@QAEXXZ PROC ; ATL::CAtlMap<ATL::CStringT<wchar_t,StrTraitMFC<wchar_t,ATL::ChTraitsCRT<wchar_t> > >,ssf::GlyphPath *,ATL::CStringElementTraits<ATL::CStringT<wchar_t,StrTraitMFC<wchar_t,ATL::ChTraitsCRT<wchar_t> > > >,ATL::CElementTraits<ssf::GlyphPath *> >::EnableAutoRehash, COMDAT
; _this$ = eax

; 2250 : 	ATLASSUME( m_nLockCount > 0 );
; 2251 : 	m_nLockCount--;

	dec	DWORD PTR [eax+32]

; 2252 : }

	ret	0
?EnableAutoRehash@?$CAtlMap@V?$CStringT@_WV?$StrTraitMFC@_WV?$ChTraitsCRT@_W@ATL@@@@@ATL@@PAVGlyphPath@ssf@@V?$CStringElementTraits@V?$CStringT@_WV?$StrTraitMFC@_WV?$ChTraitsCRT@_W@ATL@@@@@ATL@@@2@V?$CElementTraits@PAVGlyphPath@ssf@@@2@@ATL@@QAEXXZ ENDP ; ATL::CAtlMap<ATL::CStringT<wchar_t,StrTraitMFC<wchar_t,ATL::ChTraitsCRT<wchar_t> > >,ssf::GlyphPath *,ATL::CStringElementTraits<ATL::CStringT<wchar_t,StrTraitMFC<wchar_t,ATL::ChTraitsCRT<wchar_t> > > >,ATL::CElementTraits<ssf::GlyphPath *> >::EnableAutoRehash
_TEXT	ENDS
;	COMDAT xdata$x
xdata$x	SEGMENT
__unwindtable$?InitHashTable@?$CAtlMap@V?$CStringT@_WV?$StrTraitMFC@_WV?$ChTraitsCRT@_W@ATL@@@@@ATL@@PAVGlyphPath@ssf@@V?$CStringElementTraits@V?$CStringT@_WV?$StrTraitMFC@_WV?$ChTraitsCRT@_W@ATL@@@@@ATL@@@2@V?$CElementTraits@PAVGlyphPath@ssf@@@2@@ATL@@QAE_NI_N@Z DD 0ffffffffH
	DD	00H
	DD	0ffffffffH
	DD	00H
__catchsym$?InitHashTable@?$CAtlMap@V?$CStringT@_WV?$StrTraitMFC@_WV?$ChTraitsCRT@_W@ATL@@@@@ATL@@PAVGlyphPath@ssf@@V?$CStringElementTraits@V?$CStringT@_WV?$StrTraitMFC@_WV?$ChTraitsCRT@_W@ATL@@@@@ATL@@@2@V?$CElementTraits@PAVGlyphPath@ssf@@@2@@ATL@@QAE_NI_N@Z$2 DD 00H
	DD	FLAT:??_R0PAVCException@@@8
	DD	0ffffffecH
	DD	FLAT:__catch$?InitHashTable@?$CAtlMap@V?$CStringT@_WV?$StrTraitMFC@_WV?$ChTraitsCRT@_W@ATL@@@@@ATL@@PAVGlyphPath@ssf@@V?$CStringElementTraits@V?$CStringT@_WV?$StrTraitMFC@_WV?$ChTraitsCRT@_W@ATL@@@@@ATL@@@2@V?$CElementTraits@PAVGlyphPath@ssf@@@2@@ATL@@QAE_NI_N@Z$0
__tryblocktable$?InitHashTable@?$CAtlMap@V?$CStringT@_WV?$StrTraitMFC@_WV?$ChTraitsCRT@_W@ATL@@@@@ATL@@PAVGlyphPath@ssf@@V?$CStringElementTraits@V?$CStringT@_WV?$StrTraitMFC@_WV?$ChTraitsCRT@_W@ATL@@@@@ATL@@@2@V?$CElementTraits@PAVGlyphPath@ssf@@@2@@ATL@@QAE_NI_N@Z DD 00H
	DD	00H
	DD	01H
	DD	01H
	DD	FLAT:__catchsym$?InitHashTable@?$CAtlMap@V?$CStringT@_WV?$StrTraitMFC@_WV?$ChTraitsCRT@_W@ATL@@@@@ATL@@PAVGlyphPath@ssf@@V?$CStringElementTraits@V?$CStringT@_WV?$StrTraitMFC@_WV?$ChTraitsCRT@_W@ATL@@@@@ATL@@@2@V?$CElementTraits@PAVGlyphPath@ssf@@@2@@ATL@@QAE_NI_N@Z$2
__ehfuncinfo$?InitHashTable@?$CAtlMap@V?$CStringT@_WV?$StrTraitMFC@_WV?$ChTraitsCRT@_W@ATL@@@@@ATL@@PAVGlyphPath@ssf@@V?$CStringElementTraits@V?$CStringT@_WV?$StrTraitMFC@_WV?$ChTraitsCRT@_W@ATL@@@@@ATL@@@2@V?$CElementTraits@PAVGlyphPath@ssf@@@2@@ATL@@QAE_NI_N@Z DD 019930522H
	DD	02H
	DD	FLAT:__unwindtable$?InitHashTable@?$CAtlMap@V?$CStringT@_WV?$StrTraitMFC@_WV?$ChTraitsCRT@_W@ATL@@@@@ATL@@PAVGlyphPath@ssf@@V?$CStringElementTraits@V?$CStringT@_WV?$StrTraitMFC@_WV?$ChTraitsCRT@_W@ATL@@@@@ATL@@@2@V?$CElementTraits@PAVGlyphPath@ssf@@@2@@ATL@@QAE_NI_N@Z
	DD	01H
	DD	FLAT:__tryblocktable$?InitHashTable@?$CAtlMap@V?$CStringT@_WV?$StrTraitMFC@_WV?$ChTraitsCRT@_W@ATL@@@@@ATL@@PAVGlyphPath@ssf@@V?$CStringElementTraits@V?$CStringT@_WV?$StrTraitMFC@_WV?$ChTraitsCRT@_W@ATL@@@@@ATL@@@2@V?$CElementTraits@PAVGlyphPath@ssf@@@2@@ATL@@QAE_NI_N@Z
	DD	2 DUP(00H)
	DD	00H
	DD	01H
; Function compile flags: /Ogtpy
xdata$x	ENDS
;	COMDAT ?InitHashTable@?$CAtlMap@V?$CStringT@_WV?$StrTraitMFC@_WV?$ChTraitsCRT@_W@ATL@@@@@ATL@@PAVGlyphPath@ssf@@V?$CStringElementTraits@V?$CStringT@_WV?$StrTraitMFC@_WV?$ChTraitsCRT@_W@ATL@@@@@ATL@@@2@V?$CElementTraits@PAVGlyphPath@ssf@@@2@@ATL@@QAE_NI_N@Z
_TEXT	SEGMENT
_e$130048 = -20						; size = 4
__$EHRec$ = -16						; size = 16
_this$ = 8						; size = 4
_nBins$ = 12						; size = 4
_bAllocNow$ = 16					; size = 1
?InitHashTable@?$CAtlMap@V?$CStringT@_WV?$StrTraitMFC@_WV?$ChTraitsCRT@_W@ATL@@@@@ATL@@PAVGlyphPath@ssf@@V?$CStringElementTraits@V?$CStringT@_WV?$StrTraitMFC@_WV?$ChTraitsCRT@_W@ATL@@@@@ATL@@@2@V?$CElementTraits@PAVGlyphPath@ssf@@@2@@ATL@@QAE_NI_N@Z PROC ; ATL::CAtlMap<ATL::CStringT<wchar_t,StrTraitMFC<wchar_t,ATL::ChTraitsCRT<wchar_t> > >,ssf::GlyphPath *,ATL::CStringElementTraits<ATL::CStringT<wchar_t,StrTraitMFC<wchar_t,ATL::ChTraitsCRT<wchar_t> > > >,ATL::CElementTraits<ssf::GlyphPath *> >::InitHashTable, COMDAT

; 2432 : {

	push	ebp
	mov	ebp, esp
	push	-1
	push	__ehhandler$?InitHashTable@?$CAtlMap@V?$CStringT@_WV?$StrTraitMFC@_WV?$ChTraitsCRT@_W@ATL@@@@@ATL@@PAVGlyphPath@ssf@@V?$CStringElementTraits@V?$CStringT@_WV?$StrTraitMFC@_WV?$ChTraitsCRT@_W@ATL@@@@@ATL@@@2@V?$CElementTraits@PAVGlyphPath@ssf@@@2@@ATL@@QAE_NI_N@Z
	mov	eax, DWORD PTR fs:0
	push	eax
	mov	DWORD PTR fs:0, esp
	sub	esp, 8
	push	ebx
	push	esi
	mov	esi, DWORD PTR _this$[ebp]

; 2433 : 	ATLASSUME( m_nElements == 0 );
; 2434 : 	ATLASSERT( nBins > 0 );
; 2435 : 
; 2436 : 	if( m_ppBins != NULL )

	mov	eax, DWORD PTR [esi]
	push	edi
	mov	edi, DWORD PTR _nBins$[ebp]
	mov	DWORD PTR __$EHRec$[ebp], esp
	test	eax, eax
	je	SHORT $LN4@InitHashTa@4

; 2437 : 	{
; 2438 : 		delete[] m_ppBins;

	push	eax
	call	??_V@YAXPAX@Z				; operator delete[]
	add	esp, 4

; 2439 : 		m_ppBins = NULL;

	mov	DWORD PTR [esi], 0
$LN4@InitHashTa@4:

; 2440 : 	}
; 2441 : 
; 2442 : 	if( bAllocNow )

	cmp	BYTE PTR _bAllocNow$[ebp], 0
	je	SHORT $LN3@InitHashTa@4

; 2443 : 	{
; 2444 : 		ATLTRY( m_ppBins = new CNode*[nBins] );

	xor	ecx, ecx
	mov	eax, edi
	mov	edx, 4
	mul	edx
	seto	cl
	mov	DWORD PTR __$EHRec$[ebp+12], 0
	neg	ecx
	or	ecx, eax
	push	ecx
	call	??_U@YAPAXI@Z				; operator new[]
	add	esp, 4
	mov	DWORD PTR [esi], eax
	jmp	SHORT $LN16@InitHashTa@4
__catch$?InitHashTable@?$CAtlMap@V?$CStringT@_WV?$StrTraitMFC@_WV?$ChTraitsCRT@_W@ATL@@@@@ATL@@PAVGlyphPath@ssf@@V?$CStringElementTraits@V?$CStringT@_WV?$StrTraitMFC@_WV?$ChTraitsCRT@_W@ATL@@@@@ATL@@@2@V?$CElementTraits@PAVGlyphPath@ssf@@@2@@ATL@@QAE_NI_N@Z$0:
	mov	ecx, DWORD PTR _e$130048[ebp]
	call	?Delete@CException@@QAEXXZ		; CException::Delete
	mov	eax, $LN18@InitHashTa@4
	ret	0
$LN18@InitHashTa@4:
	mov	esi, DWORD PTR _this$[ebp]
	mov	edi, DWORD PTR _nBins$[ebp]
$LN16@InitHashTa@4:

; 2445 : 		if( m_ppBins == NULL )

	mov	eax, DWORD PTR [esi]
	test	eax, eax
	jne	SHORT $LN1@InitHashTa@4

; 2446 : 		{
; 2447 : 			return false;

	xor	al, al

; 2454 : 
; 2455 : 	return true;
; 2456 : }

	mov	ecx, DWORD PTR __$EHRec$[ebp+4]
	mov	DWORD PTR fs:0, ecx
	pop	edi
	pop	esi
	pop	ebx
	mov	esp, ebp
	pop	ebp
	ret	12					; 0000000cH
$LN1@InitHashTa@4:

; 2448 : 		}
; 2449 : 		memset( m_ppBins, 0, sizeof( CNode* )*nBins );

	lea	ecx, DWORD PTR [edi*4]
	push	ecx
	push	0
	push	eax
	call	_memset
	add	esp, 12					; 0000000cH
$LN3@InitHashTa@4:

; 2450 : 	}
; 2451 : 	m_nBins = nBins;
; 2452 : 
; 2453 : 	UpdateRehashThresholds();

	mov	ecx, esi
	mov	DWORD PTR [esi+8], edi
	call	?UpdateRehashThresholds@?$CAtlMap@V?$CStringT@_WV?$StrTraitMFC@_WV?$ChTraitsCRT@_W@ATL@@@@@ATL@@PAVGlyphPath@ssf@@V?$CStringElementTraits@V?$CStringT@_WV?$StrTraitMFC@_WV?$ChTraitsCRT@_W@ATL@@@@@ATL@@@2@V?$CElementTraits@PAVGlyphPath@ssf@@@2@@ATL@@AAEXXZ ; ATL::CAtlMap<ATL::CStringT<wchar_t,StrTraitMFC<wchar_t,ATL::ChTraitsCRT<wchar_t> > >,ssf::GlyphPath *,ATL::CStringElementTraits<ATL::CStringT<wchar_t,StrTraitMFC<wchar_t,ATL::ChTraitsCRT<wchar_t> > > >,ATL::CElementTraits<ssf::GlyphPath *> >::UpdateRehashThresholds

; 2454 : 
; 2455 : 	return true;
; 2456 : }

	mov	ecx, DWORD PTR __$EHRec$[ebp+4]
	pop	edi
	pop	esi
	mov	al, 1
	mov	DWORD PTR fs:0, ecx
	pop	ebx
	mov	esp, ebp
	pop	ebp
	ret	12					; 0000000cH
_TEXT	ENDS
;	COMDAT text$x
text$x	SEGMENT
__ehhandler$?InitHashTable@?$CAtlMap@V?$CStringT@_WV?$StrTraitMFC@_WV?$ChTraitsCRT@_W@ATL@@@@@ATL@@PAVGlyphPath@ssf@@V?$CStringElementTraits@V?$CStringT@_WV?$StrTraitMFC@_WV?$ChTraitsCRT@_W@ATL@@@@@ATL@@@2@V?$CElementTraits@PAVGlyphPath@ssf@@@2@@ATL@@QAE_NI_N@Z:
	mov	eax, OFFSET __ehfuncinfo$?InitHashTable@?$CAtlMap@V?$CStringT@_WV?$StrTraitMFC@_WV?$ChTraitsCRT@_W@ATL@@@@@ATL@@PAVGlyphPath@ssf@@V?$CStringElementTraits@V?$CStringT@_WV?$StrTraitMFC@_WV?$ChTraitsCRT@_W@ATL@@@@@ATL@@@2@V?$CElementTraits@PAVGlyphPath@ssf@@@2@@ATL@@QAE_NI_N@Z
	jmp	___CxxFrameHandler3
text$x	ENDS
?InitHashTable@?$CAtlMap@V?$CStringT@_WV?$StrTraitMFC@_WV?$ChTraitsCRT@_W@ATL@@@@@ATL@@PAVGlyphPath@ssf@@V?$CStringElementTraits@V?$CStringT@_WV?$StrTraitMFC@_WV?$ChTraitsCRT@_W@ATL@@@@@ATL@@@2@V?$CElementTraits@PAVGlyphPath@ssf@@@2@@ATL@@QAE_NI_N@Z ENDP ; ATL::CAtlMap<ATL::CStringT<wchar_t,StrTraitMFC<wchar_t,ATL::ChTraitsCRT<wchar_t> > >,ssf::GlyphPath *,ATL::CStringElementTraits<ATL::CStringT<wchar_t,StrTraitMFC<wchar_t,ATL::ChTraitsCRT<wchar_t> > > >,ATL::CElementTraits<ssf::GlyphPath *> >::InitHashTable
; Function compile flags: /Ogtpy
;	COMDAT ?IsEmpty@?$CAtlMap@V?$CStringT@_WV?$StrTraitMFC@_WV?$ChTraitsCRT@_W@ATL@@@@@ATL@@PAVGlyphPath@ssf@@V?$CStringElementTraits@V?$CStringT@_WV?$StrTraitMFC@_WV?$ChTraitsCRT@_W@ATL@@@@@ATL@@@2@V?$CElementTraits@PAVGlyphPath@ssf@@@2@@ATL@@QBE_NXZ
_TEXT	SEGMENT
?IsEmpty@?$CAtlMap@V?$CStringT@_WV?$StrTraitMFC@_WV?$ChTraitsCRT@_W@ATL@@@@@ATL@@PAVGlyphPath@ssf@@V?$CStringElementTraits@V?$CStringT@_WV?$StrTraitMFC@_WV?$ChTraitsCRT@_W@ATL@@@@@ATL@@@2@V?$CElementTraits@PAVGlyphPath@ssf@@@2@@ATL@@QBE_NXZ PROC ; ATL::CAtlMap<ATL::CStringT<wchar_t,StrTraitMFC<wchar_t,ATL::ChTraitsCRT<wchar_t> > >,ssf::GlyphPath *,ATL::CStringElementTraits<ATL::CStringT<wchar_t,StrTraitMFC<wchar_t,ATL::ChTraitsCRT<wchar_t> > > >,ATL::CElementTraits<ssf::GlyphPath *> >::IsEmpty, COMDAT
; _this$ = ecx

; 2158 : 	return( m_nElements == 0 );

	xor	eax, eax
	cmp	DWORD PTR [ecx+4], eax
	sete	al

; 2159 : }

	ret	0
?IsEmpty@?$CAtlMap@V?$CStringT@_WV?$StrTraitMFC@_WV?$ChTraitsCRT@_W@ATL@@@@@ATL@@PAVGlyphPath@ssf@@V?$CStringElementTraits@V?$CStringT@_WV?$StrTraitMFC@_WV?$ChTraitsCRT@_W@ATL@@@@@ATL@@@2@V?$CElementTraits@PAVGlyphPath@ssf@@@2@@ATL@@QBE_NXZ ENDP ; ATL::CAtlMap<ATL::CStringT<wchar_t,StrTraitMFC<wchar_t,ATL::ChTraitsCRT<wchar_t> > >,ssf::GlyphPath *,ATL::CStringElementTraits<ATL::CStringT<wchar_t,StrTraitMFC<wchar_t,ATL::ChTraitsCRT<wchar_t> > > >,ATL::CElementTraits<ssf::GlyphPath *> >::IsEmpty
; Function compile flags: /Ogtpy
_TEXT	ENDS
;	COMDAT ?FindNextNode@?$CAtlMap@V?$CStringT@_WV?$StrTraitMFC@_WV?$ChTraitsCRT@_W@ATL@@@@@ATL@@PAVFontWrapper@ssf@@V?$CStringElementTraits@V?$CStringT@_WV?$StrTraitMFC@_WV?$ChTraitsCRT@_W@ATL@@@@@ATL@@@2@V?$CElementTraits@PAVFontWrapper@ssf@@@2@@ATL@@ABEPAVCNode@12@PAV312@@Z
_TEXT	SEGMENT
?FindNextNode@?$CAtlMap@V?$CStringT@_WV?$StrTraitMFC@_WV?$ChTraitsCRT@_W@ATL@@@@@ATL@@PAVFontWrapper@ssf@@V?$CStringElementTraits@V?$CStringT@_WV?$StrTraitMFC@_WV?$ChTraitsCRT@_W@ATL@@@@@ATL@@@2@V?$CElementTraits@PAVFontWrapper@ssf@@@2@@ATL@@ABEPAVCNode@12@PAV312@@Z PROC ; ATL::CAtlMap<ATL::CStringT<wchar_t,StrTraitMFC<wchar_t,ATL::ChTraitsCRT<wchar_t> > >,ssf::FontWrapper *,ATL::CStringElementTraits<ATL::CStringT<wchar_t,StrTraitMFC<wchar_t,ATL::ChTraitsCRT<wchar_t> > > >,ATL::CElementTraits<ssf::FontWrapper *> >::FindNextNode, COMDAT
; _this$ = edi
; _pNode$ = eax

; 2902 : 	CNode* pNext;
; 2903 : 	
; 2904 : 	if(pNode == NULL)

	test	eax, eax
	jne	SHORT $LN6@FindNextNo@3

; 2932 : }

	ret	0
$LN6@FindNextNo@3:

; 2905 : 	{
; 2906 : 		ATLASSERT(FALSE);
; 2907 : 		return NULL;
; 2908 : 	}
; 2909 : 	
; 2910 : 	if( pNode->m_pNext != NULL )

	mov	ecx, DWORD PTR [eax+8]
	test	ecx, ecx

; 2911 : 	{
; 2912 : 		pNext = pNode->m_pNext;
; 2913 : 	}
; 2914 : 	else

	jne	SHORT $LN2@FindNextNo@3

; 2915 : 	{
; 2916 : 		UINT iBin;
; 2917 : 
; 2918 : 		pNext = NULL;
; 2919 : 		iBin = (pNode->GetHash()%m_nBins)+1;

	mov	eax, DWORD PTR [eax+12]
	push	esi
	mov	esi, DWORD PTR [edi+8]
	xor	edx, edx
	div	esi
	inc	edx
$LL3@FindNextNo@3:

; 2920 : 		while( (pNext == NULL) && (iBin < m_nBins) )

	cmp	edx, esi
	jae	SHORT $LN13@FindNextNo@3
	mov	eax, DWORD PTR [edi]

; 2921 : 		{
; 2922 : 			if( m_ppBins[iBin] != NULL )

	cmp	DWORD PTR [eax+edx*4], 0
	lea	eax, DWORD PTR [eax+edx*4]
	je	SHORT $LN1@FindNextNo@3

; 2923 : 			{
; 2924 : 				pNext = m_ppBins[iBin];

	mov	ecx, DWORD PTR [eax]
$LN1@FindNextNo@3:

; 2925 : 			}
; 2926 : 
; 2927 : 			iBin++;

	inc	edx
	test	ecx, ecx
	je	SHORT $LL3@FindNextNo@3
$LN13@FindNextNo@3:
	pop	esi
$LN2@FindNextNo@3:

; 2928 : 		}
; 2929 : 	}
; 2930 : 
; 2931 : 	return( pNext );

	mov	eax, ecx

; 2932 : }

	ret	0
?FindNextNode@?$CAtlMap@V?$CStringT@_WV?$StrTraitMFC@_WV?$ChTraitsCRT@_W@ATL@@@@@ATL@@PAVFontWrapper@ssf@@V?$CStringElementTraits@V?$CStringT@_WV?$StrTraitMFC@_WV?$ChTraitsCRT@_W@ATL@@@@@ATL@@@2@V?$CElementTraits@PAVFontWrapper@ssf@@@2@@ATL@@ABEPAVCNode@12@PAV312@@Z ENDP ; ATL::CAtlMap<ATL::CStringT<wchar_t,StrTraitMFC<wchar_t,ATL::ChTraitsCRT<wchar_t> > >,ssf::FontWrapper *,ATL::CStringElementTraits<ATL::CStringT<wchar_t,StrTraitMFC<wchar_t,ATL::ChTraitsCRT<wchar_t> > > >,ATL::CElementTraits<ssf::FontWrapper *> >::FindNextNode
; Function compile flags: /Ogtpy
_TEXT	ENDS
;	COMDAT ?PickSize@?$CAtlMap@V?$CStringT@_WV?$StrTraitMFC@_WV?$ChTraitsCRT@_W@ATL@@@@@ATL@@PAVFontWrapper@ssf@@V?$CStringElementTraits@V?$CStringT@_WV?$StrTraitMFC@_WV?$ChTraitsCRT@_W@ATL@@@@@ATL@@@2@V?$CElementTraits@PAVFontWrapper@ssf@@@2@@ATL@@ABEII@Z
_TEXT	SEGMENT
tv200 = -10						; size = 2
tv202 = -8						; size = 4
tv197 = -8						; size = 4
tv195 = -8						; size = 8
?PickSize@?$CAtlMap@V?$CStringT@_WV?$StrTraitMFC@_WV?$ChTraitsCRT@_W@ATL@@@@@ATL@@PAVFontWrapper@ssf@@V?$CStringElementTraits@V?$CStringT@_WV?$StrTraitMFC@_WV?$ChTraitsCRT@_W@ATL@@@@@ATL@@@2@V?$CElementTraits@PAVFontWrapper@ssf@@@2@@ATL@@ABEII@Z PROC ; ATL::CAtlMap<ATL::CStringT<wchar_t,StrTraitMFC<wchar_t,ATL::ChTraitsCRT<wchar_t> > >,ssf::FontWrapper *,ATL::CStringElementTraits<ATL::CStringT<wchar_t,StrTraitMFC<wchar_t,ATL::ChTraitsCRT<wchar_t> > > >,ATL::CElementTraits<ssf::FontWrapper *> >::PickSize, COMDAT
; _this$ = ecx
; _nElements$ = eax

; 2262 : {

	sub	esp, 12					; 0000000cH

; 2263 : 	// List of primes such that s_anPrimes[i] is the smallest prime greater than 2^(5+i/3)
; 2264 : 	static const UINT s_anPrimes[] =
; 2265 : 	{
; 2266 : 		17, 23, 29, 37, 41, 53, 67, 83, 103, 131, 163, 211, 257, 331, 409, 521, 647, 821, 
; 2267 : 		1031, 1291, 1627, 2053, 2591, 3251, 4099, 5167, 6521, 8209, 10331, 
; 2268 : 		13007, 16411, 20663, 26017, 32771, 41299, 52021, 65537, 82571, 104033, 
; 2269 : 		131101, 165161, 208067, 262147, 330287, 416147, 524309, 660563, 
; 2270 : 		832291, 1048583, 1321139, 1664543, 2097169, 2642257, 3329023, 4194319, 
; 2271 : 		5284493, 6658049, 8388617, 10568993, 13316089, UINT_MAX
; 2272 : 	};
; 2273 : 
; 2274 : 	size_t nBins = (size_t)(nElements/m_fOptimalLoad);

	mov	DWORD PTR tv202[esp+12], eax
	fild	DWORD PTR tv202[esp+12]
	test	eax, eax
	jge	SHORT $LN11@PickSize@5
	fadd	DWORD PTR __real@4f800000
$LN11@PickSize@5:
	fdiv	DWORD PTR [ecx+12]
	fnstcw	WORD PTR tv200[esp+12]
	movzx	eax, WORD PTR tv200[esp+12]
	or	eax, 3072				; 00000c00H
	mov	DWORD PTR tv197[esp+12], eax
	fldcw	WORD PTR tv197[esp+12]
	fistp	QWORD PTR tv195[esp+12]
	mov	eax, DWORD PTR tv195[esp+12]
	fldcw	WORD PTR tv200[esp+12]

; 2275 : 	UINT nBinsEstimate = UINT(  UINT_MAX < nBins ? UINT_MAX : nBins );

	cmp	eax, -1
	jbe	SHORT $LN7@PickSize@5
	or	eax, -1
$LN7@PickSize@5:

; 2276 : 
; 2277 : 	// Find the smallest prime greater than our estimate
; 2278 : 	int iPrime = 0;

	xor	ecx, ecx

; 2279 : 	while( nBinsEstimate > s_anPrimes[iPrime] )

	cmp	eax, 17					; 00000011H
	jbe	SHORT $LN3@PickSize@5
	npad	7
$LL4@PickSize@5:

; 2280 : 	{
; 2281 : 		iPrime++;

	inc	ecx
	cmp	eax, DWORD PTR ?s_anPrimes@?1??PickSize@?$CAtlMap@V?$CStringT@_WV?$StrTraitMFC@_WV?$ChTraitsCRT@_W@ATL@@@@@ATL@@PAVFontWrapper@ssf@@V?$CStringElementTraits@V?$CStringT@_WV?$StrTraitMFC@_WV?$ChTraitsCRT@_W@ATL@@@@@ATL@@@2@V?$CElementTraits@PAVFontWrapper@ssf@@@2@@ATL@@ABEII@Z@4QBIB[ecx*4]
	ja	SHORT $LL4@PickSize@5
$LN3@PickSize@5:

; 2282 : 	}
; 2283 : 
; 2284 : 	if( s_anPrimes[iPrime] == UINT_MAX )

	mov	ecx, DWORD PTR ?s_anPrimes@?1??PickSize@?$CAtlMap@V?$CStringT@_WV?$StrTraitMFC@_WV?$ChTraitsCRT@_W@ATL@@@@@ATL@@PAVFontWrapper@ssf@@V?$CStringElementTraits@V?$CStringT@_WV?$StrTraitMFC@_WV?$ChTraitsCRT@_W@ATL@@@@@ATL@@@2@V?$CElementTraits@PAVFontWrapper@ssf@@@2@@ATL@@ABEII@Z@4QBIB[ecx*4]
	cmp	ecx, -1

; 2285 : 	{
; 2286 : 		return( nBinsEstimate );

	je	SHORT $LN1@PickSize@5

; 2287 : 	}
; 2288 : 	else
; 2289 : 	{
; 2290 : 		return( s_anPrimes[iPrime] );

	mov	eax, ecx
$LN1@PickSize@5:

; 2291 : 	}
; 2292 : }

